ARM GAS  /tmp/ccLJIDLw.s 			page 1


   1              		.cpu cortex-m4
   2              		.eabi_attribute 27, 1
   3              		.eabi_attribute 28, 1
   4              		.eabi_attribute 20, 1
   5              		.eabi_attribute 21, 1
   6              		.eabi_attribute 23, 3
   7              		.eabi_attribute 24, 1
   8              		.eabi_attribute 25, 1
   9              		.eabi_attribute 26, 1
  10              		.eabi_attribute 30, 6
  11              		.eabi_attribute 34, 1
  12              		.eabi_attribute 18, 4
  13              		.file	"stm32f4xx_hal_uart.c"
  14              		.text
  15              	.Ltext0:
  16              		.cfi_sections	.debug_frame
  17              		.section	.text.HAL_UART_Init,"ax",%progbits
  18              		.align	1
  19              		.global	HAL_UART_Init
  20              		.syntax unified
  21              		.thumb
  22              		.thumb_func
  23              		.fpu fpv4-sp-d16
  25              	HAL_UART_Init:
  26              	.LFB124:
  27              		.file 1 "Drivers/STM32F4xx_HAL_Driver/Src/stm32f4xx_hal_uart.c"
   1:Drivers/STM32F4xx_HAL_Driver/Src/stm32f4xx_hal_uart.c **** /**
   2:Drivers/STM32F4xx_HAL_Driver/Src/stm32f4xx_hal_uart.c ****   ******************************************************************************
   3:Drivers/STM32F4xx_HAL_Driver/Src/stm32f4xx_hal_uart.c ****   * @file    stm32f4xx_hal_uart.c
   4:Drivers/STM32F4xx_HAL_Driver/Src/stm32f4xx_hal_uart.c ****   * @author  MCD Application Team
   5:Drivers/STM32F4xx_HAL_Driver/Src/stm32f4xx_hal_uart.c ****   * @brief   UART HAL module driver.
   6:Drivers/STM32F4xx_HAL_Driver/Src/stm32f4xx_hal_uart.c ****   *          This file provides firmware functions to manage the following 
   7:Drivers/STM32F4xx_HAL_Driver/Src/stm32f4xx_hal_uart.c ****   *          functionalities of the Universal Asynchronous Receiver Transmitter (UART) peripheral:
   8:Drivers/STM32F4xx_HAL_Driver/Src/stm32f4xx_hal_uart.c ****   *           + Initialization and de-initialization functions
   9:Drivers/STM32F4xx_HAL_Driver/Src/stm32f4xx_hal_uart.c ****   *           + IO operation functions
  10:Drivers/STM32F4xx_HAL_Driver/Src/stm32f4xx_hal_uart.c ****   *           + Peripheral Control functions  
  11:Drivers/STM32F4xx_HAL_Driver/Src/stm32f4xx_hal_uart.c ****   *           + Peripheral State and Errors functions  
  12:Drivers/STM32F4xx_HAL_Driver/Src/stm32f4xx_hal_uart.c ****   *           
  13:Drivers/STM32F4xx_HAL_Driver/Src/stm32f4xx_hal_uart.c ****   @verbatim       
  14:Drivers/STM32F4xx_HAL_Driver/Src/stm32f4xx_hal_uart.c ****   ==============================================================================
  15:Drivers/STM32F4xx_HAL_Driver/Src/stm32f4xx_hal_uart.c ****                         ##### How to use this driver #####
  16:Drivers/STM32F4xx_HAL_Driver/Src/stm32f4xx_hal_uart.c ****   ==============================================================================
  17:Drivers/STM32F4xx_HAL_Driver/Src/stm32f4xx_hal_uart.c ****   [..]
  18:Drivers/STM32F4xx_HAL_Driver/Src/stm32f4xx_hal_uart.c ****     The UART HAL driver can be used as follows:
  19:Drivers/STM32F4xx_HAL_Driver/Src/stm32f4xx_hal_uart.c ****     
  20:Drivers/STM32F4xx_HAL_Driver/Src/stm32f4xx_hal_uart.c ****     (#) Declare a UART_HandleTypeDef handle structure.
  21:Drivers/STM32F4xx_HAL_Driver/Src/stm32f4xx_hal_uart.c ****   
  22:Drivers/STM32F4xx_HAL_Driver/Src/stm32f4xx_hal_uart.c ****     (#) Initialize the UART low level resources by implementing the HAL_UART_MspInit() API:
  23:Drivers/STM32F4xx_HAL_Driver/Src/stm32f4xx_hal_uart.c ****         (##) Enable the USARTx interface clock.
  24:Drivers/STM32F4xx_HAL_Driver/Src/stm32f4xx_hal_uart.c ****         (##) UART pins configuration:
  25:Drivers/STM32F4xx_HAL_Driver/Src/stm32f4xx_hal_uart.c ****             (+++) Enable the clock for the UART GPIOs.
  26:Drivers/STM32F4xx_HAL_Driver/Src/stm32f4xx_hal_uart.c ****             (+++) Configure these UART pins as alternate function pull-up.
  27:Drivers/STM32F4xx_HAL_Driver/Src/stm32f4xx_hal_uart.c ****         (##) NVIC configuration if you need to use interrupt process (HAL_UART_Transmit_IT()
  28:Drivers/STM32F4xx_HAL_Driver/Src/stm32f4xx_hal_uart.c ****              and HAL_UART_Receive_IT() APIs):
  29:Drivers/STM32F4xx_HAL_Driver/Src/stm32f4xx_hal_uart.c ****             (+++) Configure the USARTx interrupt priority.
  30:Drivers/STM32F4xx_HAL_Driver/Src/stm32f4xx_hal_uart.c ****             (+++) Enable the NVIC USART IRQ handle.
  31:Drivers/STM32F4xx_HAL_Driver/Src/stm32f4xx_hal_uart.c ****         (##) DMA Configuration if you need to use DMA process (HAL_UART_Transmit_DMA()
ARM GAS  /tmp/ccLJIDLw.s 			page 2


  32:Drivers/STM32F4xx_HAL_Driver/Src/stm32f4xx_hal_uart.c ****              and HAL_UART_Receive_DMA() APIs):
  33:Drivers/STM32F4xx_HAL_Driver/Src/stm32f4xx_hal_uart.c ****             (+++) Declare a DMA handle structure for the Tx/Rx stream.
  34:Drivers/STM32F4xx_HAL_Driver/Src/stm32f4xx_hal_uart.c ****             (+++) Enable the DMAx interface clock.
  35:Drivers/STM32F4xx_HAL_Driver/Src/stm32f4xx_hal_uart.c ****             (+++) Configure the declared DMA handle structure with the required 
  36:Drivers/STM32F4xx_HAL_Driver/Src/stm32f4xx_hal_uart.c ****                   Tx/Rx parameters.                
  37:Drivers/STM32F4xx_HAL_Driver/Src/stm32f4xx_hal_uart.c ****             (+++) Configure the DMA Tx/Rx Stream.
  38:Drivers/STM32F4xx_HAL_Driver/Src/stm32f4xx_hal_uart.c ****             (+++) Associate the initialized DMA handle to the UART DMA Tx/Rx handle.
  39:Drivers/STM32F4xx_HAL_Driver/Src/stm32f4xx_hal_uart.c ****             (+++) Configure the priority and enable the NVIC for the transfer complete 
  40:Drivers/STM32F4xx_HAL_Driver/Src/stm32f4xx_hal_uart.c ****                   interrupt on the DMA Tx/Rx Stream.
  41:Drivers/STM32F4xx_HAL_Driver/Src/stm32f4xx_hal_uart.c **** 
  42:Drivers/STM32F4xx_HAL_Driver/Src/stm32f4xx_hal_uart.c ****     (#) Program the Baud Rate, Word Length, Stop Bit, Parity, Hardware 
  43:Drivers/STM32F4xx_HAL_Driver/Src/stm32f4xx_hal_uart.c ****         flow control and Mode(Receiver/Transmitter) in the Init structure.
  44:Drivers/STM32F4xx_HAL_Driver/Src/stm32f4xx_hal_uart.c **** 
  45:Drivers/STM32F4xx_HAL_Driver/Src/stm32f4xx_hal_uart.c ****     (#) For the UART asynchronous mode, initialize the UART registers by calling
  46:Drivers/STM32F4xx_HAL_Driver/Src/stm32f4xx_hal_uart.c ****         the HAL_UART_Init() API.
  47:Drivers/STM32F4xx_HAL_Driver/Src/stm32f4xx_hal_uart.c ****     
  48:Drivers/STM32F4xx_HAL_Driver/Src/stm32f4xx_hal_uart.c ****     (#) For the UART Half duplex mode, initialize the UART registers by calling 
  49:Drivers/STM32F4xx_HAL_Driver/Src/stm32f4xx_hal_uart.c ****         the HAL_HalfDuplex_Init() API.
  50:Drivers/STM32F4xx_HAL_Driver/Src/stm32f4xx_hal_uart.c ****     
  51:Drivers/STM32F4xx_HAL_Driver/Src/stm32f4xx_hal_uart.c ****     (#) For the LIN mode, initialize the UART registers by calling the HAL_LIN_Init() API.
  52:Drivers/STM32F4xx_HAL_Driver/Src/stm32f4xx_hal_uart.c ****     
  53:Drivers/STM32F4xx_HAL_Driver/Src/stm32f4xx_hal_uart.c ****     (#) For the Multi-Processor mode, initialize the UART registers by calling 
  54:Drivers/STM32F4xx_HAL_Driver/Src/stm32f4xx_hal_uart.c ****         the HAL_MultiProcessor_Init() API.
  55:Drivers/STM32F4xx_HAL_Driver/Src/stm32f4xx_hal_uart.c ****         
  56:Drivers/STM32F4xx_HAL_Driver/Src/stm32f4xx_hal_uart.c ****      [..] 
  57:Drivers/STM32F4xx_HAL_Driver/Src/stm32f4xx_hal_uart.c ****        (@) The specific UART interrupts (Transmission complete interrupt, 
  58:Drivers/STM32F4xx_HAL_Driver/Src/stm32f4xx_hal_uart.c ****             RXNE interrupt and Error Interrupts) will be managed using the macros
  59:Drivers/STM32F4xx_HAL_Driver/Src/stm32f4xx_hal_uart.c ****             __HAL_UART_ENABLE_IT() and __HAL_UART_DISABLE_IT() inside the transmit 
  60:Drivers/STM32F4xx_HAL_Driver/Src/stm32f4xx_hal_uart.c ****             and receive process.
  61:Drivers/STM32F4xx_HAL_Driver/Src/stm32f4xx_hal_uart.c ****           
  62:Drivers/STM32F4xx_HAL_Driver/Src/stm32f4xx_hal_uart.c ****      [..] 
  63:Drivers/STM32F4xx_HAL_Driver/Src/stm32f4xx_hal_uart.c ****        (@) These APIs (HAL_UART_Init() and HAL_HalfDuplex_Init()) configure also the 
  64:Drivers/STM32F4xx_HAL_Driver/Src/stm32f4xx_hal_uart.c ****             low level Hardware GPIO, CLOCK, CORTEX...etc) by calling the customized 
  65:Drivers/STM32F4xx_HAL_Driver/Src/stm32f4xx_hal_uart.c ****             HAL_UART_MspInit() API.
  66:Drivers/STM32F4xx_HAL_Driver/Src/stm32f4xx_hal_uart.c ****           
  67:Drivers/STM32F4xx_HAL_Driver/Src/stm32f4xx_hal_uart.c ****      [..] 
  68:Drivers/STM32F4xx_HAL_Driver/Src/stm32f4xx_hal_uart.c ****         Three operation modes are available within this driver :     
  69:Drivers/STM32F4xx_HAL_Driver/Src/stm32f4xx_hal_uart.c ****   
  70:Drivers/STM32F4xx_HAL_Driver/Src/stm32f4xx_hal_uart.c ****      *** Polling mode IO operation ***
  71:Drivers/STM32F4xx_HAL_Driver/Src/stm32f4xx_hal_uart.c ****      =================================
  72:Drivers/STM32F4xx_HAL_Driver/Src/stm32f4xx_hal_uart.c ****      [..]    
  73:Drivers/STM32F4xx_HAL_Driver/Src/stm32f4xx_hal_uart.c ****        (+) Send an amount of data in blocking mode using HAL_UART_Transmit() 
  74:Drivers/STM32F4xx_HAL_Driver/Src/stm32f4xx_hal_uart.c ****        (+) Receive an amount of data in blocking mode using HAL_UART_Receive()
  75:Drivers/STM32F4xx_HAL_Driver/Src/stm32f4xx_hal_uart.c ****        
  76:Drivers/STM32F4xx_HAL_Driver/Src/stm32f4xx_hal_uart.c ****      *** Interrupt mode IO operation ***    
  77:Drivers/STM32F4xx_HAL_Driver/Src/stm32f4xx_hal_uart.c ****      ===================================
  78:Drivers/STM32F4xx_HAL_Driver/Src/stm32f4xx_hal_uart.c ****      [..]    
  79:Drivers/STM32F4xx_HAL_Driver/Src/stm32f4xx_hal_uart.c ****        (+) Send an amount of data in non blocking mode using HAL_UART_Transmit_IT() 
  80:Drivers/STM32F4xx_HAL_Driver/Src/stm32f4xx_hal_uart.c ****        (+) At transmission end of transfer HAL_UART_TxCpltCallback is executed and user can 
  81:Drivers/STM32F4xx_HAL_Driver/Src/stm32f4xx_hal_uart.c ****             add his own code by customization of function pointer HAL_UART_TxCpltCallback
  82:Drivers/STM32F4xx_HAL_Driver/Src/stm32f4xx_hal_uart.c ****        (+) Receive an amount of data in non blocking mode using HAL_UART_Receive_IT() 
  83:Drivers/STM32F4xx_HAL_Driver/Src/stm32f4xx_hal_uart.c ****        (+) At reception end of transfer HAL_UART_RxCpltCallback is executed and user can 
  84:Drivers/STM32F4xx_HAL_Driver/Src/stm32f4xx_hal_uart.c ****             add his own code by customization of function pointer HAL_UART_RxCpltCallback
  85:Drivers/STM32F4xx_HAL_Driver/Src/stm32f4xx_hal_uart.c ****        (+) In case of transfer Error, HAL_UART_ErrorCallback() function is executed and user can 
  86:Drivers/STM32F4xx_HAL_Driver/Src/stm32f4xx_hal_uart.c ****             add his own code by customization of function pointer HAL_UART_ErrorCallback
  87:Drivers/STM32F4xx_HAL_Driver/Src/stm32f4xx_hal_uart.c **** 
  88:Drivers/STM32F4xx_HAL_Driver/Src/stm32f4xx_hal_uart.c ****      *** DMA mode IO operation ***    
ARM GAS  /tmp/ccLJIDLw.s 			page 3


  89:Drivers/STM32F4xx_HAL_Driver/Src/stm32f4xx_hal_uart.c ****      ==============================
  90:Drivers/STM32F4xx_HAL_Driver/Src/stm32f4xx_hal_uart.c ****      [..] 
  91:Drivers/STM32F4xx_HAL_Driver/Src/stm32f4xx_hal_uart.c ****        (+) Send an amount of data in non blocking mode (DMA) using HAL_UART_Transmit_DMA() 
  92:Drivers/STM32F4xx_HAL_Driver/Src/stm32f4xx_hal_uart.c ****        (+) At transmission end of half transfer HAL_UART_TxHalfCpltCallback is executed and user ca
  93:Drivers/STM32F4xx_HAL_Driver/Src/stm32f4xx_hal_uart.c ****             add his own code by customization of function pointer HAL_UART_TxHalfCpltCallback 
  94:Drivers/STM32F4xx_HAL_Driver/Src/stm32f4xx_hal_uart.c ****        (+) At transmission end of transfer HAL_UART_TxCpltCallback is executed and user can 
  95:Drivers/STM32F4xx_HAL_Driver/Src/stm32f4xx_hal_uart.c ****             add his own code by customization of function pointer HAL_UART_TxCpltCallback
  96:Drivers/STM32F4xx_HAL_Driver/Src/stm32f4xx_hal_uart.c ****        (+) Receive an amount of data in non blocking mode (DMA) using HAL_UART_Receive_DMA() 
  97:Drivers/STM32F4xx_HAL_Driver/Src/stm32f4xx_hal_uart.c ****        (+) At reception end of half transfer HAL_UART_RxHalfCpltCallback is executed and user can 
  98:Drivers/STM32F4xx_HAL_Driver/Src/stm32f4xx_hal_uart.c ****             add his own code by customization of function pointer HAL_UART_RxHalfCpltCallback 
  99:Drivers/STM32F4xx_HAL_Driver/Src/stm32f4xx_hal_uart.c ****        (+) At reception end of transfer HAL_UART_RxCpltCallback is executed and user can 
 100:Drivers/STM32F4xx_HAL_Driver/Src/stm32f4xx_hal_uart.c ****             add his own code by customization of function pointer HAL_UART_RxCpltCallback
 101:Drivers/STM32F4xx_HAL_Driver/Src/stm32f4xx_hal_uart.c ****        (+) In case of transfer Error, HAL_UART_ErrorCallback() function is executed and user can 
 102:Drivers/STM32F4xx_HAL_Driver/Src/stm32f4xx_hal_uart.c ****             add his own code by customization of function pointer HAL_UART_ErrorCallback
 103:Drivers/STM32F4xx_HAL_Driver/Src/stm32f4xx_hal_uart.c ****        (+) Pause the DMA Transfer using HAL_UART_DMAPause()      
 104:Drivers/STM32F4xx_HAL_Driver/Src/stm32f4xx_hal_uart.c ****        (+) Resume the DMA Transfer using HAL_UART_DMAResume()  
 105:Drivers/STM32F4xx_HAL_Driver/Src/stm32f4xx_hal_uart.c ****        (+) Stop the DMA Transfer using HAL_UART_DMAStop()      
 106:Drivers/STM32F4xx_HAL_Driver/Src/stm32f4xx_hal_uart.c ****     
 107:Drivers/STM32F4xx_HAL_Driver/Src/stm32f4xx_hal_uart.c ****      *** UART HAL driver macros list ***
 108:Drivers/STM32F4xx_HAL_Driver/Src/stm32f4xx_hal_uart.c ****      ============================================= 
 109:Drivers/STM32F4xx_HAL_Driver/Src/stm32f4xx_hal_uart.c ****      [..]
 110:Drivers/STM32F4xx_HAL_Driver/Src/stm32f4xx_hal_uart.c ****        Below the list of most used macros in UART HAL driver.
 111:Drivers/STM32F4xx_HAL_Driver/Src/stm32f4xx_hal_uart.c ****        
 112:Drivers/STM32F4xx_HAL_Driver/Src/stm32f4xx_hal_uart.c ****       (+) __HAL_UART_ENABLE: Enable the UART peripheral 
 113:Drivers/STM32F4xx_HAL_Driver/Src/stm32f4xx_hal_uart.c ****       (+) __HAL_UART_DISABLE: Disable the UART peripheral     
 114:Drivers/STM32F4xx_HAL_Driver/Src/stm32f4xx_hal_uart.c ****       (+) __HAL_UART_GET_FLAG : Check whether the specified UART flag is set or not
 115:Drivers/STM32F4xx_HAL_Driver/Src/stm32f4xx_hal_uart.c ****       (+) __HAL_UART_CLEAR_FLAG : Clear the specified UART pending flag
 116:Drivers/STM32F4xx_HAL_Driver/Src/stm32f4xx_hal_uart.c ****       (+) __HAL_UART_ENABLE_IT: Enable the specified UART interrupt
 117:Drivers/STM32F4xx_HAL_Driver/Src/stm32f4xx_hal_uart.c ****       (+) __HAL_UART_DISABLE_IT: Disable the specified UART interrupt
 118:Drivers/STM32F4xx_HAL_Driver/Src/stm32f4xx_hal_uart.c ****       (+) __HAL_UART_GET_IT_SOURCE: Check whether the specified UART interrupt has occurred or not
 119:Drivers/STM32F4xx_HAL_Driver/Src/stm32f4xx_hal_uart.c ****       
 120:Drivers/STM32F4xx_HAL_Driver/Src/stm32f4xx_hal_uart.c ****      [..] 
 121:Drivers/STM32F4xx_HAL_Driver/Src/stm32f4xx_hal_uart.c ****        (@) You can refer to the UART HAL driver header file for more useful macros 
 122:Drivers/STM32F4xx_HAL_Driver/Src/stm32f4xx_hal_uart.c ****       
 123:Drivers/STM32F4xx_HAL_Driver/Src/stm32f4xx_hal_uart.c ****   @endverbatim
 124:Drivers/STM32F4xx_HAL_Driver/Src/stm32f4xx_hal_uart.c ****   ******************************************************************************
 125:Drivers/STM32F4xx_HAL_Driver/Src/stm32f4xx_hal_uart.c ****   * @attention
 126:Drivers/STM32F4xx_HAL_Driver/Src/stm32f4xx_hal_uart.c ****   *
 127:Drivers/STM32F4xx_HAL_Driver/Src/stm32f4xx_hal_uart.c ****   * <h2><center>&copy; COPYRIGHT(c) 2017 STMicroelectronics</center></h2>
 128:Drivers/STM32F4xx_HAL_Driver/Src/stm32f4xx_hal_uart.c ****   *
 129:Drivers/STM32F4xx_HAL_Driver/Src/stm32f4xx_hal_uart.c ****   * Redistribution and use in source and binary forms, with or without modification,
 130:Drivers/STM32F4xx_HAL_Driver/Src/stm32f4xx_hal_uart.c ****   * are permitted provided that the following conditions are met:
 131:Drivers/STM32F4xx_HAL_Driver/Src/stm32f4xx_hal_uart.c ****   *   1. Redistributions of source code must retain the above copyright notice,
 132:Drivers/STM32F4xx_HAL_Driver/Src/stm32f4xx_hal_uart.c ****   *      this list of conditions and the following disclaimer.
 133:Drivers/STM32F4xx_HAL_Driver/Src/stm32f4xx_hal_uart.c ****   *   2. Redistributions in binary form must reproduce the above copyright notice,
 134:Drivers/STM32F4xx_HAL_Driver/Src/stm32f4xx_hal_uart.c ****   *      this list of conditions and the following disclaimer in the documentation
 135:Drivers/STM32F4xx_HAL_Driver/Src/stm32f4xx_hal_uart.c ****   *      and/or other materials provided with the distribution.
 136:Drivers/STM32F4xx_HAL_Driver/Src/stm32f4xx_hal_uart.c ****   *   3. Neither the name of STMicroelectronics nor the names of its contributors
 137:Drivers/STM32F4xx_HAL_Driver/Src/stm32f4xx_hal_uart.c ****   *      may be used to endorse or promote products derived from this software
 138:Drivers/STM32F4xx_HAL_Driver/Src/stm32f4xx_hal_uart.c ****   *      without specific prior written permission.
 139:Drivers/STM32F4xx_HAL_Driver/Src/stm32f4xx_hal_uart.c ****   *
 140:Drivers/STM32F4xx_HAL_Driver/Src/stm32f4xx_hal_uart.c ****   * THIS SOFTWARE IS PROVIDED BY THE COPYRIGHT HOLDERS AND CONTRIBUTORS "AS IS"
 141:Drivers/STM32F4xx_HAL_Driver/Src/stm32f4xx_hal_uart.c ****   * AND ANY EXPRESS OR IMPLIED WARRANTIES, INCLUDING, BUT NOT LIMITED TO, THE
 142:Drivers/STM32F4xx_HAL_Driver/Src/stm32f4xx_hal_uart.c ****   * IMPLIED WARRANTIES OF MERCHANTABILITY AND FITNESS FOR A PARTICULAR PURPOSE ARE
 143:Drivers/STM32F4xx_HAL_Driver/Src/stm32f4xx_hal_uart.c ****   * DISCLAIMED. IN NO EVENT SHALL THE COPYRIGHT HOLDER OR CONTRIBUTORS BE LIABLE
 144:Drivers/STM32F4xx_HAL_Driver/Src/stm32f4xx_hal_uart.c ****   * FOR ANY DIRECT, INDIRECT, INCIDENTAL, SPECIAL, EXEMPLARY, OR CONSEQUENTIAL
 145:Drivers/STM32F4xx_HAL_Driver/Src/stm32f4xx_hal_uart.c ****   * DAMAGES (INCLUDING, BUT NOT LIMITED TO, PROCUREMENT OF SUBSTITUTE GOODS OR
ARM GAS  /tmp/ccLJIDLw.s 			page 4


 146:Drivers/STM32F4xx_HAL_Driver/Src/stm32f4xx_hal_uart.c ****   * SERVICES; LOSS OF USE, DATA, OR PROFITS; OR BUSINESS INTERRUPTION) HOWEVER
 147:Drivers/STM32F4xx_HAL_Driver/Src/stm32f4xx_hal_uart.c ****   * CAUSED AND ON ANY THEORY OF LIABILITY, WHETHER IN CONTRACT, STRICT LIABILITY,
 148:Drivers/STM32F4xx_HAL_Driver/Src/stm32f4xx_hal_uart.c ****   * OR TORT (INCLUDING NEGLIGENCE OR OTHERWISE) ARISING IN ANY WAY OUT OF THE USE
 149:Drivers/STM32F4xx_HAL_Driver/Src/stm32f4xx_hal_uart.c ****   * OF THIS SOFTWARE, EVEN IF ADVISED OF THE POSSIBILITY OF SUCH DAMAGE.
 150:Drivers/STM32F4xx_HAL_Driver/Src/stm32f4xx_hal_uart.c ****   *
 151:Drivers/STM32F4xx_HAL_Driver/Src/stm32f4xx_hal_uart.c ****   ******************************************************************************
 152:Drivers/STM32F4xx_HAL_Driver/Src/stm32f4xx_hal_uart.c ****   */ 
 153:Drivers/STM32F4xx_HAL_Driver/Src/stm32f4xx_hal_uart.c **** 
 154:Drivers/STM32F4xx_HAL_Driver/Src/stm32f4xx_hal_uart.c **** /* Includes ------------------------------------------------------------------*/
 155:Drivers/STM32F4xx_HAL_Driver/Src/stm32f4xx_hal_uart.c **** #include "stm32f4xx_hal.h"
 156:Drivers/STM32F4xx_HAL_Driver/Src/stm32f4xx_hal_uart.c **** 
 157:Drivers/STM32F4xx_HAL_Driver/Src/stm32f4xx_hal_uart.c **** /** @addtogroup STM32F4xx_HAL_Driver
 158:Drivers/STM32F4xx_HAL_Driver/Src/stm32f4xx_hal_uart.c ****   * @{
 159:Drivers/STM32F4xx_HAL_Driver/Src/stm32f4xx_hal_uart.c ****   */
 160:Drivers/STM32F4xx_HAL_Driver/Src/stm32f4xx_hal_uart.c **** 
 161:Drivers/STM32F4xx_HAL_Driver/Src/stm32f4xx_hal_uart.c **** /** @defgroup UART UART
 162:Drivers/STM32F4xx_HAL_Driver/Src/stm32f4xx_hal_uart.c ****   * @brief HAL UART module driver
 163:Drivers/STM32F4xx_HAL_Driver/Src/stm32f4xx_hal_uart.c ****   * @{
 164:Drivers/STM32F4xx_HAL_Driver/Src/stm32f4xx_hal_uart.c ****   */
 165:Drivers/STM32F4xx_HAL_Driver/Src/stm32f4xx_hal_uart.c **** #ifdef HAL_UART_MODULE_ENABLED
 166:Drivers/STM32F4xx_HAL_Driver/Src/stm32f4xx_hal_uart.c ****     
 167:Drivers/STM32F4xx_HAL_Driver/Src/stm32f4xx_hal_uart.c **** /* Private typedef -----------------------------------------------------------*/
 168:Drivers/STM32F4xx_HAL_Driver/Src/stm32f4xx_hal_uart.c **** /* Private define ------------------------------------------------------------*/
 169:Drivers/STM32F4xx_HAL_Driver/Src/stm32f4xx_hal_uart.c **** /** @addtogroup UART_Private_Constants
 170:Drivers/STM32F4xx_HAL_Driver/Src/stm32f4xx_hal_uart.c ****   * @{
 171:Drivers/STM32F4xx_HAL_Driver/Src/stm32f4xx_hal_uart.c ****   */
 172:Drivers/STM32F4xx_HAL_Driver/Src/stm32f4xx_hal_uart.c **** /**
 173:Drivers/STM32F4xx_HAL_Driver/Src/stm32f4xx_hal_uart.c ****   * @}
 174:Drivers/STM32F4xx_HAL_Driver/Src/stm32f4xx_hal_uart.c ****   */
 175:Drivers/STM32F4xx_HAL_Driver/Src/stm32f4xx_hal_uart.c **** /* Private macro -------------------------------------------------------------*/
 176:Drivers/STM32F4xx_HAL_Driver/Src/stm32f4xx_hal_uart.c **** /* Private variables ---------------------------------------------------------*/
 177:Drivers/STM32F4xx_HAL_Driver/Src/stm32f4xx_hal_uart.c **** /* Private function prototypes -----------------------------------------------*/
 178:Drivers/STM32F4xx_HAL_Driver/Src/stm32f4xx_hal_uart.c **** /** @addtogroup UART_Private_Functions   UART Private Functions
 179:Drivers/STM32F4xx_HAL_Driver/Src/stm32f4xx_hal_uart.c ****   * @{
 180:Drivers/STM32F4xx_HAL_Driver/Src/stm32f4xx_hal_uart.c ****   */
 181:Drivers/STM32F4xx_HAL_Driver/Src/stm32f4xx_hal_uart.c **** static void UART_EndTxTransfer(UART_HandleTypeDef *huart);
 182:Drivers/STM32F4xx_HAL_Driver/Src/stm32f4xx_hal_uart.c **** static void UART_EndRxTransfer(UART_HandleTypeDef *huart);
 183:Drivers/STM32F4xx_HAL_Driver/Src/stm32f4xx_hal_uart.c **** static void UART_DMATransmitCplt(DMA_HandleTypeDef *hdma);
 184:Drivers/STM32F4xx_HAL_Driver/Src/stm32f4xx_hal_uart.c **** static void UART_DMAReceiveCplt(DMA_HandleTypeDef *hdma);
 185:Drivers/STM32F4xx_HAL_Driver/Src/stm32f4xx_hal_uart.c **** static void UART_DMATxHalfCplt(DMA_HandleTypeDef *hdma);
 186:Drivers/STM32F4xx_HAL_Driver/Src/stm32f4xx_hal_uart.c **** static void UART_DMARxHalfCplt(DMA_HandleTypeDef *hdma);
 187:Drivers/STM32F4xx_HAL_Driver/Src/stm32f4xx_hal_uart.c **** static void UART_DMAError(DMA_HandleTypeDef *hdma); 
 188:Drivers/STM32F4xx_HAL_Driver/Src/stm32f4xx_hal_uart.c **** static void UART_DMAAbortOnError(DMA_HandleTypeDef *hdma);
 189:Drivers/STM32F4xx_HAL_Driver/Src/stm32f4xx_hal_uart.c **** static void UART_DMATxAbortCallback(DMA_HandleTypeDef *hdma);
 190:Drivers/STM32F4xx_HAL_Driver/Src/stm32f4xx_hal_uart.c **** static void UART_DMARxAbortCallback(DMA_HandleTypeDef *hdma);
 191:Drivers/STM32F4xx_HAL_Driver/Src/stm32f4xx_hal_uart.c **** static void UART_DMATxOnlyAbortCallback(DMA_HandleTypeDef *hdma);
 192:Drivers/STM32F4xx_HAL_Driver/Src/stm32f4xx_hal_uart.c **** static void UART_DMARxOnlyAbortCallback(DMA_HandleTypeDef *hdma);
 193:Drivers/STM32F4xx_HAL_Driver/Src/stm32f4xx_hal_uart.c **** static HAL_StatusTypeDef UART_Transmit_IT(UART_HandleTypeDef *huart);
 194:Drivers/STM32F4xx_HAL_Driver/Src/stm32f4xx_hal_uart.c **** static HAL_StatusTypeDef UART_EndTransmit_IT(UART_HandleTypeDef *huart);
 195:Drivers/STM32F4xx_HAL_Driver/Src/stm32f4xx_hal_uart.c **** static HAL_StatusTypeDef UART_Receive_IT(UART_HandleTypeDef *huart);
 196:Drivers/STM32F4xx_HAL_Driver/Src/stm32f4xx_hal_uart.c **** static HAL_StatusTypeDef UART_WaitOnFlagUntilTimeout(UART_HandleTypeDef *huart, uint32_t Flag, Flag
 197:Drivers/STM32F4xx_HAL_Driver/Src/stm32f4xx_hal_uart.c **** static void UART_SetConfig (UART_HandleTypeDef *huart);
 198:Drivers/STM32F4xx_HAL_Driver/Src/stm32f4xx_hal_uart.c **** /**
 199:Drivers/STM32F4xx_HAL_Driver/Src/stm32f4xx_hal_uart.c ****   * @}
 200:Drivers/STM32F4xx_HAL_Driver/Src/stm32f4xx_hal_uart.c ****   */
 201:Drivers/STM32F4xx_HAL_Driver/Src/stm32f4xx_hal_uart.c **** 
 202:Drivers/STM32F4xx_HAL_Driver/Src/stm32f4xx_hal_uart.c **** /* Exported functions ---------------------------------------------------------*/
ARM GAS  /tmp/ccLJIDLw.s 			page 5


 203:Drivers/STM32F4xx_HAL_Driver/Src/stm32f4xx_hal_uart.c **** /** @defgroup UART_Exported_Functions UART Exported Functions
 204:Drivers/STM32F4xx_HAL_Driver/Src/stm32f4xx_hal_uart.c ****   * @{
 205:Drivers/STM32F4xx_HAL_Driver/Src/stm32f4xx_hal_uart.c ****   */
 206:Drivers/STM32F4xx_HAL_Driver/Src/stm32f4xx_hal_uart.c **** 
 207:Drivers/STM32F4xx_HAL_Driver/Src/stm32f4xx_hal_uart.c **** /** @defgroup UART_Exported_Functions_Group1 Initialization and de-initialization functions 
 208:Drivers/STM32F4xx_HAL_Driver/Src/stm32f4xx_hal_uart.c ****   *  @brief    Initialization and Configuration functions 
 209:Drivers/STM32F4xx_HAL_Driver/Src/stm32f4xx_hal_uart.c ****   *
 210:Drivers/STM32F4xx_HAL_Driver/Src/stm32f4xx_hal_uart.c **** @verbatim    
 211:Drivers/STM32F4xx_HAL_Driver/Src/stm32f4xx_hal_uart.c **** ===============================================================================
 212:Drivers/STM32F4xx_HAL_Driver/Src/stm32f4xx_hal_uart.c ****             ##### Initialization and Configuration functions #####
 213:Drivers/STM32F4xx_HAL_Driver/Src/stm32f4xx_hal_uart.c ****  ===============================================================================  
 214:Drivers/STM32F4xx_HAL_Driver/Src/stm32f4xx_hal_uart.c ****     [..]
 215:Drivers/STM32F4xx_HAL_Driver/Src/stm32f4xx_hal_uart.c ****     This subsection provides a set of functions allowing to initialize the USARTx or the UARTy 
 216:Drivers/STM32F4xx_HAL_Driver/Src/stm32f4xx_hal_uart.c ****     in asynchronous mode.
 217:Drivers/STM32F4xx_HAL_Driver/Src/stm32f4xx_hal_uart.c ****       (+) For the asynchronous mode only these parameters can be configured: 
 218:Drivers/STM32F4xx_HAL_Driver/Src/stm32f4xx_hal_uart.c ****         (++) Baud Rate
 219:Drivers/STM32F4xx_HAL_Driver/Src/stm32f4xx_hal_uart.c ****         (++) Word Length 
 220:Drivers/STM32F4xx_HAL_Driver/Src/stm32f4xx_hal_uart.c ****         (++) Stop Bit
 221:Drivers/STM32F4xx_HAL_Driver/Src/stm32f4xx_hal_uart.c ****         (++) Parity: If the parity is enabled, then the MSB bit of the data written
 222:Drivers/STM32F4xx_HAL_Driver/Src/stm32f4xx_hal_uart.c ****              in the data register is transmitted but is changed by the parity bit.
 223:Drivers/STM32F4xx_HAL_Driver/Src/stm32f4xx_hal_uart.c ****              Depending on the frame length defined by the M bit (8-bits or 9-bits),
 224:Drivers/STM32F4xx_HAL_Driver/Src/stm32f4xx_hal_uart.c ****              please refer to Reference manual for possible UART frame formats.           
 225:Drivers/STM32F4xx_HAL_Driver/Src/stm32f4xx_hal_uart.c ****         (++) Hardware flow control
 226:Drivers/STM32F4xx_HAL_Driver/Src/stm32f4xx_hal_uart.c ****         (++) Receiver/transmitter modes
 227:Drivers/STM32F4xx_HAL_Driver/Src/stm32f4xx_hal_uart.c ****         (++) Over Sampling Method
 228:Drivers/STM32F4xx_HAL_Driver/Src/stm32f4xx_hal_uart.c ****     [..]
 229:Drivers/STM32F4xx_HAL_Driver/Src/stm32f4xx_hal_uart.c ****     The HAL_UART_Init(), HAL_HalfDuplex_Init(), HAL_LIN_Init() and HAL_MultiProcessor_Init() APIs 
 230:Drivers/STM32F4xx_HAL_Driver/Src/stm32f4xx_hal_uart.c ****     follow respectively the UART asynchronous, UART Half duplex, LIN and Multi-Processor
 231:Drivers/STM32F4xx_HAL_Driver/Src/stm32f4xx_hal_uart.c ****     configuration procedures (details for the procedures are available in reference manual (RM0329)
 232:Drivers/STM32F4xx_HAL_Driver/Src/stm32f4xx_hal_uart.c **** 
 233:Drivers/STM32F4xx_HAL_Driver/Src/stm32f4xx_hal_uart.c **** @endverbatim
 234:Drivers/STM32F4xx_HAL_Driver/Src/stm32f4xx_hal_uart.c ****   * @{
 235:Drivers/STM32F4xx_HAL_Driver/Src/stm32f4xx_hal_uart.c ****   */
 236:Drivers/STM32F4xx_HAL_Driver/Src/stm32f4xx_hal_uart.c **** 
 237:Drivers/STM32F4xx_HAL_Driver/Src/stm32f4xx_hal_uart.c **** /**
 238:Drivers/STM32F4xx_HAL_Driver/Src/stm32f4xx_hal_uart.c ****   * @brief  Initializes the UART mode according to the specified parameters in
 239:Drivers/STM32F4xx_HAL_Driver/Src/stm32f4xx_hal_uart.c ****   *         the UART_InitTypeDef and create the associated handle.
 240:Drivers/STM32F4xx_HAL_Driver/Src/stm32f4xx_hal_uart.c ****   * @param  huart pointer to a UART_HandleTypeDef structure that contains
 241:Drivers/STM32F4xx_HAL_Driver/Src/stm32f4xx_hal_uart.c ****   *                the configuration information for the specified UART module.
 242:Drivers/STM32F4xx_HAL_Driver/Src/stm32f4xx_hal_uart.c ****   * @retval HAL status
 243:Drivers/STM32F4xx_HAL_Driver/Src/stm32f4xx_hal_uart.c ****   */
 244:Drivers/STM32F4xx_HAL_Driver/Src/stm32f4xx_hal_uart.c **** HAL_StatusTypeDef HAL_UART_Init(UART_HandleTypeDef *huart)
 245:Drivers/STM32F4xx_HAL_Driver/Src/stm32f4xx_hal_uart.c **** {
  28              		.loc 1 245 0
  29              		.cfi_startproc
  30              		@ args = 0, pretend = 0, frame = 8
  31              		@ frame_needed = 1, uses_anonymous_args = 0
  32 0000 80B5     		push	{r7, lr}
  33              	.LCFI0:
  34              		.cfi_def_cfa_offset 8
  35              		.cfi_offset 7, -8
  36              		.cfi_offset 14, -4
  37 0002 82B0     		sub	sp, sp, #8
  38              	.LCFI1:
  39              		.cfi_def_cfa_offset 16
  40 0004 00AF     		add	r7, sp, #0
  41              	.LCFI2:
ARM GAS  /tmp/ccLJIDLw.s 			page 6


  42              		.cfi_def_cfa_register 7
  43 0006 7860     		str	r0, [r7, #4]
 246:Drivers/STM32F4xx_HAL_Driver/Src/stm32f4xx_hal_uart.c ****   /* Check the UART handle allocation */
 247:Drivers/STM32F4xx_HAL_Driver/Src/stm32f4xx_hal_uart.c ****   if(huart == NULL)
  44              		.loc 1 247 0
  45 0008 7B68     		ldr	r3, [r7, #4]
  46 000a 002B     		cmp	r3, #0
  47 000c 01D1     		bne	.L2
 248:Drivers/STM32F4xx_HAL_Driver/Src/stm32f4xx_hal_uart.c ****   {
 249:Drivers/STM32F4xx_HAL_Driver/Src/stm32f4xx_hal_uart.c ****     return HAL_ERROR;
  48              		.loc 1 249 0
  49 000e 0123     		movs	r3, #1
  50 0010 3FE0     		b	.L3
  51              	.L2:
 250:Drivers/STM32F4xx_HAL_Driver/Src/stm32f4xx_hal_uart.c ****   }
 251:Drivers/STM32F4xx_HAL_Driver/Src/stm32f4xx_hal_uart.c **** 
 252:Drivers/STM32F4xx_HAL_Driver/Src/stm32f4xx_hal_uart.c ****   /* Check the parameters */
 253:Drivers/STM32F4xx_HAL_Driver/Src/stm32f4xx_hal_uart.c ****   if(huart->Init.HwFlowCtl != UART_HWCONTROL_NONE)
 254:Drivers/STM32F4xx_HAL_Driver/Src/stm32f4xx_hal_uart.c ****   { 
 255:Drivers/STM32F4xx_HAL_Driver/Src/stm32f4xx_hal_uart.c ****     /* The hardware flow control is available only for USART1, USART2, USART3 and USART6 */
 256:Drivers/STM32F4xx_HAL_Driver/Src/stm32f4xx_hal_uart.c ****     assert_param(IS_UART_HWFLOW_INSTANCE(huart->Instance));
 257:Drivers/STM32F4xx_HAL_Driver/Src/stm32f4xx_hal_uart.c ****     assert_param(IS_UART_HARDWARE_FLOW_CONTROL(huart->Init.HwFlowCtl));
 258:Drivers/STM32F4xx_HAL_Driver/Src/stm32f4xx_hal_uart.c ****   }
 259:Drivers/STM32F4xx_HAL_Driver/Src/stm32f4xx_hal_uart.c ****   else
 260:Drivers/STM32F4xx_HAL_Driver/Src/stm32f4xx_hal_uart.c ****   {
 261:Drivers/STM32F4xx_HAL_Driver/Src/stm32f4xx_hal_uart.c ****     assert_param(IS_UART_INSTANCE(huart->Instance));
 262:Drivers/STM32F4xx_HAL_Driver/Src/stm32f4xx_hal_uart.c ****   }
 263:Drivers/STM32F4xx_HAL_Driver/Src/stm32f4xx_hal_uart.c ****   assert_param(IS_UART_WORD_LENGTH(huart->Init.WordLength));
 264:Drivers/STM32F4xx_HAL_Driver/Src/stm32f4xx_hal_uart.c ****   assert_param(IS_UART_OVERSAMPLING(huart->Init.OverSampling));
 265:Drivers/STM32F4xx_HAL_Driver/Src/stm32f4xx_hal_uart.c ****   
 266:Drivers/STM32F4xx_HAL_Driver/Src/stm32f4xx_hal_uart.c ****   if(huart->gState == HAL_UART_STATE_RESET)
  52              		.loc 1 266 0
  53 0012 7B68     		ldr	r3, [r7, #4]
  54 0014 93F83930 		ldrb	r3, [r3, #57]
  55 0018 DBB2     		uxtb	r3, r3
  56 001a 002B     		cmp	r3, #0
  57 001c 06D1     		bne	.L4
 267:Drivers/STM32F4xx_HAL_Driver/Src/stm32f4xx_hal_uart.c ****   {  
 268:Drivers/STM32F4xx_HAL_Driver/Src/stm32f4xx_hal_uart.c ****     /* Allocate lock resource and initialize it */
 269:Drivers/STM32F4xx_HAL_Driver/Src/stm32f4xx_hal_uart.c ****     huart->Lock = HAL_UNLOCKED;
  58              		.loc 1 269 0
  59 001e 7B68     		ldr	r3, [r7, #4]
  60 0020 0022     		movs	r2, #0
  61 0022 83F83820 		strb	r2, [r3, #56]
 270:Drivers/STM32F4xx_HAL_Driver/Src/stm32f4xx_hal_uart.c ****     /* Init the low level hardware */
 271:Drivers/STM32F4xx_HAL_Driver/Src/stm32f4xx_hal_uart.c ****     HAL_UART_MspInit(huart);
  62              		.loc 1 271 0
  63 0026 7868     		ldr	r0, [r7, #4]
  64 0028 FFF7FEFF 		bl	HAL_UART_MspInit
  65              	.L4:
 272:Drivers/STM32F4xx_HAL_Driver/Src/stm32f4xx_hal_uart.c ****   }
 273:Drivers/STM32F4xx_HAL_Driver/Src/stm32f4xx_hal_uart.c **** 
 274:Drivers/STM32F4xx_HAL_Driver/Src/stm32f4xx_hal_uart.c ****   huart->gState = HAL_UART_STATE_BUSY;
  66              		.loc 1 274 0
  67 002c 7B68     		ldr	r3, [r7, #4]
  68 002e 2422     		movs	r2, #36
  69 0030 83F83920 		strb	r2, [r3, #57]
ARM GAS  /tmp/ccLJIDLw.s 			page 7


 275:Drivers/STM32F4xx_HAL_Driver/Src/stm32f4xx_hal_uart.c **** 
 276:Drivers/STM32F4xx_HAL_Driver/Src/stm32f4xx_hal_uart.c ****   /* Disable the peripheral */
 277:Drivers/STM32F4xx_HAL_Driver/Src/stm32f4xx_hal_uart.c ****   __HAL_UART_DISABLE(huart);
  70              		.loc 1 277 0
  71 0034 7B68     		ldr	r3, [r7, #4]
  72 0036 1B68     		ldr	r3, [r3]
  73 0038 7A68     		ldr	r2, [r7, #4]
  74 003a 1268     		ldr	r2, [r2]
  75 003c D268     		ldr	r2, [r2, #12]
  76 003e 22F40052 		bic	r2, r2, #8192
  77 0042 DA60     		str	r2, [r3, #12]
 278:Drivers/STM32F4xx_HAL_Driver/Src/stm32f4xx_hal_uart.c ****   
 279:Drivers/STM32F4xx_HAL_Driver/Src/stm32f4xx_hal_uart.c ****   /* Set the UART Communication parameters */
 280:Drivers/STM32F4xx_HAL_Driver/Src/stm32f4xx_hal_uart.c ****   UART_SetConfig(huart);
  78              		.loc 1 280 0
  79 0044 7868     		ldr	r0, [r7, #4]
  80 0046 FFF7FEFF 		bl	UART_SetConfig
 281:Drivers/STM32F4xx_HAL_Driver/Src/stm32f4xx_hal_uart.c ****   
 282:Drivers/STM32F4xx_HAL_Driver/Src/stm32f4xx_hal_uart.c ****   /* In asynchronous mode, the following bits must be kept cleared: 
 283:Drivers/STM32F4xx_HAL_Driver/Src/stm32f4xx_hal_uart.c ****      - LINEN and CLKEN bits in the USART_CR2 register,
 284:Drivers/STM32F4xx_HAL_Driver/Src/stm32f4xx_hal_uart.c ****      - SCEN, HDSEL and IREN  bits in the USART_CR3 register.*/
 285:Drivers/STM32F4xx_HAL_Driver/Src/stm32f4xx_hal_uart.c ****   CLEAR_BIT(huart->Instance->CR2, (USART_CR2_LINEN | USART_CR2_CLKEN));
  81              		.loc 1 285 0
  82 004a 7B68     		ldr	r3, [r7, #4]
  83 004c 1B68     		ldr	r3, [r3]
  84 004e 7A68     		ldr	r2, [r7, #4]
  85 0050 1268     		ldr	r2, [r2]
  86 0052 1269     		ldr	r2, [r2, #16]
  87 0054 22F49042 		bic	r2, r2, #18432
  88 0058 1A61     		str	r2, [r3, #16]
 286:Drivers/STM32F4xx_HAL_Driver/Src/stm32f4xx_hal_uart.c ****   CLEAR_BIT(huart->Instance->CR3, (USART_CR3_SCEN | USART_CR3_HDSEL | USART_CR3_IREN));
  89              		.loc 1 286 0
  90 005a 7B68     		ldr	r3, [r7, #4]
  91 005c 1B68     		ldr	r3, [r3]
  92 005e 7A68     		ldr	r2, [r7, #4]
  93 0060 1268     		ldr	r2, [r2]
  94 0062 5269     		ldr	r2, [r2, #20]
  95 0064 22F02A02 		bic	r2, r2, #42
  96 0068 5A61     		str	r2, [r3, #20]
 287:Drivers/STM32F4xx_HAL_Driver/Src/stm32f4xx_hal_uart.c ****   
 288:Drivers/STM32F4xx_HAL_Driver/Src/stm32f4xx_hal_uart.c ****   /* Enable the peripheral */
 289:Drivers/STM32F4xx_HAL_Driver/Src/stm32f4xx_hal_uart.c ****   __HAL_UART_ENABLE(huart);
  97              		.loc 1 289 0
  98 006a 7B68     		ldr	r3, [r7, #4]
  99 006c 1B68     		ldr	r3, [r3]
 100 006e 7A68     		ldr	r2, [r7, #4]
 101 0070 1268     		ldr	r2, [r2]
 102 0072 D268     		ldr	r2, [r2, #12]
 103 0074 42F40052 		orr	r2, r2, #8192
 104 0078 DA60     		str	r2, [r3, #12]
 290:Drivers/STM32F4xx_HAL_Driver/Src/stm32f4xx_hal_uart.c ****   
 291:Drivers/STM32F4xx_HAL_Driver/Src/stm32f4xx_hal_uart.c ****   /* Initialize the UART state */
 292:Drivers/STM32F4xx_HAL_Driver/Src/stm32f4xx_hal_uart.c ****   huart->ErrorCode = HAL_UART_ERROR_NONE;
 105              		.loc 1 292 0
 106 007a 7B68     		ldr	r3, [r7, #4]
 107 007c 0022     		movs	r2, #0
 108 007e DA63     		str	r2, [r3, #60]
ARM GAS  /tmp/ccLJIDLw.s 			page 8


 293:Drivers/STM32F4xx_HAL_Driver/Src/stm32f4xx_hal_uart.c ****   huart->gState= HAL_UART_STATE_READY;
 109              		.loc 1 293 0
 110 0080 7B68     		ldr	r3, [r7, #4]
 111 0082 2022     		movs	r2, #32
 112 0084 83F83920 		strb	r2, [r3, #57]
 294:Drivers/STM32F4xx_HAL_Driver/Src/stm32f4xx_hal_uart.c ****   huart->RxState= HAL_UART_STATE_READY;
 113              		.loc 1 294 0
 114 0088 7B68     		ldr	r3, [r7, #4]
 115 008a 2022     		movs	r2, #32
 116 008c 83F83A20 		strb	r2, [r3, #58]
 295:Drivers/STM32F4xx_HAL_Driver/Src/stm32f4xx_hal_uart.c ****   
 296:Drivers/STM32F4xx_HAL_Driver/Src/stm32f4xx_hal_uart.c ****   return HAL_OK;
 117              		.loc 1 296 0
 118 0090 0023     		movs	r3, #0
 119              	.L3:
 297:Drivers/STM32F4xx_HAL_Driver/Src/stm32f4xx_hal_uart.c **** }
 120              		.loc 1 297 0
 121 0092 1846     		mov	r0, r3
 122 0094 0837     		adds	r7, r7, #8
 123              	.LCFI3:
 124              		.cfi_def_cfa_offset 8
 125 0096 BD46     		mov	sp, r7
 126              	.LCFI4:
 127              		.cfi_def_cfa_register 13
 128              		@ sp needed
 129 0098 80BD     		pop	{r7, pc}
 130              		.cfi_endproc
 131              	.LFE124:
 133              		.section	.text.HAL_HalfDuplex_Init,"ax",%progbits
 134              		.align	1
 135              		.global	HAL_HalfDuplex_Init
 136              		.syntax unified
 137              		.thumb
 138              		.thumb_func
 139              		.fpu fpv4-sp-d16
 141              	HAL_HalfDuplex_Init:
 142              	.LFB125:
 298:Drivers/STM32F4xx_HAL_Driver/Src/stm32f4xx_hal_uart.c **** 
 299:Drivers/STM32F4xx_HAL_Driver/Src/stm32f4xx_hal_uart.c **** /**
 300:Drivers/STM32F4xx_HAL_Driver/Src/stm32f4xx_hal_uart.c ****   * @brief  Initializes the half-duplex mode according to the specified
 301:Drivers/STM32F4xx_HAL_Driver/Src/stm32f4xx_hal_uart.c ****   *         parameters in the UART_InitTypeDef and create the associated handle.
 302:Drivers/STM32F4xx_HAL_Driver/Src/stm32f4xx_hal_uart.c ****   * @param  huart pointer to a UART_HandleTypeDef structure that contains
 303:Drivers/STM32F4xx_HAL_Driver/Src/stm32f4xx_hal_uart.c ****   *                the configuration information for the specified UART module.
 304:Drivers/STM32F4xx_HAL_Driver/Src/stm32f4xx_hal_uart.c ****   * @retval HAL status
 305:Drivers/STM32F4xx_HAL_Driver/Src/stm32f4xx_hal_uart.c ****   */
 306:Drivers/STM32F4xx_HAL_Driver/Src/stm32f4xx_hal_uart.c **** HAL_StatusTypeDef HAL_HalfDuplex_Init(UART_HandleTypeDef *huart)
 307:Drivers/STM32F4xx_HAL_Driver/Src/stm32f4xx_hal_uart.c **** {
 143              		.loc 1 307 0
 144              		.cfi_startproc
 145              		@ args = 0, pretend = 0, frame = 8
 146              		@ frame_needed = 1, uses_anonymous_args = 0
 147 0000 80B5     		push	{r7, lr}
 148              	.LCFI5:
 149              		.cfi_def_cfa_offset 8
 150              		.cfi_offset 7, -8
 151              		.cfi_offset 14, -4
 152 0002 82B0     		sub	sp, sp, #8
ARM GAS  /tmp/ccLJIDLw.s 			page 9


 153              	.LCFI6:
 154              		.cfi_def_cfa_offset 16
 155 0004 00AF     		add	r7, sp, #0
 156              	.LCFI7:
 157              		.cfi_def_cfa_register 7
 158 0006 7860     		str	r0, [r7, #4]
 308:Drivers/STM32F4xx_HAL_Driver/Src/stm32f4xx_hal_uart.c ****   /* Check the UART handle allocation */
 309:Drivers/STM32F4xx_HAL_Driver/Src/stm32f4xx_hal_uart.c ****   if(huart == NULL)
 159              		.loc 1 309 0
 160 0008 7B68     		ldr	r3, [r7, #4]
 161 000a 002B     		cmp	r3, #0
 162 000c 01D1     		bne	.L6
 310:Drivers/STM32F4xx_HAL_Driver/Src/stm32f4xx_hal_uart.c ****   {
 311:Drivers/STM32F4xx_HAL_Driver/Src/stm32f4xx_hal_uart.c ****     return HAL_ERROR;
 163              		.loc 1 311 0
 164 000e 0123     		movs	r3, #1
 165 0010 47E0     		b	.L7
 166              	.L6:
 312:Drivers/STM32F4xx_HAL_Driver/Src/stm32f4xx_hal_uart.c ****   }
 313:Drivers/STM32F4xx_HAL_Driver/Src/stm32f4xx_hal_uart.c ****  
 314:Drivers/STM32F4xx_HAL_Driver/Src/stm32f4xx_hal_uart.c ****   /* Check the parameters */ 
 315:Drivers/STM32F4xx_HAL_Driver/Src/stm32f4xx_hal_uart.c ****   assert_param(IS_UART_INSTANCE(huart->Instance));
 316:Drivers/STM32F4xx_HAL_Driver/Src/stm32f4xx_hal_uart.c ****   assert_param(IS_UART_WORD_LENGTH(huart->Init.WordLength));
 317:Drivers/STM32F4xx_HAL_Driver/Src/stm32f4xx_hal_uart.c ****   assert_param(IS_UART_OVERSAMPLING(huart->Init.OverSampling));
 318:Drivers/STM32F4xx_HAL_Driver/Src/stm32f4xx_hal_uart.c **** 
 319:Drivers/STM32F4xx_HAL_Driver/Src/stm32f4xx_hal_uart.c ****   if(huart->gState == HAL_UART_STATE_RESET)
 167              		.loc 1 319 0
 168 0012 7B68     		ldr	r3, [r7, #4]
 169 0014 93F83930 		ldrb	r3, [r3, #57]
 170 0018 DBB2     		uxtb	r3, r3
 171 001a 002B     		cmp	r3, #0
 172 001c 06D1     		bne	.L8
 320:Drivers/STM32F4xx_HAL_Driver/Src/stm32f4xx_hal_uart.c ****   { 
 321:Drivers/STM32F4xx_HAL_Driver/Src/stm32f4xx_hal_uart.c ****     /* Allocate lock resource and initialize it */
 322:Drivers/STM32F4xx_HAL_Driver/Src/stm32f4xx_hal_uart.c ****     huart->Lock = HAL_UNLOCKED;
 173              		.loc 1 322 0
 174 001e 7B68     		ldr	r3, [r7, #4]
 175 0020 0022     		movs	r2, #0
 176 0022 83F83820 		strb	r2, [r3, #56]
 323:Drivers/STM32F4xx_HAL_Driver/Src/stm32f4xx_hal_uart.c ****     /* Init the low level hardware */
 324:Drivers/STM32F4xx_HAL_Driver/Src/stm32f4xx_hal_uart.c ****     HAL_UART_MspInit(huart);
 177              		.loc 1 324 0
 178 0026 7868     		ldr	r0, [r7, #4]
 179 0028 FFF7FEFF 		bl	HAL_UART_MspInit
 180              	.L8:
 325:Drivers/STM32F4xx_HAL_Driver/Src/stm32f4xx_hal_uart.c ****   }
 326:Drivers/STM32F4xx_HAL_Driver/Src/stm32f4xx_hal_uart.c **** 
 327:Drivers/STM32F4xx_HAL_Driver/Src/stm32f4xx_hal_uart.c ****   huart->gState = HAL_UART_STATE_BUSY;
 181              		.loc 1 327 0
 182 002c 7B68     		ldr	r3, [r7, #4]
 183 002e 2422     		movs	r2, #36
 184 0030 83F83920 		strb	r2, [r3, #57]
 328:Drivers/STM32F4xx_HAL_Driver/Src/stm32f4xx_hal_uart.c **** 
 329:Drivers/STM32F4xx_HAL_Driver/Src/stm32f4xx_hal_uart.c ****   /* Disable the peripheral */
 330:Drivers/STM32F4xx_HAL_Driver/Src/stm32f4xx_hal_uart.c ****   __HAL_UART_DISABLE(huart);
 185              		.loc 1 330 0
 186 0034 7B68     		ldr	r3, [r7, #4]
ARM GAS  /tmp/ccLJIDLw.s 			page 10


 187 0036 1B68     		ldr	r3, [r3]
 188 0038 7A68     		ldr	r2, [r7, #4]
 189 003a 1268     		ldr	r2, [r2]
 190 003c D268     		ldr	r2, [r2, #12]
 191 003e 22F40052 		bic	r2, r2, #8192
 192 0042 DA60     		str	r2, [r3, #12]
 331:Drivers/STM32F4xx_HAL_Driver/Src/stm32f4xx_hal_uart.c ****   
 332:Drivers/STM32F4xx_HAL_Driver/Src/stm32f4xx_hal_uart.c ****   /* Set the UART Communication parameters */
 333:Drivers/STM32F4xx_HAL_Driver/Src/stm32f4xx_hal_uart.c ****   UART_SetConfig(huart);
 193              		.loc 1 333 0
 194 0044 7868     		ldr	r0, [r7, #4]
 195 0046 FFF7FEFF 		bl	UART_SetConfig
 334:Drivers/STM32F4xx_HAL_Driver/Src/stm32f4xx_hal_uart.c ****   
 335:Drivers/STM32F4xx_HAL_Driver/Src/stm32f4xx_hal_uart.c ****   /* In half-duplex mode, the following bits must be kept cleared: 
 336:Drivers/STM32F4xx_HAL_Driver/Src/stm32f4xx_hal_uart.c ****      - LINEN and CLKEN bits in the USART_CR2 register,
 337:Drivers/STM32F4xx_HAL_Driver/Src/stm32f4xx_hal_uart.c ****      - SCEN and IREN bits in the USART_CR3 register.*/
 338:Drivers/STM32F4xx_HAL_Driver/Src/stm32f4xx_hal_uart.c ****   CLEAR_BIT(huart->Instance->CR2, (USART_CR2_LINEN | USART_CR2_CLKEN));
 196              		.loc 1 338 0
 197 004a 7B68     		ldr	r3, [r7, #4]
 198 004c 1B68     		ldr	r3, [r3]
 199 004e 7A68     		ldr	r2, [r7, #4]
 200 0050 1268     		ldr	r2, [r2]
 201 0052 1269     		ldr	r2, [r2, #16]
 202 0054 22F49042 		bic	r2, r2, #18432
 203 0058 1A61     		str	r2, [r3, #16]
 339:Drivers/STM32F4xx_HAL_Driver/Src/stm32f4xx_hal_uart.c ****   CLEAR_BIT(huart->Instance->CR3, (USART_CR3_IREN | USART_CR3_SCEN));
 204              		.loc 1 339 0
 205 005a 7B68     		ldr	r3, [r7, #4]
 206 005c 1B68     		ldr	r3, [r3]
 207 005e 7A68     		ldr	r2, [r7, #4]
 208 0060 1268     		ldr	r2, [r2]
 209 0062 5269     		ldr	r2, [r2, #20]
 210 0064 22F02202 		bic	r2, r2, #34
 211 0068 5A61     		str	r2, [r3, #20]
 340:Drivers/STM32F4xx_HAL_Driver/Src/stm32f4xx_hal_uart.c ****   
 341:Drivers/STM32F4xx_HAL_Driver/Src/stm32f4xx_hal_uart.c ****   /* Enable the Half-Duplex mode by setting the HDSEL bit in the CR3 register */
 342:Drivers/STM32F4xx_HAL_Driver/Src/stm32f4xx_hal_uart.c ****   SET_BIT(huart->Instance->CR3, USART_CR3_HDSEL);
 212              		.loc 1 342 0
 213 006a 7B68     		ldr	r3, [r7, #4]
 214 006c 1B68     		ldr	r3, [r3]
 215 006e 7A68     		ldr	r2, [r7, #4]
 216 0070 1268     		ldr	r2, [r2]
 217 0072 5269     		ldr	r2, [r2, #20]
 218 0074 42F00802 		orr	r2, r2, #8
 219 0078 5A61     		str	r2, [r3, #20]
 343:Drivers/STM32F4xx_HAL_Driver/Src/stm32f4xx_hal_uart.c ****  
 344:Drivers/STM32F4xx_HAL_Driver/Src/stm32f4xx_hal_uart.c ****   /* Enable the peripheral */
 345:Drivers/STM32F4xx_HAL_Driver/Src/stm32f4xx_hal_uart.c ****   __HAL_UART_ENABLE(huart);
 220              		.loc 1 345 0
 221 007a 7B68     		ldr	r3, [r7, #4]
 222 007c 1B68     		ldr	r3, [r3]
 223 007e 7A68     		ldr	r2, [r7, #4]
 224 0080 1268     		ldr	r2, [r2]
 225 0082 D268     		ldr	r2, [r2, #12]
 226 0084 42F40052 		orr	r2, r2, #8192
 227 0088 DA60     		str	r2, [r3, #12]
 346:Drivers/STM32F4xx_HAL_Driver/Src/stm32f4xx_hal_uart.c ****   
ARM GAS  /tmp/ccLJIDLw.s 			page 11


 347:Drivers/STM32F4xx_HAL_Driver/Src/stm32f4xx_hal_uart.c ****   /* Initialize the UART state*/
 348:Drivers/STM32F4xx_HAL_Driver/Src/stm32f4xx_hal_uart.c ****   huart->ErrorCode = HAL_UART_ERROR_NONE;
 228              		.loc 1 348 0
 229 008a 7B68     		ldr	r3, [r7, #4]
 230 008c 0022     		movs	r2, #0
 231 008e DA63     		str	r2, [r3, #60]
 349:Drivers/STM32F4xx_HAL_Driver/Src/stm32f4xx_hal_uart.c ****   huart->gState= HAL_UART_STATE_READY;
 232              		.loc 1 349 0
 233 0090 7B68     		ldr	r3, [r7, #4]
 234 0092 2022     		movs	r2, #32
 235 0094 83F83920 		strb	r2, [r3, #57]
 350:Drivers/STM32F4xx_HAL_Driver/Src/stm32f4xx_hal_uart.c ****   huart->RxState= HAL_UART_STATE_READY;
 236              		.loc 1 350 0
 237 0098 7B68     		ldr	r3, [r7, #4]
 238 009a 2022     		movs	r2, #32
 239 009c 83F83A20 		strb	r2, [r3, #58]
 351:Drivers/STM32F4xx_HAL_Driver/Src/stm32f4xx_hal_uart.c ****   
 352:Drivers/STM32F4xx_HAL_Driver/Src/stm32f4xx_hal_uart.c ****   return HAL_OK;
 240              		.loc 1 352 0
 241 00a0 0023     		movs	r3, #0
 242              	.L7:
 353:Drivers/STM32F4xx_HAL_Driver/Src/stm32f4xx_hal_uart.c **** }
 243              		.loc 1 353 0
 244 00a2 1846     		mov	r0, r3
 245 00a4 0837     		adds	r7, r7, #8
 246              	.LCFI8:
 247              		.cfi_def_cfa_offset 8
 248 00a6 BD46     		mov	sp, r7
 249              	.LCFI9:
 250              		.cfi_def_cfa_register 13
 251              		@ sp needed
 252 00a8 80BD     		pop	{r7, pc}
 253              		.cfi_endproc
 254              	.LFE125:
 256              		.section	.text.HAL_LIN_Init,"ax",%progbits
 257              		.align	1
 258              		.global	HAL_LIN_Init
 259              		.syntax unified
 260              		.thumb
 261              		.thumb_func
 262              		.fpu fpv4-sp-d16
 264              	HAL_LIN_Init:
 265              	.LFB126:
 354:Drivers/STM32F4xx_HAL_Driver/Src/stm32f4xx_hal_uart.c **** 
 355:Drivers/STM32F4xx_HAL_Driver/Src/stm32f4xx_hal_uart.c **** /**
 356:Drivers/STM32F4xx_HAL_Driver/Src/stm32f4xx_hal_uart.c ****   * @brief  Initializes the LIN mode according to the specified
 357:Drivers/STM32F4xx_HAL_Driver/Src/stm32f4xx_hal_uart.c ****   *         parameters in the UART_InitTypeDef and create the associated handle.
 358:Drivers/STM32F4xx_HAL_Driver/Src/stm32f4xx_hal_uart.c ****   * @param  huart pointer to a UART_HandleTypeDef structure that contains
 359:Drivers/STM32F4xx_HAL_Driver/Src/stm32f4xx_hal_uart.c ****   *                the configuration information for the specified UART module.
 360:Drivers/STM32F4xx_HAL_Driver/Src/stm32f4xx_hal_uart.c ****   * @param  BreakDetectLength Specifies the LIN break detection length.
 361:Drivers/STM32F4xx_HAL_Driver/Src/stm32f4xx_hal_uart.c ****   *         This parameter can be one of the following values:
 362:Drivers/STM32F4xx_HAL_Driver/Src/stm32f4xx_hal_uart.c ****   *            @arg UART_LINBREAKDETECTLENGTH_10B: 10-bit break detection
 363:Drivers/STM32F4xx_HAL_Driver/Src/stm32f4xx_hal_uart.c ****   *            @arg UART_LINBREAKDETECTLENGTH_11B: 11-bit break detection
 364:Drivers/STM32F4xx_HAL_Driver/Src/stm32f4xx_hal_uart.c ****   * @retval HAL status
 365:Drivers/STM32F4xx_HAL_Driver/Src/stm32f4xx_hal_uart.c ****   */
 366:Drivers/STM32F4xx_HAL_Driver/Src/stm32f4xx_hal_uart.c **** HAL_StatusTypeDef HAL_LIN_Init(UART_HandleTypeDef *huart, uint32_t BreakDetectLength)
 367:Drivers/STM32F4xx_HAL_Driver/Src/stm32f4xx_hal_uart.c **** {
ARM GAS  /tmp/ccLJIDLw.s 			page 12


 266              		.loc 1 367 0
 267              		.cfi_startproc
 268              		@ args = 0, pretend = 0, frame = 8
 269              		@ frame_needed = 1, uses_anonymous_args = 0
 270 0000 80B5     		push	{r7, lr}
 271              	.LCFI10:
 272              		.cfi_def_cfa_offset 8
 273              		.cfi_offset 7, -8
 274              		.cfi_offset 14, -4
 275 0002 82B0     		sub	sp, sp, #8
 276              	.LCFI11:
 277              		.cfi_def_cfa_offset 16
 278 0004 00AF     		add	r7, sp, #0
 279              	.LCFI12:
 280              		.cfi_def_cfa_register 7
 281 0006 7860     		str	r0, [r7, #4]
 282 0008 3960     		str	r1, [r7]
 368:Drivers/STM32F4xx_HAL_Driver/Src/stm32f4xx_hal_uart.c ****   /* Check the UART handle allocation */
 369:Drivers/STM32F4xx_HAL_Driver/Src/stm32f4xx_hal_uart.c ****   if(huart == NULL)
 283              		.loc 1 369 0
 284 000a 7B68     		ldr	r3, [r7, #4]
 285 000c 002B     		cmp	r3, #0
 286 000e 01D1     		bne	.L10
 370:Drivers/STM32F4xx_HAL_Driver/Src/stm32f4xx_hal_uart.c ****   {
 371:Drivers/STM32F4xx_HAL_Driver/Src/stm32f4xx_hal_uart.c ****     return HAL_ERROR;
 287              		.loc 1 371 0
 288 0010 0123     		movs	r3, #1
 289 0012 57E0     		b	.L11
 290              	.L10:
 372:Drivers/STM32F4xx_HAL_Driver/Src/stm32f4xx_hal_uart.c ****   }
 373:Drivers/STM32F4xx_HAL_Driver/Src/stm32f4xx_hal_uart.c ****    
 374:Drivers/STM32F4xx_HAL_Driver/Src/stm32f4xx_hal_uart.c ****   /* Check the parameters */
 375:Drivers/STM32F4xx_HAL_Driver/Src/stm32f4xx_hal_uart.c ****   assert_param(IS_UART_INSTANCE(huart->Instance));
 376:Drivers/STM32F4xx_HAL_Driver/Src/stm32f4xx_hal_uart.c ****   assert_param(IS_UART_LIN_BREAK_DETECT_LENGTH(BreakDetectLength));
 377:Drivers/STM32F4xx_HAL_Driver/Src/stm32f4xx_hal_uart.c ****   assert_param(IS_UART_LIN_WORD_LENGTH(huart->Init.WordLength));
 378:Drivers/STM32F4xx_HAL_Driver/Src/stm32f4xx_hal_uart.c ****   assert_param(IS_UART_LIN_OVERSAMPLING(huart->Init.OverSampling));
 379:Drivers/STM32F4xx_HAL_Driver/Src/stm32f4xx_hal_uart.c ****   
 380:Drivers/STM32F4xx_HAL_Driver/Src/stm32f4xx_hal_uart.c ****   if(huart->gState == HAL_UART_STATE_RESET)
 291              		.loc 1 380 0
 292 0014 7B68     		ldr	r3, [r7, #4]
 293 0016 93F83930 		ldrb	r3, [r3, #57]
 294 001a DBB2     		uxtb	r3, r3
 295 001c 002B     		cmp	r3, #0
 296 001e 06D1     		bne	.L12
 381:Drivers/STM32F4xx_HAL_Driver/Src/stm32f4xx_hal_uart.c ****   {
 382:Drivers/STM32F4xx_HAL_Driver/Src/stm32f4xx_hal_uart.c ****     /* Allocate lock resource and initialize it */
 383:Drivers/STM32F4xx_HAL_Driver/Src/stm32f4xx_hal_uart.c ****     huart->Lock = HAL_UNLOCKED;
 297              		.loc 1 383 0
 298 0020 7B68     		ldr	r3, [r7, #4]
 299 0022 0022     		movs	r2, #0
 300 0024 83F83820 		strb	r2, [r3, #56]
 384:Drivers/STM32F4xx_HAL_Driver/Src/stm32f4xx_hal_uart.c ****     /* Init the low level hardware */
 385:Drivers/STM32F4xx_HAL_Driver/Src/stm32f4xx_hal_uart.c ****     HAL_UART_MspInit(huart);
 301              		.loc 1 385 0
 302 0028 7868     		ldr	r0, [r7, #4]
 303 002a FFF7FEFF 		bl	HAL_UART_MspInit
 304              	.L12:
ARM GAS  /tmp/ccLJIDLw.s 			page 13


 386:Drivers/STM32F4xx_HAL_Driver/Src/stm32f4xx_hal_uart.c ****   }
 387:Drivers/STM32F4xx_HAL_Driver/Src/stm32f4xx_hal_uart.c **** 
 388:Drivers/STM32F4xx_HAL_Driver/Src/stm32f4xx_hal_uart.c ****   huart->gState = HAL_UART_STATE_BUSY;
 305              		.loc 1 388 0
 306 002e 7B68     		ldr	r3, [r7, #4]
 307 0030 2422     		movs	r2, #36
 308 0032 83F83920 		strb	r2, [r3, #57]
 389:Drivers/STM32F4xx_HAL_Driver/Src/stm32f4xx_hal_uart.c **** 
 390:Drivers/STM32F4xx_HAL_Driver/Src/stm32f4xx_hal_uart.c ****   /* Disable the peripheral */
 391:Drivers/STM32F4xx_HAL_Driver/Src/stm32f4xx_hal_uart.c ****   __HAL_UART_DISABLE(huart);
 309              		.loc 1 391 0
 310 0036 7B68     		ldr	r3, [r7, #4]
 311 0038 1B68     		ldr	r3, [r3]
 312 003a 7A68     		ldr	r2, [r7, #4]
 313 003c 1268     		ldr	r2, [r2]
 314 003e D268     		ldr	r2, [r2, #12]
 315 0040 22F40052 		bic	r2, r2, #8192
 316 0044 DA60     		str	r2, [r3, #12]
 392:Drivers/STM32F4xx_HAL_Driver/Src/stm32f4xx_hal_uart.c ****   
 393:Drivers/STM32F4xx_HAL_Driver/Src/stm32f4xx_hal_uart.c ****   /* Set the UART Communication parameters */
 394:Drivers/STM32F4xx_HAL_Driver/Src/stm32f4xx_hal_uart.c ****   UART_SetConfig(huart);
 317              		.loc 1 394 0
 318 0046 7868     		ldr	r0, [r7, #4]
 319 0048 FFF7FEFF 		bl	UART_SetConfig
 395:Drivers/STM32F4xx_HAL_Driver/Src/stm32f4xx_hal_uart.c ****   
 396:Drivers/STM32F4xx_HAL_Driver/Src/stm32f4xx_hal_uart.c ****   /* In LIN mode, the following bits must be kept cleared: 
 397:Drivers/STM32F4xx_HAL_Driver/Src/stm32f4xx_hal_uart.c ****      - LINEN and CLKEN bits in the USART_CR2 register,
 398:Drivers/STM32F4xx_HAL_Driver/Src/stm32f4xx_hal_uart.c ****      - SCEN and IREN bits in the USART_CR3 register.*/
 399:Drivers/STM32F4xx_HAL_Driver/Src/stm32f4xx_hal_uart.c ****   CLEAR_BIT(huart->Instance->CR2, USART_CR2_CLKEN);
 320              		.loc 1 399 0
 321 004c 7B68     		ldr	r3, [r7, #4]
 322 004e 1B68     		ldr	r3, [r3]
 323 0050 7A68     		ldr	r2, [r7, #4]
 324 0052 1268     		ldr	r2, [r2]
 325 0054 1269     		ldr	r2, [r2, #16]
 326 0056 22F40062 		bic	r2, r2, #2048
 327 005a 1A61     		str	r2, [r3, #16]
 400:Drivers/STM32F4xx_HAL_Driver/Src/stm32f4xx_hal_uart.c ****   CLEAR_BIT(huart->Instance->CR3, (USART_CR3_HDSEL | USART_CR3_IREN | USART_CR3_SCEN));
 328              		.loc 1 400 0
 329 005c 7B68     		ldr	r3, [r7, #4]
 330 005e 1B68     		ldr	r3, [r3]
 331 0060 7A68     		ldr	r2, [r7, #4]
 332 0062 1268     		ldr	r2, [r2]
 333 0064 5269     		ldr	r2, [r2, #20]
 334 0066 22F02A02 		bic	r2, r2, #42
 335 006a 5A61     		str	r2, [r3, #20]
 401:Drivers/STM32F4xx_HAL_Driver/Src/stm32f4xx_hal_uart.c ****   
 402:Drivers/STM32F4xx_HAL_Driver/Src/stm32f4xx_hal_uart.c ****   /* Enable the LIN mode by setting the LINEN bit in the CR2 register */
 403:Drivers/STM32F4xx_HAL_Driver/Src/stm32f4xx_hal_uart.c ****   SET_BIT(huart->Instance->CR2, USART_CR2_LINEN);
 336              		.loc 1 403 0
 337 006c 7B68     		ldr	r3, [r7, #4]
 338 006e 1B68     		ldr	r3, [r3]
 339 0070 7A68     		ldr	r2, [r7, #4]
 340 0072 1268     		ldr	r2, [r2]
 341 0074 1269     		ldr	r2, [r2, #16]
 342 0076 42F48042 		orr	r2, r2, #16384
 343 007a 1A61     		str	r2, [r3, #16]
ARM GAS  /tmp/ccLJIDLw.s 			page 14


 404:Drivers/STM32F4xx_HAL_Driver/Src/stm32f4xx_hal_uart.c ****   
 405:Drivers/STM32F4xx_HAL_Driver/Src/stm32f4xx_hal_uart.c ****   /* Set the USART LIN Break detection length. */
 406:Drivers/STM32F4xx_HAL_Driver/Src/stm32f4xx_hal_uart.c ****   CLEAR_BIT(huart->Instance->CR2, USART_CR2_LBDL);
 344              		.loc 1 406 0
 345 007c 7B68     		ldr	r3, [r7, #4]
 346 007e 1B68     		ldr	r3, [r3]
 347 0080 7A68     		ldr	r2, [r7, #4]
 348 0082 1268     		ldr	r2, [r2]
 349 0084 1269     		ldr	r2, [r2, #16]
 350 0086 22F02002 		bic	r2, r2, #32
 351 008a 1A61     		str	r2, [r3, #16]
 407:Drivers/STM32F4xx_HAL_Driver/Src/stm32f4xx_hal_uart.c ****   SET_BIT(huart->Instance->CR2, BreakDetectLength);
 352              		.loc 1 407 0
 353 008c 7B68     		ldr	r3, [r7, #4]
 354 008e 1B68     		ldr	r3, [r3]
 355 0090 7A68     		ldr	r2, [r7, #4]
 356 0092 1268     		ldr	r2, [r2]
 357 0094 1169     		ldr	r1, [r2, #16]
 358 0096 3A68     		ldr	r2, [r7]
 359 0098 0A43     		orrs	r2, r2, r1
 360 009a 1A61     		str	r2, [r3, #16]
 408:Drivers/STM32F4xx_HAL_Driver/Src/stm32f4xx_hal_uart.c ****   
 409:Drivers/STM32F4xx_HAL_Driver/Src/stm32f4xx_hal_uart.c ****   /* Enable the peripheral */
 410:Drivers/STM32F4xx_HAL_Driver/Src/stm32f4xx_hal_uart.c ****   __HAL_UART_ENABLE(huart);
 361              		.loc 1 410 0
 362 009c 7B68     		ldr	r3, [r7, #4]
 363 009e 1B68     		ldr	r3, [r3]
 364 00a0 7A68     		ldr	r2, [r7, #4]
 365 00a2 1268     		ldr	r2, [r2]
 366 00a4 D268     		ldr	r2, [r2, #12]
 367 00a6 42F40052 		orr	r2, r2, #8192
 368 00aa DA60     		str	r2, [r3, #12]
 411:Drivers/STM32F4xx_HAL_Driver/Src/stm32f4xx_hal_uart.c ****   
 412:Drivers/STM32F4xx_HAL_Driver/Src/stm32f4xx_hal_uart.c ****   /* Initialize the UART state*/
 413:Drivers/STM32F4xx_HAL_Driver/Src/stm32f4xx_hal_uart.c ****   huart->ErrorCode = HAL_UART_ERROR_NONE;
 369              		.loc 1 413 0
 370 00ac 7B68     		ldr	r3, [r7, #4]
 371 00ae 0022     		movs	r2, #0
 372 00b0 DA63     		str	r2, [r3, #60]
 414:Drivers/STM32F4xx_HAL_Driver/Src/stm32f4xx_hal_uart.c ****   huart->gState= HAL_UART_STATE_READY;
 373              		.loc 1 414 0
 374 00b2 7B68     		ldr	r3, [r7, #4]
 375 00b4 2022     		movs	r2, #32
 376 00b6 83F83920 		strb	r2, [r3, #57]
 415:Drivers/STM32F4xx_HAL_Driver/Src/stm32f4xx_hal_uart.c ****   huart->RxState= HAL_UART_STATE_READY;
 377              		.loc 1 415 0
 378 00ba 7B68     		ldr	r3, [r7, #4]
 379 00bc 2022     		movs	r2, #32
 380 00be 83F83A20 		strb	r2, [r3, #58]
 416:Drivers/STM32F4xx_HAL_Driver/Src/stm32f4xx_hal_uart.c ****   
 417:Drivers/STM32F4xx_HAL_Driver/Src/stm32f4xx_hal_uart.c ****   return HAL_OK;
 381              		.loc 1 417 0
 382 00c2 0023     		movs	r3, #0
 383              	.L11:
 418:Drivers/STM32F4xx_HAL_Driver/Src/stm32f4xx_hal_uart.c **** }
 384              		.loc 1 418 0
 385 00c4 1846     		mov	r0, r3
ARM GAS  /tmp/ccLJIDLw.s 			page 15


 386 00c6 0837     		adds	r7, r7, #8
 387              	.LCFI13:
 388              		.cfi_def_cfa_offset 8
 389 00c8 BD46     		mov	sp, r7
 390              	.LCFI14:
 391              		.cfi_def_cfa_register 13
 392              		@ sp needed
 393 00ca 80BD     		pop	{r7, pc}
 394              		.cfi_endproc
 395              	.LFE126:
 397              		.section	.text.HAL_MultiProcessor_Init,"ax",%progbits
 398              		.align	1
 399              		.global	HAL_MultiProcessor_Init
 400              		.syntax unified
 401              		.thumb
 402              		.thumb_func
 403              		.fpu fpv4-sp-d16
 405              	HAL_MultiProcessor_Init:
 406              	.LFB127:
 419:Drivers/STM32F4xx_HAL_Driver/Src/stm32f4xx_hal_uart.c **** 
 420:Drivers/STM32F4xx_HAL_Driver/Src/stm32f4xx_hal_uart.c **** /**
 421:Drivers/STM32F4xx_HAL_Driver/Src/stm32f4xx_hal_uart.c ****   * @brief  Initializes the Multi-Processor mode according to the specified
 422:Drivers/STM32F4xx_HAL_Driver/Src/stm32f4xx_hal_uart.c ****   *         parameters in the UART_InitTypeDef and create the associated handle.
 423:Drivers/STM32F4xx_HAL_Driver/Src/stm32f4xx_hal_uart.c ****   * @param  huart pointer to a UART_HandleTypeDef structure that contains
 424:Drivers/STM32F4xx_HAL_Driver/Src/stm32f4xx_hal_uart.c ****   *                the configuration information for the specified UART module.
 425:Drivers/STM32F4xx_HAL_Driver/Src/stm32f4xx_hal_uart.c ****   * @param  Address USART address
 426:Drivers/STM32F4xx_HAL_Driver/Src/stm32f4xx_hal_uart.c ****   * @param  WakeUpMethod specifies the USART wake-up method.
 427:Drivers/STM32F4xx_HAL_Driver/Src/stm32f4xx_hal_uart.c ****   *          This parameter can be one of the following values:
 428:Drivers/STM32F4xx_HAL_Driver/Src/stm32f4xx_hal_uart.c ****   *            @arg UART_WAKEUPMETHOD_IDLELINE: Wake-up by an idle line detection
 429:Drivers/STM32F4xx_HAL_Driver/Src/stm32f4xx_hal_uart.c ****   *            @arg UART_WAKEUPMETHOD_ADDRESSMARK: Wake-up by an address mark
 430:Drivers/STM32F4xx_HAL_Driver/Src/stm32f4xx_hal_uart.c ****   * @retval HAL status
 431:Drivers/STM32F4xx_HAL_Driver/Src/stm32f4xx_hal_uart.c ****   */
 432:Drivers/STM32F4xx_HAL_Driver/Src/stm32f4xx_hal_uart.c **** HAL_StatusTypeDef HAL_MultiProcessor_Init(UART_HandleTypeDef *huart, uint8_t Address, uint32_t Wake
 433:Drivers/STM32F4xx_HAL_Driver/Src/stm32f4xx_hal_uart.c **** {
 407              		.loc 1 433 0
 408              		.cfi_startproc
 409              		@ args = 0, pretend = 0, frame = 16
 410              		@ frame_needed = 1, uses_anonymous_args = 0
 411 0000 80B5     		push	{r7, lr}
 412              	.LCFI15:
 413              		.cfi_def_cfa_offset 8
 414              		.cfi_offset 7, -8
 415              		.cfi_offset 14, -4
 416 0002 84B0     		sub	sp, sp, #16
 417              	.LCFI16:
 418              		.cfi_def_cfa_offset 24
 419 0004 00AF     		add	r7, sp, #0
 420              	.LCFI17:
 421              		.cfi_def_cfa_register 7
 422 0006 F860     		str	r0, [r7, #12]
 423 0008 0B46     		mov	r3, r1
 424 000a 7A60     		str	r2, [r7, #4]
 425 000c FB72     		strb	r3, [r7, #11]
 434:Drivers/STM32F4xx_HAL_Driver/Src/stm32f4xx_hal_uart.c ****   /* Check the UART handle allocation */
 435:Drivers/STM32F4xx_HAL_Driver/Src/stm32f4xx_hal_uart.c ****   if(huart == NULL)
 426              		.loc 1 435 0
 427 000e FB68     		ldr	r3, [r7, #12]
ARM GAS  /tmp/ccLJIDLw.s 			page 16


 428 0010 002B     		cmp	r3, #0
 429 0012 01D1     		bne	.L14
 436:Drivers/STM32F4xx_HAL_Driver/Src/stm32f4xx_hal_uart.c ****   {
 437:Drivers/STM32F4xx_HAL_Driver/Src/stm32f4xx_hal_uart.c ****     return HAL_ERROR;
 430              		.loc 1 437 0
 431 0014 0123     		movs	r3, #1
 432 0016 5FE0     		b	.L15
 433              	.L14:
 438:Drivers/STM32F4xx_HAL_Driver/Src/stm32f4xx_hal_uart.c ****   }
 439:Drivers/STM32F4xx_HAL_Driver/Src/stm32f4xx_hal_uart.c **** 
 440:Drivers/STM32F4xx_HAL_Driver/Src/stm32f4xx_hal_uart.c ****   /* Check the parameters */
 441:Drivers/STM32F4xx_HAL_Driver/Src/stm32f4xx_hal_uart.c ****   assert_param(IS_UART_INSTANCE(huart->Instance));
 442:Drivers/STM32F4xx_HAL_Driver/Src/stm32f4xx_hal_uart.c ****   assert_param(IS_UART_WAKEUPMETHOD(WakeUpMethod));
 443:Drivers/STM32F4xx_HAL_Driver/Src/stm32f4xx_hal_uart.c ****   assert_param(IS_UART_ADDRESS(Address));
 444:Drivers/STM32F4xx_HAL_Driver/Src/stm32f4xx_hal_uart.c ****   assert_param(IS_UART_WORD_LENGTH(huart->Init.WordLength));
 445:Drivers/STM32F4xx_HAL_Driver/Src/stm32f4xx_hal_uart.c ****   assert_param(IS_UART_OVERSAMPLING(huart->Init.OverSampling));
 446:Drivers/STM32F4xx_HAL_Driver/Src/stm32f4xx_hal_uart.c **** 
 447:Drivers/STM32F4xx_HAL_Driver/Src/stm32f4xx_hal_uart.c ****   if(huart->gState == HAL_UART_STATE_RESET)
 434              		.loc 1 447 0
 435 0018 FB68     		ldr	r3, [r7, #12]
 436 001a 93F83930 		ldrb	r3, [r3, #57]
 437 001e DBB2     		uxtb	r3, r3
 438 0020 002B     		cmp	r3, #0
 439 0022 06D1     		bne	.L16
 448:Drivers/STM32F4xx_HAL_Driver/Src/stm32f4xx_hal_uart.c ****   {
 449:Drivers/STM32F4xx_HAL_Driver/Src/stm32f4xx_hal_uart.c ****     /* Allocate lock resource and initialize it */
 450:Drivers/STM32F4xx_HAL_Driver/Src/stm32f4xx_hal_uart.c ****     huart->Lock = HAL_UNLOCKED;
 440              		.loc 1 450 0
 441 0024 FB68     		ldr	r3, [r7, #12]
 442 0026 0022     		movs	r2, #0
 443 0028 83F83820 		strb	r2, [r3, #56]
 451:Drivers/STM32F4xx_HAL_Driver/Src/stm32f4xx_hal_uart.c ****     /* Init the low level hardware */
 452:Drivers/STM32F4xx_HAL_Driver/Src/stm32f4xx_hal_uart.c ****     HAL_UART_MspInit(huart);
 444              		.loc 1 452 0
 445 002c F868     		ldr	r0, [r7, #12]
 446 002e FFF7FEFF 		bl	HAL_UART_MspInit
 447              	.L16:
 453:Drivers/STM32F4xx_HAL_Driver/Src/stm32f4xx_hal_uart.c ****   }
 454:Drivers/STM32F4xx_HAL_Driver/Src/stm32f4xx_hal_uart.c **** 
 455:Drivers/STM32F4xx_HAL_Driver/Src/stm32f4xx_hal_uart.c ****   huart->gState = HAL_UART_STATE_BUSY;
 448              		.loc 1 455 0
 449 0032 FB68     		ldr	r3, [r7, #12]
 450 0034 2422     		movs	r2, #36
 451 0036 83F83920 		strb	r2, [r3, #57]
 456:Drivers/STM32F4xx_HAL_Driver/Src/stm32f4xx_hal_uart.c **** 
 457:Drivers/STM32F4xx_HAL_Driver/Src/stm32f4xx_hal_uart.c ****   /* Disable the peripheral */
 458:Drivers/STM32F4xx_HAL_Driver/Src/stm32f4xx_hal_uart.c ****   __HAL_UART_DISABLE(huart);
 452              		.loc 1 458 0
 453 003a FB68     		ldr	r3, [r7, #12]
 454 003c 1B68     		ldr	r3, [r3]
 455 003e FA68     		ldr	r2, [r7, #12]
 456 0040 1268     		ldr	r2, [r2]
 457 0042 D268     		ldr	r2, [r2, #12]
 458 0044 22F40052 		bic	r2, r2, #8192
 459 0048 DA60     		str	r2, [r3, #12]
 459:Drivers/STM32F4xx_HAL_Driver/Src/stm32f4xx_hal_uart.c ****   
 460:Drivers/STM32F4xx_HAL_Driver/Src/stm32f4xx_hal_uart.c ****   /* Set the UART Communication parameters */
ARM GAS  /tmp/ccLJIDLw.s 			page 17


 461:Drivers/STM32F4xx_HAL_Driver/Src/stm32f4xx_hal_uart.c ****   UART_SetConfig(huart);
 460              		.loc 1 461 0
 461 004a F868     		ldr	r0, [r7, #12]
 462 004c FFF7FEFF 		bl	UART_SetConfig
 462:Drivers/STM32F4xx_HAL_Driver/Src/stm32f4xx_hal_uart.c ****   
 463:Drivers/STM32F4xx_HAL_Driver/Src/stm32f4xx_hal_uart.c ****   /* In Multi-Processor mode, the following bits must be kept cleared: 
 464:Drivers/STM32F4xx_HAL_Driver/Src/stm32f4xx_hal_uart.c ****      - LINEN and CLKEN bits in the USART_CR2 register,
 465:Drivers/STM32F4xx_HAL_Driver/Src/stm32f4xx_hal_uart.c ****      - SCEN, HDSEL and IREN  bits in the USART_CR3 register */
 466:Drivers/STM32F4xx_HAL_Driver/Src/stm32f4xx_hal_uart.c ****   CLEAR_BIT(huart->Instance->CR2, (USART_CR2_LINEN | USART_CR2_CLKEN));
 463              		.loc 1 466 0
 464 0050 FB68     		ldr	r3, [r7, #12]
 465 0052 1B68     		ldr	r3, [r3]
 466 0054 FA68     		ldr	r2, [r7, #12]
 467 0056 1268     		ldr	r2, [r2]
 468 0058 1269     		ldr	r2, [r2, #16]
 469 005a 22F49042 		bic	r2, r2, #18432
 470 005e 1A61     		str	r2, [r3, #16]
 467:Drivers/STM32F4xx_HAL_Driver/Src/stm32f4xx_hal_uart.c ****   CLEAR_BIT(huart->Instance->CR3, (USART_CR3_SCEN | USART_CR3_HDSEL | USART_CR3_IREN));
 471              		.loc 1 467 0
 472 0060 FB68     		ldr	r3, [r7, #12]
 473 0062 1B68     		ldr	r3, [r3]
 474 0064 FA68     		ldr	r2, [r7, #12]
 475 0066 1268     		ldr	r2, [r2]
 476 0068 5269     		ldr	r2, [r2, #20]
 477 006a 22F02A02 		bic	r2, r2, #42
 478 006e 5A61     		str	r2, [r3, #20]
 468:Drivers/STM32F4xx_HAL_Driver/Src/stm32f4xx_hal_uart.c ****   
 469:Drivers/STM32F4xx_HAL_Driver/Src/stm32f4xx_hal_uart.c ****   /* Clear the USART address */
 470:Drivers/STM32F4xx_HAL_Driver/Src/stm32f4xx_hal_uart.c ****   CLEAR_BIT(huart->Instance->CR2, USART_CR2_ADD);
 479              		.loc 1 470 0
 480 0070 FB68     		ldr	r3, [r7, #12]
 481 0072 1B68     		ldr	r3, [r3]
 482 0074 FA68     		ldr	r2, [r7, #12]
 483 0076 1268     		ldr	r2, [r2]
 484 0078 1269     		ldr	r2, [r2, #16]
 485 007a 22F00F02 		bic	r2, r2, #15
 486 007e 1A61     		str	r2, [r3, #16]
 471:Drivers/STM32F4xx_HAL_Driver/Src/stm32f4xx_hal_uart.c ****   /* Set the USART address node */
 472:Drivers/STM32F4xx_HAL_Driver/Src/stm32f4xx_hal_uart.c ****   SET_BIT(huart->Instance->CR2, Address);
 487              		.loc 1 472 0
 488 0080 FB68     		ldr	r3, [r7, #12]
 489 0082 1B68     		ldr	r3, [r3]
 490 0084 FA68     		ldr	r2, [r7, #12]
 491 0086 1268     		ldr	r2, [r2]
 492 0088 1169     		ldr	r1, [r2, #16]
 493 008a FA7A     		ldrb	r2, [r7, #11]	@ zero_extendqisi2
 494 008c 0A43     		orrs	r2, r2, r1
 495 008e 1A61     		str	r2, [r3, #16]
 473:Drivers/STM32F4xx_HAL_Driver/Src/stm32f4xx_hal_uart.c ****   
 474:Drivers/STM32F4xx_HAL_Driver/Src/stm32f4xx_hal_uart.c ****   /* Set the wake up method by setting the WAKE bit in the CR1 register */
 475:Drivers/STM32F4xx_HAL_Driver/Src/stm32f4xx_hal_uart.c ****   CLEAR_BIT(huart->Instance->CR1, USART_CR1_WAKE);
 496              		.loc 1 475 0
 497 0090 FB68     		ldr	r3, [r7, #12]
 498 0092 1B68     		ldr	r3, [r3]
 499 0094 FA68     		ldr	r2, [r7, #12]
 500 0096 1268     		ldr	r2, [r2]
 501 0098 D268     		ldr	r2, [r2, #12]
ARM GAS  /tmp/ccLJIDLw.s 			page 18


 502 009a 22F40062 		bic	r2, r2, #2048
 503 009e DA60     		str	r2, [r3, #12]
 476:Drivers/STM32F4xx_HAL_Driver/Src/stm32f4xx_hal_uart.c ****   SET_BIT(huart->Instance->CR1, WakeUpMethod);
 504              		.loc 1 476 0
 505 00a0 FB68     		ldr	r3, [r7, #12]
 506 00a2 1B68     		ldr	r3, [r3]
 507 00a4 FA68     		ldr	r2, [r7, #12]
 508 00a6 1268     		ldr	r2, [r2]
 509 00a8 D168     		ldr	r1, [r2, #12]
 510 00aa 7A68     		ldr	r2, [r7, #4]
 511 00ac 0A43     		orrs	r2, r2, r1
 512 00ae DA60     		str	r2, [r3, #12]
 477:Drivers/STM32F4xx_HAL_Driver/Src/stm32f4xx_hal_uart.c ****   
 478:Drivers/STM32F4xx_HAL_Driver/Src/stm32f4xx_hal_uart.c ****   /* Enable the peripheral */
 479:Drivers/STM32F4xx_HAL_Driver/Src/stm32f4xx_hal_uart.c ****   __HAL_UART_ENABLE(huart);
 513              		.loc 1 479 0
 514 00b0 FB68     		ldr	r3, [r7, #12]
 515 00b2 1B68     		ldr	r3, [r3]
 516 00b4 FA68     		ldr	r2, [r7, #12]
 517 00b6 1268     		ldr	r2, [r2]
 518 00b8 D268     		ldr	r2, [r2, #12]
 519 00ba 42F40052 		orr	r2, r2, #8192
 520 00be DA60     		str	r2, [r3, #12]
 480:Drivers/STM32F4xx_HAL_Driver/Src/stm32f4xx_hal_uart.c ****   
 481:Drivers/STM32F4xx_HAL_Driver/Src/stm32f4xx_hal_uart.c ****   /* Initialize the UART state */
 482:Drivers/STM32F4xx_HAL_Driver/Src/stm32f4xx_hal_uart.c ****   huart->ErrorCode = HAL_UART_ERROR_NONE;
 521              		.loc 1 482 0
 522 00c0 FB68     		ldr	r3, [r7, #12]
 523 00c2 0022     		movs	r2, #0
 524 00c4 DA63     		str	r2, [r3, #60]
 483:Drivers/STM32F4xx_HAL_Driver/Src/stm32f4xx_hal_uart.c ****   huart->gState= HAL_UART_STATE_READY;
 525              		.loc 1 483 0
 526 00c6 FB68     		ldr	r3, [r7, #12]
 527 00c8 2022     		movs	r2, #32
 528 00ca 83F83920 		strb	r2, [r3, #57]
 484:Drivers/STM32F4xx_HAL_Driver/Src/stm32f4xx_hal_uart.c ****   huart->RxState= HAL_UART_STATE_READY;
 529              		.loc 1 484 0
 530 00ce FB68     		ldr	r3, [r7, #12]
 531 00d0 2022     		movs	r2, #32
 532 00d2 83F83A20 		strb	r2, [r3, #58]
 485:Drivers/STM32F4xx_HAL_Driver/Src/stm32f4xx_hal_uart.c ****   
 486:Drivers/STM32F4xx_HAL_Driver/Src/stm32f4xx_hal_uart.c ****   return HAL_OK;
 533              		.loc 1 486 0
 534 00d6 0023     		movs	r3, #0
 535              	.L15:
 487:Drivers/STM32F4xx_HAL_Driver/Src/stm32f4xx_hal_uart.c **** }
 536              		.loc 1 487 0
 537 00d8 1846     		mov	r0, r3
 538 00da 1037     		adds	r7, r7, #16
 539              	.LCFI18:
 540              		.cfi_def_cfa_offset 8
 541 00dc BD46     		mov	sp, r7
 542              	.LCFI19:
 543              		.cfi_def_cfa_register 13
 544              		@ sp needed
 545 00de 80BD     		pop	{r7, pc}
 546              		.cfi_endproc
ARM GAS  /tmp/ccLJIDLw.s 			page 19


 547              	.LFE127:
 549              		.section	.text.HAL_UART_DeInit,"ax",%progbits
 550              		.align	1
 551              		.global	HAL_UART_DeInit
 552              		.syntax unified
 553              		.thumb
 554              		.thumb_func
 555              		.fpu fpv4-sp-d16
 557              	HAL_UART_DeInit:
 558              	.LFB128:
 488:Drivers/STM32F4xx_HAL_Driver/Src/stm32f4xx_hal_uart.c **** 
 489:Drivers/STM32F4xx_HAL_Driver/Src/stm32f4xx_hal_uart.c **** /**
 490:Drivers/STM32F4xx_HAL_Driver/Src/stm32f4xx_hal_uart.c ****   * @brief  DeInitializes the UART peripheral. 
 491:Drivers/STM32F4xx_HAL_Driver/Src/stm32f4xx_hal_uart.c ****   * @param  huart pointer to a UART_HandleTypeDef structure that contains
 492:Drivers/STM32F4xx_HAL_Driver/Src/stm32f4xx_hal_uart.c ****   *                the configuration information for the specified UART module.
 493:Drivers/STM32F4xx_HAL_Driver/Src/stm32f4xx_hal_uart.c ****   * @retval HAL status
 494:Drivers/STM32F4xx_HAL_Driver/Src/stm32f4xx_hal_uart.c ****   */
 495:Drivers/STM32F4xx_HAL_Driver/Src/stm32f4xx_hal_uart.c **** HAL_StatusTypeDef HAL_UART_DeInit(UART_HandleTypeDef *huart)
 496:Drivers/STM32F4xx_HAL_Driver/Src/stm32f4xx_hal_uart.c **** {
 559              		.loc 1 496 0
 560              		.cfi_startproc
 561              		@ args = 0, pretend = 0, frame = 8
 562              		@ frame_needed = 1, uses_anonymous_args = 0
 563 0000 80B5     		push	{r7, lr}
 564              	.LCFI20:
 565              		.cfi_def_cfa_offset 8
 566              		.cfi_offset 7, -8
 567              		.cfi_offset 14, -4
 568 0002 82B0     		sub	sp, sp, #8
 569              	.LCFI21:
 570              		.cfi_def_cfa_offset 16
 571 0004 00AF     		add	r7, sp, #0
 572              	.LCFI22:
 573              		.cfi_def_cfa_register 7
 574 0006 7860     		str	r0, [r7, #4]
 497:Drivers/STM32F4xx_HAL_Driver/Src/stm32f4xx_hal_uart.c ****   /* Check the UART handle allocation */
 498:Drivers/STM32F4xx_HAL_Driver/Src/stm32f4xx_hal_uart.c ****   if(huart == NULL)
 575              		.loc 1 498 0
 576 0008 7B68     		ldr	r3, [r7, #4]
 577 000a 002B     		cmp	r3, #0
 578 000c 01D1     		bne	.L18
 499:Drivers/STM32F4xx_HAL_Driver/Src/stm32f4xx_hal_uart.c ****   {
 500:Drivers/STM32F4xx_HAL_Driver/Src/stm32f4xx_hal_uart.c ****     return HAL_ERROR;
 579              		.loc 1 500 0
 580 000e 0123     		movs	r3, #1
 581 0010 16E0     		b	.L19
 582              	.L18:
 501:Drivers/STM32F4xx_HAL_Driver/Src/stm32f4xx_hal_uart.c ****   }
 502:Drivers/STM32F4xx_HAL_Driver/Src/stm32f4xx_hal_uart.c ****   
 503:Drivers/STM32F4xx_HAL_Driver/Src/stm32f4xx_hal_uart.c ****   /* Check the parameters */
 504:Drivers/STM32F4xx_HAL_Driver/Src/stm32f4xx_hal_uart.c ****   assert_param(IS_UART_INSTANCE(huart->Instance));
 505:Drivers/STM32F4xx_HAL_Driver/Src/stm32f4xx_hal_uart.c **** 
 506:Drivers/STM32F4xx_HAL_Driver/Src/stm32f4xx_hal_uart.c ****   huart->gState = HAL_UART_STATE_BUSY;
 583              		.loc 1 506 0
 584 0012 7B68     		ldr	r3, [r7, #4]
 585 0014 2422     		movs	r2, #36
 586 0016 83F83920 		strb	r2, [r3, #57]
ARM GAS  /tmp/ccLJIDLw.s 			page 20


 507:Drivers/STM32F4xx_HAL_Driver/Src/stm32f4xx_hal_uart.c ****   
 508:Drivers/STM32F4xx_HAL_Driver/Src/stm32f4xx_hal_uart.c ****   /* DeInit the low level hardware */
 509:Drivers/STM32F4xx_HAL_Driver/Src/stm32f4xx_hal_uart.c ****   HAL_UART_MspDeInit(huart);
 587              		.loc 1 509 0
 588 001a 7868     		ldr	r0, [r7, #4]
 589 001c FFF7FEFF 		bl	HAL_UART_MspDeInit
 510:Drivers/STM32F4xx_HAL_Driver/Src/stm32f4xx_hal_uart.c ****   
 511:Drivers/STM32F4xx_HAL_Driver/Src/stm32f4xx_hal_uart.c ****   huart->ErrorCode = HAL_UART_ERROR_NONE;
 590              		.loc 1 511 0
 591 0020 7B68     		ldr	r3, [r7, #4]
 592 0022 0022     		movs	r2, #0
 593 0024 DA63     		str	r2, [r3, #60]
 512:Drivers/STM32F4xx_HAL_Driver/Src/stm32f4xx_hal_uart.c ****   huart->gState = HAL_UART_STATE_RESET;
 594              		.loc 1 512 0
 595 0026 7B68     		ldr	r3, [r7, #4]
 596 0028 0022     		movs	r2, #0
 597 002a 83F83920 		strb	r2, [r3, #57]
 513:Drivers/STM32F4xx_HAL_Driver/Src/stm32f4xx_hal_uart.c ****   huart->RxState = HAL_UART_STATE_RESET;
 598              		.loc 1 513 0
 599 002e 7B68     		ldr	r3, [r7, #4]
 600 0030 0022     		movs	r2, #0
 601 0032 83F83A20 		strb	r2, [r3, #58]
 514:Drivers/STM32F4xx_HAL_Driver/Src/stm32f4xx_hal_uart.c **** 
 515:Drivers/STM32F4xx_HAL_Driver/Src/stm32f4xx_hal_uart.c ****   /* Process Lock */
 516:Drivers/STM32F4xx_HAL_Driver/Src/stm32f4xx_hal_uart.c ****   __HAL_UNLOCK(huart);
 602              		.loc 1 516 0
 603 0036 7B68     		ldr	r3, [r7, #4]
 604 0038 0022     		movs	r2, #0
 605 003a 83F83820 		strb	r2, [r3, #56]
 517:Drivers/STM32F4xx_HAL_Driver/Src/stm32f4xx_hal_uart.c **** 
 518:Drivers/STM32F4xx_HAL_Driver/Src/stm32f4xx_hal_uart.c ****   return HAL_OK;
 606              		.loc 1 518 0
 607 003e 0023     		movs	r3, #0
 608              	.L19:
 519:Drivers/STM32F4xx_HAL_Driver/Src/stm32f4xx_hal_uart.c **** }
 609              		.loc 1 519 0
 610 0040 1846     		mov	r0, r3
 611 0042 0837     		adds	r7, r7, #8
 612              	.LCFI23:
 613              		.cfi_def_cfa_offset 8
 614 0044 BD46     		mov	sp, r7
 615              	.LCFI24:
 616              		.cfi_def_cfa_register 13
 617              		@ sp needed
 618 0046 80BD     		pop	{r7, pc}
 619              		.cfi_endproc
 620              	.LFE128:
 622              		.section	.text.HAL_UART_MspInit,"ax",%progbits
 623              		.align	1
 624              		.weak	HAL_UART_MspInit
 625              		.syntax unified
 626              		.thumb
 627              		.thumb_func
 628              		.fpu fpv4-sp-d16
 630              	HAL_UART_MspInit:
 631              	.LFB129:
 520:Drivers/STM32F4xx_HAL_Driver/Src/stm32f4xx_hal_uart.c **** 
ARM GAS  /tmp/ccLJIDLw.s 			page 21


 521:Drivers/STM32F4xx_HAL_Driver/Src/stm32f4xx_hal_uart.c **** /**
 522:Drivers/STM32F4xx_HAL_Driver/Src/stm32f4xx_hal_uart.c ****   * @brief  UART MSP Init.
 523:Drivers/STM32F4xx_HAL_Driver/Src/stm32f4xx_hal_uart.c ****   * @param  huart pointer to a UART_HandleTypeDef structure that contains
 524:Drivers/STM32F4xx_HAL_Driver/Src/stm32f4xx_hal_uart.c ****   *                the configuration information for the specified UART module.
 525:Drivers/STM32F4xx_HAL_Driver/Src/stm32f4xx_hal_uart.c ****   * @retval None
 526:Drivers/STM32F4xx_HAL_Driver/Src/stm32f4xx_hal_uart.c ****   */
 527:Drivers/STM32F4xx_HAL_Driver/Src/stm32f4xx_hal_uart.c ****  __weak void HAL_UART_MspInit(UART_HandleTypeDef *huart)
 528:Drivers/STM32F4xx_HAL_Driver/Src/stm32f4xx_hal_uart.c **** {
 632              		.loc 1 528 0
 633              		.cfi_startproc
 634              		@ args = 0, pretend = 0, frame = 8
 635              		@ frame_needed = 1, uses_anonymous_args = 0
 636              		@ link register save eliminated.
 637 0000 80B4     		push	{r7}
 638              	.LCFI25:
 639              		.cfi_def_cfa_offset 4
 640              		.cfi_offset 7, -4
 641 0002 83B0     		sub	sp, sp, #12
 642              	.LCFI26:
 643              		.cfi_def_cfa_offset 16
 644 0004 00AF     		add	r7, sp, #0
 645              	.LCFI27:
 646              		.cfi_def_cfa_register 7
 647 0006 7860     		str	r0, [r7, #4]
 529:Drivers/STM32F4xx_HAL_Driver/Src/stm32f4xx_hal_uart.c ****    /* Prevent unused argument(s) compilation warning */
 530:Drivers/STM32F4xx_HAL_Driver/Src/stm32f4xx_hal_uart.c ****   UNUSED(huart);
 531:Drivers/STM32F4xx_HAL_Driver/Src/stm32f4xx_hal_uart.c ****   /* NOTE: This function Should not be modified, when the callback is needed,
 532:Drivers/STM32F4xx_HAL_Driver/Src/stm32f4xx_hal_uart.c ****            the HAL_UART_MspInit could be implemented in the user file
 533:Drivers/STM32F4xx_HAL_Driver/Src/stm32f4xx_hal_uart.c ****    */ 
 534:Drivers/STM32F4xx_HAL_Driver/Src/stm32f4xx_hal_uart.c **** }
 648              		.loc 1 534 0
 649 0008 00BF     		nop
 650 000a 0C37     		adds	r7, r7, #12
 651              	.LCFI28:
 652              		.cfi_def_cfa_offset 4
 653 000c BD46     		mov	sp, r7
 654              	.LCFI29:
 655              		.cfi_def_cfa_register 13
 656              		@ sp needed
 657 000e 5DF8047B 		ldr	r7, [sp], #4
 658              	.LCFI30:
 659              		.cfi_restore 7
 660              		.cfi_def_cfa_offset 0
 661 0012 7047     		bx	lr
 662              		.cfi_endproc
 663              	.LFE129:
 665              		.section	.text.HAL_UART_MspDeInit,"ax",%progbits
 666              		.align	1
 667              		.weak	HAL_UART_MspDeInit
 668              		.syntax unified
 669              		.thumb
 670              		.thumb_func
 671              		.fpu fpv4-sp-d16
 673              	HAL_UART_MspDeInit:
 674              	.LFB130:
 535:Drivers/STM32F4xx_HAL_Driver/Src/stm32f4xx_hal_uart.c **** 
 536:Drivers/STM32F4xx_HAL_Driver/Src/stm32f4xx_hal_uart.c **** /**
ARM GAS  /tmp/ccLJIDLw.s 			page 22


 537:Drivers/STM32F4xx_HAL_Driver/Src/stm32f4xx_hal_uart.c ****   * @brief  UART MSP DeInit.
 538:Drivers/STM32F4xx_HAL_Driver/Src/stm32f4xx_hal_uart.c ****   * @param  huart pointer to a UART_HandleTypeDef structure that contains
 539:Drivers/STM32F4xx_HAL_Driver/Src/stm32f4xx_hal_uart.c ****   *                the configuration information for the specified UART module.
 540:Drivers/STM32F4xx_HAL_Driver/Src/stm32f4xx_hal_uart.c ****   * @retval None
 541:Drivers/STM32F4xx_HAL_Driver/Src/stm32f4xx_hal_uart.c ****   */
 542:Drivers/STM32F4xx_HAL_Driver/Src/stm32f4xx_hal_uart.c ****  __weak void HAL_UART_MspDeInit(UART_HandleTypeDef *huart)
 543:Drivers/STM32F4xx_HAL_Driver/Src/stm32f4xx_hal_uart.c **** {
 675              		.loc 1 543 0
 676              		.cfi_startproc
 677              		@ args = 0, pretend = 0, frame = 8
 678              		@ frame_needed = 1, uses_anonymous_args = 0
 679              		@ link register save eliminated.
 680 0000 80B4     		push	{r7}
 681              	.LCFI31:
 682              		.cfi_def_cfa_offset 4
 683              		.cfi_offset 7, -4
 684 0002 83B0     		sub	sp, sp, #12
 685              	.LCFI32:
 686              		.cfi_def_cfa_offset 16
 687 0004 00AF     		add	r7, sp, #0
 688              	.LCFI33:
 689              		.cfi_def_cfa_register 7
 690 0006 7860     		str	r0, [r7, #4]
 544:Drivers/STM32F4xx_HAL_Driver/Src/stm32f4xx_hal_uart.c ****   /* Prevent unused argument(s) compilation warning */
 545:Drivers/STM32F4xx_HAL_Driver/Src/stm32f4xx_hal_uart.c ****   UNUSED(huart);
 546:Drivers/STM32F4xx_HAL_Driver/Src/stm32f4xx_hal_uart.c ****   /* NOTE: This function Should not be modified, when the callback is needed,
 547:Drivers/STM32F4xx_HAL_Driver/Src/stm32f4xx_hal_uart.c ****            the HAL_UART_MspDeInit could be implemented in the user file
 548:Drivers/STM32F4xx_HAL_Driver/Src/stm32f4xx_hal_uart.c ****    */ 
 549:Drivers/STM32F4xx_HAL_Driver/Src/stm32f4xx_hal_uart.c **** }
 691              		.loc 1 549 0
 692 0008 00BF     		nop
 693 000a 0C37     		adds	r7, r7, #12
 694              	.LCFI34:
 695              		.cfi_def_cfa_offset 4
 696 000c BD46     		mov	sp, r7
 697              	.LCFI35:
 698              		.cfi_def_cfa_register 13
 699              		@ sp needed
 700 000e 5DF8047B 		ldr	r7, [sp], #4
 701              	.LCFI36:
 702              		.cfi_restore 7
 703              		.cfi_def_cfa_offset 0
 704 0012 7047     		bx	lr
 705              		.cfi_endproc
 706              	.LFE130:
 708              		.section	.text.HAL_UART_Transmit,"ax",%progbits
 709              		.align	1
 710              		.global	HAL_UART_Transmit
 711              		.syntax unified
 712              		.thumb
 713              		.thumb_func
 714              		.fpu fpv4-sp-d16
 716              	HAL_UART_Transmit:
 717              	.LFB131:
 550:Drivers/STM32F4xx_HAL_Driver/Src/stm32f4xx_hal_uart.c **** 
 551:Drivers/STM32F4xx_HAL_Driver/Src/stm32f4xx_hal_uart.c **** /**
 552:Drivers/STM32F4xx_HAL_Driver/Src/stm32f4xx_hal_uart.c ****   * @}
ARM GAS  /tmp/ccLJIDLw.s 			page 23


 553:Drivers/STM32F4xx_HAL_Driver/Src/stm32f4xx_hal_uart.c ****   */
 554:Drivers/STM32F4xx_HAL_Driver/Src/stm32f4xx_hal_uart.c **** 
 555:Drivers/STM32F4xx_HAL_Driver/Src/stm32f4xx_hal_uart.c **** /** @defgroup UART_Exported_Functions_Group2 IO operation functions 
 556:Drivers/STM32F4xx_HAL_Driver/Src/stm32f4xx_hal_uart.c ****   *  @brief UART Transmit and Receive functions 
 557:Drivers/STM32F4xx_HAL_Driver/Src/stm32f4xx_hal_uart.c ****   *
 558:Drivers/STM32F4xx_HAL_Driver/Src/stm32f4xx_hal_uart.c **** @verbatim   
 559:Drivers/STM32F4xx_HAL_Driver/Src/stm32f4xx_hal_uart.c ****   ==============================================================================
 560:Drivers/STM32F4xx_HAL_Driver/Src/stm32f4xx_hal_uart.c ****                       ##### IO operation functions #####
 561:Drivers/STM32F4xx_HAL_Driver/Src/stm32f4xx_hal_uart.c ****   ==============================================================================  
 562:Drivers/STM32F4xx_HAL_Driver/Src/stm32f4xx_hal_uart.c ****   [..]
 563:Drivers/STM32F4xx_HAL_Driver/Src/stm32f4xx_hal_uart.c ****     This subsection provides a set of functions allowing to manage the UART asynchronous
 564:Drivers/STM32F4xx_HAL_Driver/Src/stm32f4xx_hal_uart.c ****     and Half duplex data transfers.
 565:Drivers/STM32F4xx_HAL_Driver/Src/stm32f4xx_hal_uart.c **** 
 566:Drivers/STM32F4xx_HAL_Driver/Src/stm32f4xx_hal_uart.c ****     (#) There are two modes of transfer:
 567:Drivers/STM32F4xx_HAL_Driver/Src/stm32f4xx_hal_uart.c ****        (++) Blocking mode: The communication is performed in polling mode. 
 568:Drivers/STM32F4xx_HAL_Driver/Src/stm32f4xx_hal_uart.c ****             The HAL status of all data processing is returned by the same function 
 569:Drivers/STM32F4xx_HAL_Driver/Src/stm32f4xx_hal_uart.c ****             after finishing transfer.  
 570:Drivers/STM32F4xx_HAL_Driver/Src/stm32f4xx_hal_uart.c ****        (++) Non blocking mode: The communication is performed using Interrupts 
 571:Drivers/STM32F4xx_HAL_Driver/Src/stm32f4xx_hal_uart.c ****             or DMA, these APIs return the HAL status.
 572:Drivers/STM32F4xx_HAL_Driver/Src/stm32f4xx_hal_uart.c ****             The end of the data processing will be indicated through the 
 573:Drivers/STM32F4xx_HAL_Driver/Src/stm32f4xx_hal_uart.c ****             dedicated UART IRQ when using Interrupt mode or the DMA IRQ when 
 574:Drivers/STM32F4xx_HAL_Driver/Src/stm32f4xx_hal_uart.c ****             using DMA mode.
 575:Drivers/STM32F4xx_HAL_Driver/Src/stm32f4xx_hal_uart.c ****             The HAL_UART_TxCpltCallback(), HAL_UART_RxCpltCallback() user callbacks 
 576:Drivers/STM32F4xx_HAL_Driver/Src/stm32f4xx_hal_uart.c ****             will be executed respectively at the end of the transmit or receive process.
 577:Drivers/STM32F4xx_HAL_Driver/Src/stm32f4xx_hal_uart.c ****             The HAL_UART_ErrorCallback() user callback will be executed when 
 578:Drivers/STM32F4xx_HAL_Driver/Src/stm32f4xx_hal_uart.c ****             a communication error is detected.
 579:Drivers/STM32F4xx_HAL_Driver/Src/stm32f4xx_hal_uart.c **** 
 580:Drivers/STM32F4xx_HAL_Driver/Src/stm32f4xx_hal_uart.c ****     (#) Blocking mode APIs are:
 581:Drivers/STM32F4xx_HAL_Driver/Src/stm32f4xx_hal_uart.c ****         (++) HAL_UART_Transmit()
 582:Drivers/STM32F4xx_HAL_Driver/Src/stm32f4xx_hal_uart.c ****         (++) HAL_UART_Receive() 
 583:Drivers/STM32F4xx_HAL_Driver/Src/stm32f4xx_hal_uart.c ****         
 584:Drivers/STM32F4xx_HAL_Driver/Src/stm32f4xx_hal_uart.c ****     (#) Non Blocking mode APIs with Interrupt are:
 585:Drivers/STM32F4xx_HAL_Driver/Src/stm32f4xx_hal_uart.c ****         (++) HAL_UART_Transmit_IT()
 586:Drivers/STM32F4xx_HAL_Driver/Src/stm32f4xx_hal_uart.c ****         (++) HAL_UART_Receive_IT()
 587:Drivers/STM32F4xx_HAL_Driver/Src/stm32f4xx_hal_uart.c ****         (++) HAL_UART_IRQHandler()
 588:Drivers/STM32F4xx_HAL_Driver/Src/stm32f4xx_hal_uart.c **** 
 589:Drivers/STM32F4xx_HAL_Driver/Src/stm32f4xx_hal_uart.c ****     (#) Non Blocking mode functions with DMA are:
 590:Drivers/STM32F4xx_HAL_Driver/Src/stm32f4xx_hal_uart.c ****         (++) HAL_UART_Transmit_DMA()
 591:Drivers/STM32F4xx_HAL_Driver/Src/stm32f4xx_hal_uart.c ****         (++) HAL_UART_Receive_DMA()
 592:Drivers/STM32F4xx_HAL_Driver/Src/stm32f4xx_hal_uart.c **** 
 593:Drivers/STM32F4xx_HAL_Driver/Src/stm32f4xx_hal_uart.c ****     (#) A set of Transfer Complete Callbacks are provided in non blocking mode:
 594:Drivers/STM32F4xx_HAL_Driver/Src/stm32f4xx_hal_uart.c ****         (++) HAL_UART_TxCpltCallback()
 595:Drivers/STM32F4xx_HAL_Driver/Src/stm32f4xx_hal_uart.c ****         (++) HAL_UART_RxCpltCallback()
 596:Drivers/STM32F4xx_HAL_Driver/Src/stm32f4xx_hal_uart.c ****         (++) HAL_UART_ErrorCallback()
 597:Drivers/STM32F4xx_HAL_Driver/Src/stm32f4xx_hal_uart.c **** 
 598:Drivers/STM32F4xx_HAL_Driver/Src/stm32f4xx_hal_uart.c ****     [..] 
 599:Drivers/STM32F4xx_HAL_Driver/Src/stm32f4xx_hal_uart.c ****       (@) In the Half duplex communication, it is forbidden to run the transmit 
 600:Drivers/STM32F4xx_HAL_Driver/Src/stm32f4xx_hal_uart.c ****           and receive process in parallel, the UART state HAL_UART_STATE_BUSY_TX_RX 
 601:Drivers/STM32F4xx_HAL_Driver/Src/stm32f4xx_hal_uart.c ****           can't be useful.
 602:Drivers/STM32F4xx_HAL_Driver/Src/stm32f4xx_hal_uart.c ****       
 603:Drivers/STM32F4xx_HAL_Driver/Src/stm32f4xx_hal_uart.c **** @endverbatim
 604:Drivers/STM32F4xx_HAL_Driver/Src/stm32f4xx_hal_uart.c ****   * @{
 605:Drivers/STM32F4xx_HAL_Driver/Src/stm32f4xx_hal_uart.c ****   */
 606:Drivers/STM32F4xx_HAL_Driver/Src/stm32f4xx_hal_uart.c **** 
 607:Drivers/STM32F4xx_HAL_Driver/Src/stm32f4xx_hal_uart.c **** /**
 608:Drivers/STM32F4xx_HAL_Driver/Src/stm32f4xx_hal_uart.c ****   * @brief  Sends an amount of data in blocking mode. 
 609:Drivers/STM32F4xx_HAL_Driver/Src/stm32f4xx_hal_uart.c ****   * @param  huart pointer to a UART_HandleTypeDef structure that contains
ARM GAS  /tmp/ccLJIDLw.s 			page 24


 610:Drivers/STM32F4xx_HAL_Driver/Src/stm32f4xx_hal_uart.c ****   *                the configuration information for the specified UART module.
 611:Drivers/STM32F4xx_HAL_Driver/Src/stm32f4xx_hal_uart.c ****   * @param  pData Pointer to data buffer
 612:Drivers/STM32F4xx_HAL_Driver/Src/stm32f4xx_hal_uart.c ****   * @param  Size Amount of data to be sent
 613:Drivers/STM32F4xx_HAL_Driver/Src/stm32f4xx_hal_uart.c ****   * @param  Timeout Timeout duration  
 614:Drivers/STM32F4xx_HAL_Driver/Src/stm32f4xx_hal_uart.c ****   * @retval HAL status
 615:Drivers/STM32F4xx_HAL_Driver/Src/stm32f4xx_hal_uart.c ****   */
 616:Drivers/STM32F4xx_HAL_Driver/Src/stm32f4xx_hal_uart.c **** HAL_StatusTypeDef HAL_UART_Transmit(UART_HandleTypeDef *huart, uint8_t *pData, uint16_t Size, uint3
 617:Drivers/STM32F4xx_HAL_Driver/Src/stm32f4xx_hal_uart.c **** {
 718              		.loc 1 617 0
 719              		.cfi_startproc
 720              		@ args = 0, pretend = 0, frame = 24
 721              		@ frame_needed = 1, uses_anonymous_args = 0
 722 0000 80B5     		push	{r7, lr}
 723              	.LCFI37:
 724              		.cfi_def_cfa_offset 8
 725              		.cfi_offset 7, -8
 726              		.cfi_offset 14, -4
 727 0002 88B0     		sub	sp, sp, #32
 728              	.LCFI38:
 729              		.cfi_def_cfa_offset 40
 730 0004 02AF     		add	r7, sp, #8
 731              	.LCFI39:
 732              		.cfi_def_cfa 7, 32
 733 0006 F860     		str	r0, [r7, #12]
 734 0008 B960     		str	r1, [r7, #8]
 735 000a 3B60     		str	r3, [r7]
 736 000c 1346     		mov	r3, r2	@ movhi
 737 000e FB80     		strh	r3, [r7, #6]	@ movhi
 618:Drivers/STM32F4xx_HAL_Driver/Src/stm32f4xx_hal_uart.c ****   uint16_t* tmp;
 619:Drivers/STM32F4xx_HAL_Driver/Src/stm32f4xx_hal_uart.c ****   uint32_t tickstart = 0U;
 738              		.loc 1 619 0
 739 0010 0023     		movs	r3, #0
 740 0012 7B61     		str	r3, [r7, #20]
 620:Drivers/STM32F4xx_HAL_Driver/Src/stm32f4xx_hal_uart.c ****   
 621:Drivers/STM32F4xx_HAL_Driver/Src/stm32f4xx_hal_uart.c ****   /* Check that a Tx process is not already ongoing */
 622:Drivers/STM32F4xx_HAL_Driver/Src/stm32f4xx_hal_uart.c ****   if(huart->gState == HAL_UART_STATE_READY) 
 741              		.loc 1 622 0
 742 0014 FB68     		ldr	r3, [r7, #12]
 743 0016 93F83930 		ldrb	r3, [r3, #57]
 744 001a DBB2     		uxtb	r3, r3
 745 001c 202B     		cmp	r3, #32
 746 001e 40F08280 		bne	.L23
 623:Drivers/STM32F4xx_HAL_Driver/Src/stm32f4xx_hal_uart.c ****   {
 624:Drivers/STM32F4xx_HAL_Driver/Src/stm32f4xx_hal_uart.c ****     if((pData == NULL ) || (Size == 0)) 
 747              		.loc 1 624 0
 748 0022 BB68     		ldr	r3, [r7, #8]
 749 0024 002B     		cmp	r3, #0
 750 0026 02D0     		beq	.L24
 751              		.loc 1 624 0 is_stmt 0 discriminator 1
 752 0028 FB88     		ldrh	r3, [r7, #6]
 753 002a 002B     		cmp	r3, #0
 754 002c 01D1     		bne	.L25
 755              	.L24:
 625:Drivers/STM32F4xx_HAL_Driver/Src/stm32f4xx_hal_uart.c ****     {
 626:Drivers/STM32F4xx_HAL_Driver/Src/stm32f4xx_hal_uart.c ****       return  HAL_ERROR;
 756              		.loc 1 626 0 is_stmt 1
 757 002e 0123     		movs	r3, #1
ARM GAS  /tmp/ccLJIDLw.s 			page 25


 758 0030 7AE0     		b	.L26
 759              	.L25:
 627:Drivers/STM32F4xx_HAL_Driver/Src/stm32f4xx_hal_uart.c ****     }
 628:Drivers/STM32F4xx_HAL_Driver/Src/stm32f4xx_hal_uart.c ****     
 629:Drivers/STM32F4xx_HAL_Driver/Src/stm32f4xx_hal_uart.c ****     /* Process Locked */
 630:Drivers/STM32F4xx_HAL_Driver/Src/stm32f4xx_hal_uart.c ****     __HAL_LOCK(huart);
 760              		.loc 1 630 0
 761 0032 FB68     		ldr	r3, [r7, #12]
 762 0034 93F83830 		ldrb	r3, [r3, #56]	@ zero_extendqisi2
 763 0038 012B     		cmp	r3, #1
 764 003a 01D1     		bne	.L27
 765              		.loc 1 630 0 is_stmt 0 discriminator 1
 766 003c 0223     		movs	r3, #2
 767 003e 73E0     		b	.L26
 768              	.L27:
 769              		.loc 1 630 0 discriminator 2
 770 0040 FB68     		ldr	r3, [r7, #12]
 771 0042 0122     		movs	r2, #1
 772 0044 83F83820 		strb	r2, [r3, #56]
 631:Drivers/STM32F4xx_HAL_Driver/Src/stm32f4xx_hal_uart.c ****     
 632:Drivers/STM32F4xx_HAL_Driver/Src/stm32f4xx_hal_uart.c ****     huart->ErrorCode = HAL_UART_ERROR_NONE;
 773              		.loc 1 632 0 is_stmt 1 discriminator 2
 774 0048 FB68     		ldr	r3, [r7, #12]
 775 004a 0022     		movs	r2, #0
 776 004c DA63     		str	r2, [r3, #60]
 633:Drivers/STM32F4xx_HAL_Driver/Src/stm32f4xx_hal_uart.c ****     huart->gState = HAL_UART_STATE_BUSY_TX;
 777              		.loc 1 633 0 discriminator 2
 778 004e FB68     		ldr	r3, [r7, #12]
 779 0050 2122     		movs	r2, #33
 780 0052 83F83920 		strb	r2, [r3, #57]
 634:Drivers/STM32F4xx_HAL_Driver/Src/stm32f4xx_hal_uart.c **** 	
 635:Drivers/STM32F4xx_HAL_Driver/Src/stm32f4xx_hal_uart.c ****     /* Init tickstart for timeout managment */
 636:Drivers/STM32F4xx_HAL_Driver/Src/stm32f4xx_hal_uart.c ****     tickstart = HAL_GetTick();
 781              		.loc 1 636 0 discriminator 2
 782 0056 FFF7FEFF 		bl	HAL_GetTick
 783 005a 7861     		str	r0, [r7, #20]
 637:Drivers/STM32F4xx_HAL_Driver/Src/stm32f4xx_hal_uart.c **** 
 638:Drivers/STM32F4xx_HAL_Driver/Src/stm32f4xx_hal_uart.c ****     huart->TxXferSize = Size;
 784              		.loc 1 638 0 discriminator 2
 785 005c FB68     		ldr	r3, [r7, #12]
 786 005e FA88     		ldrh	r2, [r7, #6]	@ movhi
 787 0060 9A84     		strh	r2, [r3, #36]	@ movhi
 639:Drivers/STM32F4xx_HAL_Driver/Src/stm32f4xx_hal_uart.c ****     huart->TxXferCount = Size;
 788              		.loc 1 639 0 discriminator 2
 789 0062 FB68     		ldr	r3, [r7, #12]
 790 0064 FA88     		ldrh	r2, [r7, #6]	@ movhi
 791 0066 DA84     		strh	r2, [r3, #38]	@ movhi
 640:Drivers/STM32F4xx_HAL_Driver/Src/stm32f4xx_hal_uart.c ****     while(huart->TxXferCount > 0U)
 792              		.loc 1 640 0 discriminator 2
 793 0068 41E0     		b	.L28
 794              	.L34:
 641:Drivers/STM32F4xx_HAL_Driver/Src/stm32f4xx_hal_uart.c ****     {
 642:Drivers/STM32F4xx_HAL_Driver/Src/stm32f4xx_hal_uart.c ****       huart->TxXferCount--;
 795              		.loc 1 642 0
 796 006a FB68     		ldr	r3, [r7, #12]
 797 006c DB8C     		ldrh	r3, [r3, #38]	@ movhi
 798 006e 9BB2     		uxth	r3, r3
ARM GAS  /tmp/ccLJIDLw.s 			page 26


 799 0070 013B     		subs	r3, r3, #1
 800 0072 9AB2     		uxth	r2, r3
 801 0074 FB68     		ldr	r3, [r7, #12]
 802 0076 DA84     		strh	r2, [r3, #38]	@ movhi
 643:Drivers/STM32F4xx_HAL_Driver/Src/stm32f4xx_hal_uart.c ****       if(huart->Init.WordLength == UART_WORDLENGTH_9B)
 803              		.loc 1 643 0
 804 0078 FB68     		ldr	r3, [r7, #12]
 805 007a 9B68     		ldr	r3, [r3, #8]
 806 007c B3F5805F 		cmp	r3, #4096
 807 0080 21D1     		bne	.L29
 644:Drivers/STM32F4xx_HAL_Driver/Src/stm32f4xx_hal_uart.c ****       {
 645:Drivers/STM32F4xx_HAL_Driver/Src/stm32f4xx_hal_uart.c ****         if(UART_WaitOnFlagUntilTimeout(huart, UART_FLAG_TXE, RESET, tickstart, Timeout) != HAL_OK)
 808              		.loc 1 645 0
 809 0082 3B68     		ldr	r3, [r7]
 810 0084 0093     		str	r3, [sp]
 811 0086 7B69     		ldr	r3, [r7, #20]
 812 0088 0022     		movs	r2, #0
 813 008a 8021     		movs	r1, #128
 814 008c F868     		ldr	r0, [r7, #12]
 815 008e FFF7FEFF 		bl	UART_WaitOnFlagUntilTimeout
 816 0092 0346     		mov	r3, r0
 817 0094 002B     		cmp	r3, #0
 818 0096 01D0     		beq	.L30
 646:Drivers/STM32F4xx_HAL_Driver/Src/stm32f4xx_hal_uart.c ****         { 
 647:Drivers/STM32F4xx_HAL_Driver/Src/stm32f4xx_hal_uart.c ****           return HAL_TIMEOUT;
 819              		.loc 1 647 0
 820 0098 0323     		movs	r3, #3
 821 009a 45E0     		b	.L26
 822              	.L30:
 648:Drivers/STM32F4xx_HAL_Driver/Src/stm32f4xx_hal_uart.c ****         }
 649:Drivers/STM32F4xx_HAL_Driver/Src/stm32f4xx_hal_uart.c ****         tmp = (uint16_t*) pData;
 823              		.loc 1 649 0
 824 009c BB68     		ldr	r3, [r7, #8]
 825 009e 3B61     		str	r3, [r7, #16]
 650:Drivers/STM32F4xx_HAL_Driver/Src/stm32f4xx_hal_uart.c ****         huart->Instance->DR = (*tmp & (uint16_t)0x01FF);
 826              		.loc 1 650 0
 827 00a0 FB68     		ldr	r3, [r7, #12]
 828 00a2 1B68     		ldr	r3, [r3]
 829 00a4 3A69     		ldr	r2, [r7, #16]
 830 00a6 1288     		ldrh	r2, [r2]
 831 00a8 C2F30802 		ubfx	r2, r2, #0, #9
 832 00ac 5A60     		str	r2, [r3, #4]
 651:Drivers/STM32F4xx_HAL_Driver/Src/stm32f4xx_hal_uart.c ****         if(huart->Init.Parity == UART_PARITY_NONE)
 833              		.loc 1 651 0
 834 00ae FB68     		ldr	r3, [r7, #12]
 835 00b0 1B69     		ldr	r3, [r3, #16]
 836 00b2 002B     		cmp	r3, #0
 837 00b4 03D1     		bne	.L31
 652:Drivers/STM32F4xx_HAL_Driver/Src/stm32f4xx_hal_uart.c ****         {
 653:Drivers/STM32F4xx_HAL_Driver/Src/stm32f4xx_hal_uart.c ****           pData +=2U;
 838              		.loc 1 653 0
 839 00b6 BB68     		ldr	r3, [r7, #8]
 840 00b8 0233     		adds	r3, r3, #2
 841 00ba BB60     		str	r3, [r7, #8]
 842 00bc 17E0     		b	.L28
 843              	.L31:
 654:Drivers/STM32F4xx_HAL_Driver/Src/stm32f4xx_hal_uart.c ****         }
ARM GAS  /tmp/ccLJIDLw.s 			page 27


 655:Drivers/STM32F4xx_HAL_Driver/Src/stm32f4xx_hal_uart.c ****         else
 656:Drivers/STM32F4xx_HAL_Driver/Src/stm32f4xx_hal_uart.c ****         { 
 657:Drivers/STM32F4xx_HAL_Driver/Src/stm32f4xx_hal_uart.c ****           pData +=1U;
 844              		.loc 1 657 0
 845 00be BB68     		ldr	r3, [r7, #8]
 846 00c0 0133     		adds	r3, r3, #1
 847 00c2 BB60     		str	r3, [r7, #8]
 848 00c4 13E0     		b	.L28
 849              	.L29:
 658:Drivers/STM32F4xx_HAL_Driver/Src/stm32f4xx_hal_uart.c ****         }
 659:Drivers/STM32F4xx_HAL_Driver/Src/stm32f4xx_hal_uart.c ****       } 
 660:Drivers/STM32F4xx_HAL_Driver/Src/stm32f4xx_hal_uart.c ****       else
 661:Drivers/STM32F4xx_HAL_Driver/Src/stm32f4xx_hal_uart.c ****       {
 662:Drivers/STM32F4xx_HAL_Driver/Src/stm32f4xx_hal_uart.c ****         if(UART_WaitOnFlagUntilTimeout(huart, UART_FLAG_TXE, RESET, tickstart, Timeout) != HAL_OK)
 850              		.loc 1 662 0
 851 00c6 3B68     		ldr	r3, [r7]
 852 00c8 0093     		str	r3, [sp]
 853 00ca 7B69     		ldr	r3, [r7, #20]
 854 00cc 0022     		movs	r2, #0
 855 00ce 8021     		movs	r1, #128
 856 00d0 F868     		ldr	r0, [r7, #12]
 857 00d2 FFF7FEFF 		bl	UART_WaitOnFlagUntilTimeout
 858 00d6 0346     		mov	r3, r0
 859 00d8 002B     		cmp	r3, #0
 860 00da 01D0     		beq	.L33
 663:Drivers/STM32F4xx_HAL_Driver/Src/stm32f4xx_hal_uart.c ****         {
 664:Drivers/STM32F4xx_HAL_Driver/Src/stm32f4xx_hal_uart.c ****           return HAL_TIMEOUT;
 861              		.loc 1 664 0
 862 00dc 0323     		movs	r3, #3
 863 00de 23E0     		b	.L26
 864              	.L33:
 665:Drivers/STM32F4xx_HAL_Driver/Src/stm32f4xx_hal_uart.c ****         }
 666:Drivers/STM32F4xx_HAL_Driver/Src/stm32f4xx_hal_uart.c ****         huart->Instance->DR = (*pData++ & (uint8_t)0xFF);
 865              		.loc 1 666 0
 866 00e0 FB68     		ldr	r3, [r7, #12]
 867 00e2 1A68     		ldr	r2, [r3]
 868 00e4 BB68     		ldr	r3, [r7, #8]
 869 00e6 591C     		adds	r1, r3, #1
 870 00e8 B960     		str	r1, [r7, #8]
 871 00ea 1B78     		ldrb	r3, [r3]	@ zero_extendqisi2
 872 00ec 5360     		str	r3, [r2, #4]
 873              	.L28:
 640:Drivers/STM32F4xx_HAL_Driver/Src/stm32f4xx_hal_uart.c ****     {
 874              		.loc 1 640 0
 875 00ee FB68     		ldr	r3, [r7, #12]
 876 00f0 DB8C     		ldrh	r3, [r3, #38]	@ movhi
 877 00f2 9BB2     		uxth	r3, r3
 878 00f4 002B     		cmp	r3, #0
 879 00f6 B8D1     		bne	.L34
 667:Drivers/STM32F4xx_HAL_Driver/Src/stm32f4xx_hal_uart.c ****       } 
 668:Drivers/STM32F4xx_HAL_Driver/Src/stm32f4xx_hal_uart.c ****     }
 669:Drivers/STM32F4xx_HAL_Driver/Src/stm32f4xx_hal_uart.c ****     
 670:Drivers/STM32F4xx_HAL_Driver/Src/stm32f4xx_hal_uart.c ****     if(UART_WaitOnFlagUntilTimeout(huart, UART_FLAG_TC, RESET, tickstart, Timeout) != HAL_OK)
 880              		.loc 1 670 0
 881 00f8 3B68     		ldr	r3, [r7]
 882 00fa 0093     		str	r3, [sp]
 883 00fc 7B69     		ldr	r3, [r7, #20]
ARM GAS  /tmp/ccLJIDLw.s 			page 28


 884 00fe 0022     		movs	r2, #0
 885 0100 4021     		movs	r1, #64
 886 0102 F868     		ldr	r0, [r7, #12]
 887 0104 FFF7FEFF 		bl	UART_WaitOnFlagUntilTimeout
 888 0108 0346     		mov	r3, r0
 889 010a 002B     		cmp	r3, #0
 890 010c 01D0     		beq	.L35
 671:Drivers/STM32F4xx_HAL_Driver/Src/stm32f4xx_hal_uart.c ****     { 
 672:Drivers/STM32F4xx_HAL_Driver/Src/stm32f4xx_hal_uart.c ****       return HAL_TIMEOUT;
 891              		.loc 1 672 0
 892 010e 0323     		movs	r3, #3
 893 0110 0AE0     		b	.L26
 894              	.L35:
 673:Drivers/STM32F4xx_HAL_Driver/Src/stm32f4xx_hal_uart.c ****     }
 674:Drivers/STM32F4xx_HAL_Driver/Src/stm32f4xx_hal_uart.c ****     
 675:Drivers/STM32F4xx_HAL_Driver/Src/stm32f4xx_hal_uart.c ****     /* At end of Tx process, restore huart->gState to Ready */
 676:Drivers/STM32F4xx_HAL_Driver/Src/stm32f4xx_hal_uart.c ****       huart->gState = HAL_UART_STATE_READY;
 895              		.loc 1 676 0
 896 0112 FB68     		ldr	r3, [r7, #12]
 897 0114 2022     		movs	r2, #32
 898 0116 83F83920 		strb	r2, [r3, #57]
 677:Drivers/STM32F4xx_HAL_Driver/Src/stm32f4xx_hal_uart.c ****     
 678:Drivers/STM32F4xx_HAL_Driver/Src/stm32f4xx_hal_uart.c ****     /* Process Unlocked */
 679:Drivers/STM32F4xx_HAL_Driver/Src/stm32f4xx_hal_uart.c ****     __HAL_UNLOCK(huart);
 899              		.loc 1 679 0
 900 011a FB68     		ldr	r3, [r7, #12]
 901 011c 0022     		movs	r2, #0
 902 011e 83F83820 		strb	r2, [r3, #56]
 680:Drivers/STM32F4xx_HAL_Driver/Src/stm32f4xx_hal_uart.c ****     
 681:Drivers/STM32F4xx_HAL_Driver/Src/stm32f4xx_hal_uart.c ****     return HAL_OK;
 903              		.loc 1 681 0
 904 0122 0023     		movs	r3, #0
 905 0124 00E0     		b	.L26
 906              	.L23:
 682:Drivers/STM32F4xx_HAL_Driver/Src/stm32f4xx_hal_uart.c ****   }
 683:Drivers/STM32F4xx_HAL_Driver/Src/stm32f4xx_hal_uart.c ****   else
 684:Drivers/STM32F4xx_HAL_Driver/Src/stm32f4xx_hal_uart.c ****   {
 685:Drivers/STM32F4xx_HAL_Driver/Src/stm32f4xx_hal_uart.c ****     return HAL_BUSY;
 907              		.loc 1 685 0
 908 0126 0223     		movs	r3, #2
 909              	.L26:
 686:Drivers/STM32F4xx_HAL_Driver/Src/stm32f4xx_hal_uart.c ****   }
 687:Drivers/STM32F4xx_HAL_Driver/Src/stm32f4xx_hal_uart.c **** }
 910              		.loc 1 687 0
 911 0128 1846     		mov	r0, r3
 912 012a 1837     		adds	r7, r7, #24
 913              	.LCFI40:
 914              		.cfi_def_cfa_offset 8
 915 012c BD46     		mov	sp, r7
 916              	.LCFI41:
 917              		.cfi_def_cfa_register 13
 918              		@ sp needed
 919 012e 80BD     		pop	{r7, pc}
 920              		.cfi_endproc
 921              	.LFE131:
 923              		.section	.text.HAL_UART_Receive,"ax",%progbits
 924              		.align	1
ARM GAS  /tmp/ccLJIDLw.s 			page 29


 925              		.global	HAL_UART_Receive
 926              		.syntax unified
 927              		.thumb
 928              		.thumb_func
 929              		.fpu fpv4-sp-d16
 931              	HAL_UART_Receive:
 932              	.LFB132:
 688:Drivers/STM32F4xx_HAL_Driver/Src/stm32f4xx_hal_uart.c **** 
 689:Drivers/STM32F4xx_HAL_Driver/Src/stm32f4xx_hal_uart.c **** /**
 690:Drivers/STM32F4xx_HAL_Driver/Src/stm32f4xx_hal_uart.c ****   * @brief  Receives an amount of data in blocking mode. 
 691:Drivers/STM32F4xx_HAL_Driver/Src/stm32f4xx_hal_uart.c ****   * @param  huart pointer to a UART_HandleTypeDef structure that contains
 692:Drivers/STM32F4xx_HAL_Driver/Src/stm32f4xx_hal_uart.c ****   *                the configuration information for the specified UART module.
 693:Drivers/STM32F4xx_HAL_Driver/Src/stm32f4xx_hal_uart.c ****   * @param  pData Pointer to data buffer
 694:Drivers/STM32F4xx_HAL_Driver/Src/stm32f4xx_hal_uart.c ****   * @param  Size Amount of data to be received
 695:Drivers/STM32F4xx_HAL_Driver/Src/stm32f4xx_hal_uart.c ****   * @param  Timeout Timeout duration
 696:Drivers/STM32F4xx_HAL_Driver/Src/stm32f4xx_hal_uart.c ****   * @retval HAL status
 697:Drivers/STM32F4xx_HAL_Driver/Src/stm32f4xx_hal_uart.c ****   */
 698:Drivers/STM32F4xx_HAL_Driver/Src/stm32f4xx_hal_uart.c **** HAL_StatusTypeDef HAL_UART_Receive(UART_HandleTypeDef *huart, uint8_t *pData, uint16_t Size, uint32
 699:Drivers/STM32F4xx_HAL_Driver/Src/stm32f4xx_hal_uart.c **** { 
 933              		.loc 1 699 0
 934              		.cfi_startproc
 935              		@ args = 0, pretend = 0, frame = 24
 936              		@ frame_needed = 1, uses_anonymous_args = 0
 937 0000 80B5     		push	{r7, lr}
 938              	.LCFI42:
 939              		.cfi_def_cfa_offset 8
 940              		.cfi_offset 7, -8
 941              		.cfi_offset 14, -4
 942 0002 88B0     		sub	sp, sp, #32
 943              	.LCFI43:
 944              		.cfi_def_cfa_offset 40
 945 0004 02AF     		add	r7, sp, #8
 946              	.LCFI44:
 947              		.cfi_def_cfa 7, 32
 948 0006 F860     		str	r0, [r7, #12]
 949 0008 B960     		str	r1, [r7, #8]
 950 000a 3B60     		str	r3, [r7]
 951 000c 1346     		mov	r3, r2	@ movhi
 952 000e FB80     		strh	r3, [r7, #6]	@ movhi
 700:Drivers/STM32F4xx_HAL_Driver/Src/stm32f4xx_hal_uart.c ****   uint16_t* tmp;
 701:Drivers/STM32F4xx_HAL_Driver/Src/stm32f4xx_hal_uart.c ****   uint32_t tickstart = 0U;
 953              		.loc 1 701 0
 954 0010 0023     		movs	r3, #0
 955 0012 7B61     		str	r3, [r7, #20]
 702:Drivers/STM32F4xx_HAL_Driver/Src/stm32f4xx_hal_uart.c ****   
 703:Drivers/STM32F4xx_HAL_Driver/Src/stm32f4xx_hal_uart.c ****   /* Check that a Rx process is not already ongoing */
 704:Drivers/STM32F4xx_HAL_Driver/Src/stm32f4xx_hal_uart.c ****   if(huart->RxState == HAL_UART_STATE_READY) 
 956              		.loc 1 704 0
 957 0014 FB68     		ldr	r3, [r7, #12]
 958 0016 93F83A30 		ldrb	r3, [r3, #58]
 959 001a DBB2     		uxtb	r3, r3
 960 001c 202B     		cmp	r3, #32
 961 001e 40F09080 		bne	.L37
 705:Drivers/STM32F4xx_HAL_Driver/Src/stm32f4xx_hal_uart.c ****   { 
 706:Drivers/STM32F4xx_HAL_Driver/Src/stm32f4xx_hal_uart.c ****     if((pData == NULL ) || (Size == 0)) 
 962              		.loc 1 706 0
 963 0022 BB68     		ldr	r3, [r7, #8]
ARM GAS  /tmp/ccLJIDLw.s 			page 30


 964 0024 002B     		cmp	r3, #0
 965 0026 02D0     		beq	.L38
 966              		.loc 1 706 0 is_stmt 0 discriminator 1
 967 0028 FB88     		ldrh	r3, [r7, #6]
 968 002a 002B     		cmp	r3, #0
 969 002c 01D1     		bne	.L39
 970              	.L38:
 707:Drivers/STM32F4xx_HAL_Driver/Src/stm32f4xx_hal_uart.c ****     {
 708:Drivers/STM32F4xx_HAL_Driver/Src/stm32f4xx_hal_uart.c ****       return  HAL_ERROR;
 971              		.loc 1 708 0 is_stmt 1
 972 002e 0123     		movs	r3, #1
 973 0030 88E0     		b	.L40
 974              	.L39:
 709:Drivers/STM32F4xx_HAL_Driver/Src/stm32f4xx_hal_uart.c ****     }
 710:Drivers/STM32F4xx_HAL_Driver/Src/stm32f4xx_hal_uart.c ****     
 711:Drivers/STM32F4xx_HAL_Driver/Src/stm32f4xx_hal_uart.c ****     /* Process Locked */
 712:Drivers/STM32F4xx_HAL_Driver/Src/stm32f4xx_hal_uart.c ****     __HAL_LOCK(huart);
 975              		.loc 1 712 0
 976 0032 FB68     		ldr	r3, [r7, #12]
 977 0034 93F83830 		ldrb	r3, [r3, #56]	@ zero_extendqisi2
 978 0038 012B     		cmp	r3, #1
 979 003a 01D1     		bne	.L41
 980              		.loc 1 712 0 is_stmt 0 discriminator 1
 981 003c 0223     		movs	r3, #2
 982 003e 81E0     		b	.L40
 983              	.L41:
 984              		.loc 1 712 0 discriminator 2
 985 0040 FB68     		ldr	r3, [r7, #12]
 986 0042 0122     		movs	r2, #1
 987 0044 83F83820 		strb	r2, [r3, #56]
 713:Drivers/STM32F4xx_HAL_Driver/Src/stm32f4xx_hal_uart.c ****     
 714:Drivers/STM32F4xx_HAL_Driver/Src/stm32f4xx_hal_uart.c ****     huart->ErrorCode = HAL_UART_ERROR_NONE;
 988              		.loc 1 714 0 is_stmt 1 discriminator 2
 989 0048 FB68     		ldr	r3, [r7, #12]
 990 004a 0022     		movs	r2, #0
 991 004c DA63     		str	r2, [r3, #60]
 715:Drivers/STM32F4xx_HAL_Driver/Src/stm32f4xx_hal_uart.c ****     huart->RxState = HAL_UART_STATE_BUSY_RX;
 992              		.loc 1 715 0 discriminator 2
 993 004e FB68     		ldr	r3, [r7, #12]
 994 0050 2222     		movs	r2, #34
 995 0052 83F83A20 		strb	r2, [r3, #58]
 716:Drivers/STM32F4xx_HAL_Driver/Src/stm32f4xx_hal_uart.c **** 	
 717:Drivers/STM32F4xx_HAL_Driver/Src/stm32f4xx_hal_uart.c ****     /* Init tickstart for timeout managment */
 718:Drivers/STM32F4xx_HAL_Driver/Src/stm32f4xx_hal_uart.c ****     tickstart = HAL_GetTick();
 996              		.loc 1 718 0 discriminator 2
 997 0056 FFF7FEFF 		bl	HAL_GetTick
 998 005a 7861     		str	r0, [r7, #20]
 719:Drivers/STM32F4xx_HAL_Driver/Src/stm32f4xx_hal_uart.c ****         
 720:Drivers/STM32F4xx_HAL_Driver/Src/stm32f4xx_hal_uart.c ****     huart->RxXferSize = Size; 
 999              		.loc 1 720 0 discriminator 2
 1000 005c FB68     		ldr	r3, [r7, #12]
 1001 005e FA88     		ldrh	r2, [r7, #6]	@ movhi
 1002 0060 9A85     		strh	r2, [r3, #44]	@ movhi
 721:Drivers/STM32F4xx_HAL_Driver/Src/stm32f4xx_hal_uart.c ****     huart->RxXferCount = Size;
 1003              		.loc 1 721 0 discriminator 2
 1004 0062 FB68     		ldr	r3, [r7, #12]
 1005 0064 FA88     		ldrh	r2, [r7, #6]	@ movhi
ARM GAS  /tmp/ccLJIDLw.s 			page 31


 1006 0066 DA85     		strh	r2, [r3, #46]	@ movhi
 722:Drivers/STM32F4xx_HAL_Driver/Src/stm32f4xx_hal_uart.c ****     
 723:Drivers/STM32F4xx_HAL_Driver/Src/stm32f4xx_hal_uart.c ****     /* Check the remain data to be received */
 724:Drivers/STM32F4xx_HAL_Driver/Src/stm32f4xx_hal_uart.c ****     while(huart->RxXferCount > 0U)
 1007              		.loc 1 724 0 discriminator 2
 1008 0068 5CE0     		b	.L42
 1009              	.L49:
 725:Drivers/STM32F4xx_HAL_Driver/Src/stm32f4xx_hal_uart.c ****     {
 726:Drivers/STM32F4xx_HAL_Driver/Src/stm32f4xx_hal_uart.c ****       huart->RxXferCount--;
 1010              		.loc 1 726 0
 1011 006a FB68     		ldr	r3, [r7, #12]
 1012 006c DB8D     		ldrh	r3, [r3, #46]	@ movhi
 1013 006e 9BB2     		uxth	r3, r3
 1014 0070 013B     		subs	r3, r3, #1
 1015 0072 9AB2     		uxth	r2, r3
 1016 0074 FB68     		ldr	r3, [r7, #12]
 1017 0076 DA85     		strh	r2, [r3, #46]	@ movhi
 727:Drivers/STM32F4xx_HAL_Driver/Src/stm32f4xx_hal_uart.c ****       if(huart->Init.WordLength == UART_WORDLENGTH_9B)
 1018              		.loc 1 727 0
 1019 0078 FB68     		ldr	r3, [r7, #12]
 1020 007a 9B68     		ldr	r3, [r3, #8]
 1021 007c B3F5805F 		cmp	r3, #4096
 1022 0080 2BD1     		bne	.L43
 728:Drivers/STM32F4xx_HAL_Driver/Src/stm32f4xx_hal_uart.c ****       {
 729:Drivers/STM32F4xx_HAL_Driver/Src/stm32f4xx_hal_uart.c ****         if(UART_WaitOnFlagUntilTimeout(huart, UART_FLAG_RXNE, RESET, tickstart, Timeout) != HAL_OK)
 1023              		.loc 1 729 0
 1024 0082 3B68     		ldr	r3, [r7]
 1025 0084 0093     		str	r3, [sp]
 1026 0086 7B69     		ldr	r3, [r7, #20]
 1027 0088 0022     		movs	r2, #0
 1028 008a 2021     		movs	r1, #32
 1029 008c F868     		ldr	r0, [r7, #12]
 1030 008e FFF7FEFF 		bl	UART_WaitOnFlagUntilTimeout
 1031 0092 0346     		mov	r3, r0
 1032 0094 002B     		cmp	r3, #0
 1033 0096 01D0     		beq	.L44
 730:Drivers/STM32F4xx_HAL_Driver/Src/stm32f4xx_hal_uart.c ****         { 
 731:Drivers/STM32F4xx_HAL_Driver/Src/stm32f4xx_hal_uart.c ****           return HAL_TIMEOUT;
 1034              		.loc 1 731 0
 1035 0098 0323     		movs	r3, #3
 1036 009a 53E0     		b	.L40
 1037              	.L44:
 732:Drivers/STM32F4xx_HAL_Driver/Src/stm32f4xx_hal_uart.c ****         }
 733:Drivers/STM32F4xx_HAL_Driver/Src/stm32f4xx_hal_uart.c ****         tmp = (uint16_t*) pData;
 1038              		.loc 1 733 0
 1039 009c BB68     		ldr	r3, [r7, #8]
 1040 009e 3B61     		str	r3, [r7, #16]
 734:Drivers/STM32F4xx_HAL_Driver/Src/stm32f4xx_hal_uart.c ****         if(huart->Init.Parity == UART_PARITY_NONE)
 1041              		.loc 1 734 0
 1042 00a0 FB68     		ldr	r3, [r7, #12]
 1043 00a2 1B69     		ldr	r3, [r3, #16]
 1044 00a4 002B     		cmp	r3, #0
 1045 00a6 0CD1     		bne	.L45
 735:Drivers/STM32F4xx_HAL_Driver/Src/stm32f4xx_hal_uart.c ****         {
 736:Drivers/STM32F4xx_HAL_Driver/Src/stm32f4xx_hal_uart.c ****           *tmp = (uint16_t)(huart->Instance->DR & (uint16_t)0x01FF);
 1046              		.loc 1 736 0
 1047 00a8 FB68     		ldr	r3, [r7, #12]
ARM GAS  /tmp/ccLJIDLw.s 			page 32


 1048 00aa 1B68     		ldr	r3, [r3]
 1049 00ac 5B68     		ldr	r3, [r3, #4]
 1050 00ae 9BB2     		uxth	r3, r3
 1051 00b0 C3F30803 		ubfx	r3, r3, #0, #9
 1052 00b4 9AB2     		uxth	r2, r3
 1053 00b6 3B69     		ldr	r3, [r7, #16]
 1054 00b8 1A80     		strh	r2, [r3]	@ movhi
 737:Drivers/STM32F4xx_HAL_Driver/Src/stm32f4xx_hal_uart.c ****           pData +=2U;
 1055              		.loc 1 737 0
 1056 00ba BB68     		ldr	r3, [r7, #8]
 1057 00bc 0233     		adds	r3, r3, #2
 1058 00be BB60     		str	r3, [r7, #8]
 1059 00c0 30E0     		b	.L42
 1060              	.L45:
 738:Drivers/STM32F4xx_HAL_Driver/Src/stm32f4xx_hal_uart.c ****         }
 739:Drivers/STM32F4xx_HAL_Driver/Src/stm32f4xx_hal_uart.c ****         else
 740:Drivers/STM32F4xx_HAL_Driver/Src/stm32f4xx_hal_uart.c ****         {
 741:Drivers/STM32F4xx_HAL_Driver/Src/stm32f4xx_hal_uart.c ****           *tmp = (uint16_t)(huart->Instance->DR & (uint16_t)0x00FF);
 1061              		.loc 1 741 0
 1062 00c2 FB68     		ldr	r3, [r7, #12]
 1063 00c4 1B68     		ldr	r3, [r3]
 1064 00c6 5B68     		ldr	r3, [r3, #4]
 1065 00c8 9BB2     		uxth	r3, r3
 1066 00ca DBB2     		uxtb	r3, r3
 1067 00cc 9AB2     		uxth	r2, r3
 1068 00ce 3B69     		ldr	r3, [r7, #16]
 1069 00d0 1A80     		strh	r2, [r3]	@ movhi
 742:Drivers/STM32F4xx_HAL_Driver/Src/stm32f4xx_hal_uart.c ****           pData +=1U;
 1070              		.loc 1 742 0
 1071 00d2 BB68     		ldr	r3, [r7, #8]
 1072 00d4 0133     		adds	r3, r3, #1
 1073 00d6 BB60     		str	r3, [r7, #8]
 1074 00d8 24E0     		b	.L42
 1075              	.L43:
 743:Drivers/STM32F4xx_HAL_Driver/Src/stm32f4xx_hal_uart.c ****         }
 744:Drivers/STM32F4xx_HAL_Driver/Src/stm32f4xx_hal_uart.c **** 
 745:Drivers/STM32F4xx_HAL_Driver/Src/stm32f4xx_hal_uart.c ****       } 
 746:Drivers/STM32F4xx_HAL_Driver/Src/stm32f4xx_hal_uart.c ****       else
 747:Drivers/STM32F4xx_HAL_Driver/Src/stm32f4xx_hal_uart.c ****       {
 748:Drivers/STM32F4xx_HAL_Driver/Src/stm32f4xx_hal_uart.c ****         if(UART_WaitOnFlagUntilTimeout(huart, UART_FLAG_RXNE, RESET, tickstart, Timeout) != HAL_OK)
 1076              		.loc 1 748 0
 1077 00da 3B68     		ldr	r3, [r7]
 1078 00dc 0093     		str	r3, [sp]
 1079 00de 7B69     		ldr	r3, [r7, #20]
 1080 00e0 0022     		movs	r2, #0
 1081 00e2 2021     		movs	r1, #32
 1082 00e4 F868     		ldr	r0, [r7, #12]
 1083 00e6 FFF7FEFF 		bl	UART_WaitOnFlagUntilTimeout
 1084 00ea 0346     		mov	r3, r0
 1085 00ec 002B     		cmp	r3, #0
 1086 00ee 01D0     		beq	.L47
 749:Drivers/STM32F4xx_HAL_Driver/Src/stm32f4xx_hal_uart.c ****         { 
 750:Drivers/STM32F4xx_HAL_Driver/Src/stm32f4xx_hal_uart.c ****           return HAL_TIMEOUT;
 1087              		.loc 1 750 0
 1088 00f0 0323     		movs	r3, #3
 1089 00f2 27E0     		b	.L40
 1090              	.L47:
ARM GAS  /tmp/ccLJIDLw.s 			page 33


 751:Drivers/STM32F4xx_HAL_Driver/Src/stm32f4xx_hal_uart.c ****         }
 752:Drivers/STM32F4xx_HAL_Driver/Src/stm32f4xx_hal_uart.c ****         if(huart->Init.Parity == UART_PARITY_NONE)
 1091              		.loc 1 752 0
 1092 00f4 FB68     		ldr	r3, [r7, #12]
 1093 00f6 1B69     		ldr	r3, [r3, #16]
 1094 00f8 002B     		cmp	r3, #0
 1095 00fa 08D1     		bne	.L48
 753:Drivers/STM32F4xx_HAL_Driver/Src/stm32f4xx_hal_uart.c ****         {
 754:Drivers/STM32F4xx_HAL_Driver/Src/stm32f4xx_hal_uart.c ****           *pData++ = (uint8_t)(huart->Instance->DR & (uint8_t)0x00FF);
 1096              		.loc 1 754 0
 1097 00fc BB68     		ldr	r3, [r7, #8]
 1098 00fe 5A1C     		adds	r2, r3, #1
 1099 0100 BA60     		str	r2, [r7, #8]
 1100 0102 FA68     		ldr	r2, [r7, #12]
 1101 0104 1268     		ldr	r2, [r2]
 1102 0106 5268     		ldr	r2, [r2, #4]
 1103 0108 D2B2     		uxtb	r2, r2
 1104 010a 1A70     		strb	r2, [r3]
 1105 010c 0AE0     		b	.L42
 1106              	.L48:
 755:Drivers/STM32F4xx_HAL_Driver/Src/stm32f4xx_hal_uart.c ****         }
 756:Drivers/STM32F4xx_HAL_Driver/Src/stm32f4xx_hal_uart.c ****         else
 757:Drivers/STM32F4xx_HAL_Driver/Src/stm32f4xx_hal_uart.c ****         {
 758:Drivers/STM32F4xx_HAL_Driver/Src/stm32f4xx_hal_uart.c ****           *pData++ = (uint8_t)(huart->Instance->DR & (uint8_t)0x007F);
 1107              		.loc 1 758 0
 1108 010e BB68     		ldr	r3, [r7, #8]
 1109 0110 5A1C     		adds	r2, r3, #1
 1110 0112 BA60     		str	r2, [r7, #8]
 1111 0114 FA68     		ldr	r2, [r7, #12]
 1112 0116 1268     		ldr	r2, [r2]
 1113 0118 5268     		ldr	r2, [r2, #4]
 1114 011a D2B2     		uxtb	r2, r2
 1115 011c 02F07F02 		and	r2, r2, #127
 1116 0120 D2B2     		uxtb	r2, r2
 1117 0122 1A70     		strb	r2, [r3]
 1118              	.L42:
 724:Drivers/STM32F4xx_HAL_Driver/Src/stm32f4xx_hal_uart.c ****     {
 1119              		.loc 1 724 0
 1120 0124 FB68     		ldr	r3, [r7, #12]
 1121 0126 DB8D     		ldrh	r3, [r3, #46]	@ movhi
 1122 0128 9BB2     		uxth	r3, r3
 1123 012a 002B     		cmp	r3, #0
 1124 012c 9DD1     		bne	.L49
 759:Drivers/STM32F4xx_HAL_Driver/Src/stm32f4xx_hal_uart.c ****         }
 760:Drivers/STM32F4xx_HAL_Driver/Src/stm32f4xx_hal_uart.c ****         
 761:Drivers/STM32F4xx_HAL_Driver/Src/stm32f4xx_hal_uart.c ****       }
 762:Drivers/STM32F4xx_HAL_Driver/Src/stm32f4xx_hal_uart.c ****     }
 763:Drivers/STM32F4xx_HAL_Driver/Src/stm32f4xx_hal_uart.c ****     
 764:Drivers/STM32F4xx_HAL_Driver/Src/stm32f4xx_hal_uart.c ****     /* At end of Rx process, restore huart->RxState to Ready */
 765:Drivers/STM32F4xx_HAL_Driver/Src/stm32f4xx_hal_uart.c ****     huart->RxState = HAL_UART_STATE_READY;
 1125              		.loc 1 765 0
 1126 012e FB68     		ldr	r3, [r7, #12]
 1127 0130 2022     		movs	r2, #32
 1128 0132 83F83A20 		strb	r2, [r3, #58]
 766:Drivers/STM32F4xx_HAL_Driver/Src/stm32f4xx_hal_uart.c ****     
 767:Drivers/STM32F4xx_HAL_Driver/Src/stm32f4xx_hal_uart.c ****     /* Process Unlocked */
 768:Drivers/STM32F4xx_HAL_Driver/Src/stm32f4xx_hal_uart.c ****     __HAL_UNLOCK(huart);
ARM GAS  /tmp/ccLJIDLw.s 			page 34


 1129              		.loc 1 768 0
 1130 0136 FB68     		ldr	r3, [r7, #12]
 1131 0138 0022     		movs	r2, #0
 1132 013a 83F83820 		strb	r2, [r3, #56]
 769:Drivers/STM32F4xx_HAL_Driver/Src/stm32f4xx_hal_uart.c ****     
 770:Drivers/STM32F4xx_HAL_Driver/Src/stm32f4xx_hal_uart.c ****     return HAL_OK;
 1133              		.loc 1 770 0
 1134 013e 0023     		movs	r3, #0
 1135 0140 00E0     		b	.L40
 1136              	.L37:
 771:Drivers/STM32F4xx_HAL_Driver/Src/stm32f4xx_hal_uart.c ****   }
 772:Drivers/STM32F4xx_HAL_Driver/Src/stm32f4xx_hal_uart.c ****   else
 773:Drivers/STM32F4xx_HAL_Driver/Src/stm32f4xx_hal_uart.c ****   {
 774:Drivers/STM32F4xx_HAL_Driver/Src/stm32f4xx_hal_uart.c ****     return HAL_BUSY;   
 1137              		.loc 1 774 0
 1138 0142 0223     		movs	r3, #2
 1139              	.L40:
 775:Drivers/STM32F4xx_HAL_Driver/Src/stm32f4xx_hal_uart.c ****   }
 776:Drivers/STM32F4xx_HAL_Driver/Src/stm32f4xx_hal_uart.c **** }
 1140              		.loc 1 776 0
 1141 0144 1846     		mov	r0, r3
 1142 0146 1837     		adds	r7, r7, #24
 1143              	.LCFI45:
 1144              		.cfi_def_cfa_offset 8
 1145 0148 BD46     		mov	sp, r7
 1146              	.LCFI46:
 1147              		.cfi_def_cfa_register 13
 1148              		@ sp needed
 1149 014a 80BD     		pop	{r7, pc}
 1150              		.cfi_endproc
 1151              	.LFE132:
 1153              		.section	.text.HAL_UART_Transmit_IT,"ax",%progbits
 1154              		.align	1
 1155              		.global	HAL_UART_Transmit_IT
 1156              		.syntax unified
 1157              		.thumb
 1158              		.thumb_func
 1159              		.fpu fpv4-sp-d16
 1161              	HAL_UART_Transmit_IT:
 1162              	.LFB133:
 777:Drivers/STM32F4xx_HAL_Driver/Src/stm32f4xx_hal_uart.c **** 
 778:Drivers/STM32F4xx_HAL_Driver/Src/stm32f4xx_hal_uart.c **** /**
 779:Drivers/STM32F4xx_HAL_Driver/Src/stm32f4xx_hal_uart.c ****   * @brief  Sends an amount of data in non blocking mode.
 780:Drivers/STM32F4xx_HAL_Driver/Src/stm32f4xx_hal_uart.c ****   * @param  huart pointer to a UART_HandleTypeDef structure that contains
 781:Drivers/STM32F4xx_HAL_Driver/Src/stm32f4xx_hal_uart.c ****   *                the configuration information for the specified UART module.
 782:Drivers/STM32F4xx_HAL_Driver/Src/stm32f4xx_hal_uart.c ****   * @param  pData Pointer to data buffer
 783:Drivers/STM32F4xx_HAL_Driver/Src/stm32f4xx_hal_uart.c ****   * @param  Size Amount of data to be sent
 784:Drivers/STM32F4xx_HAL_Driver/Src/stm32f4xx_hal_uart.c ****   * @retval HAL status
 785:Drivers/STM32F4xx_HAL_Driver/Src/stm32f4xx_hal_uart.c ****   */
 786:Drivers/STM32F4xx_HAL_Driver/Src/stm32f4xx_hal_uart.c **** HAL_StatusTypeDef HAL_UART_Transmit_IT(UART_HandleTypeDef *huart, uint8_t *pData, uint16_t Size)
 787:Drivers/STM32F4xx_HAL_Driver/Src/stm32f4xx_hal_uart.c **** {
 1163              		.loc 1 787 0
 1164              		.cfi_startproc
 1165              		@ args = 0, pretend = 0, frame = 16
 1166              		@ frame_needed = 1, uses_anonymous_args = 0
 1167              		@ link register save eliminated.
 1168 0000 80B4     		push	{r7}
ARM GAS  /tmp/ccLJIDLw.s 			page 35


 1169              	.LCFI47:
 1170              		.cfi_def_cfa_offset 4
 1171              		.cfi_offset 7, -4
 1172 0002 85B0     		sub	sp, sp, #20
 1173              	.LCFI48:
 1174              		.cfi_def_cfa_offset 24
 1175 0004 00AF     		add	r7, sp, #0
 1176              	.LCFI49:
 1177              		.cfi_def_cfa_register 7
 1178 0006 F860     		str	r0, [r7, #12]
 1179 0008 B960     		str	r1, [r7, #8]
 1180 000a 1346     		mov	r3, r2
 1181 000c FB80     		strh	r3, [r7, #6]	@ movhi
 788:Drivers/STM32F4xx_HAL_Driver/Src/stm32f4xx_hal_uart.c ****   /* Check that a Tx process is not already ongoing */
 789:Drivers/STM32F4xx_HAL_Driver/Src/stm32f4xx_hal_uart.c ****   if(huart->gState == HAL_UART_STATE_READY)
 1182              		.loc 1 789 0
 1183 000e FB68     		ldr	r3, [r7, #12]
 1184 0010 93F83930 		ldrb	r3, [r3, #57]
 1185 0014 DBB2     		uxtb	r3, r3
 1186 0016 202B     		cmp	r3, #32
 1187 0018 30D1     		bne	.L51
 790:Drivers/STM32F4xx_HAL_Driver/Src/stm32f4xx_hal_uart.c ****   {
 791:Drivers/STM32F4xx_HAL_Driver/Src/stm32f4xx_hal_uart.c ****     if((pData == NULL ) || (Size == 0)) 
 1188              		.loc 1 791 0
 1189 001a BB68     		ldr	r3, [r7, #8]
 1190 001c 002B     		cmp	r3, #0
 1191 001e 02D0     		beq	.L52
 1192              		.loc 1 791 0 is_stmt 0 discriminator 1
 1193 0020 FB88     		ldrh	r3, [r7, #6]
 1194 0022 002B     		cmp	r3, #0
 1195 0024 01D1     		bne	.L53
 1196              	.L52:
 792:Drivers/STM32F4xx_HAL_Driver/Src/stm32f4xx_hal_uart.c ****     {
 793:Drivers/STM32F4xx_HAL_Driver/Src/stm32f4xx_hal_uart.c ****       return HAL_ERROR;
 1197              		.loc 1 793 0 is_stmt 1
 1198 0026 0123     		movs	r3, #1
 1199 0028 29E0     		b	.L54
 1200              	.L53:
 794:Drivers/STM32F4xx_HAL_Driver/Src/stm32f4xx_hal_uart.c ****     }
 795:Drivers/STM32F4xx_HAL_Driver/Src/stm32f4xx_hal_uart.c ****     
 796:Drivers/STM32F4xx_HAL_Driver/Src/stm32f4xx_hal_uart.c ****     /* Process Locked */
 797:Drivers/STM32F4xx_HAL_Driver/Src/stm32f4xx_hal_uart.c ****     __HAL_LOCK(huart);
 1201              		.loc 1 797 0
 1202 002a FB68     		ldr	r3, [r7, #12]
 1203 002c 93F83830 		ldrb	r3, [r3, #56]	@ zero_extendqisi2
 1204 0030 012B     		cmp	r3, #1
 1205 0032 01D1     		bne	.L55
 1206              		.loc 1 797 0 is_stmt 0 discriminator 1
 1207 0034 0223     		movs	r3, #2
 1208 0036 22E0     		b	.L54
 1209              	.L55:
 1210              		.loc 1 797 0 discriminator 2
 1211 0038 FB68     		ldr	r3, [r7, #12]
 1212 003a 0122     		movs	r2, #1
 1213 003c 83F83820 		strb	r2, [r3, #56]
 798:Drivers/STM32F4xx_HAL_Driver/Src/stm32f4xx_hal_uart.c ****     
 799:Drivers/STM32F4xx_HAL_Driver/Src/stm32f4xx_hal_uart.c ****     huart->pTxBuffPtr = pData;
ARM GAS  /tmp/ccLJIDLw.s 			page 36


 1214              		.loc 1 799 0 is_stmt 1 discriminator 2
 1215 0040 FB68     		ldr	r3, [r7, #12]
 1216 0042 BA68     		ldr	r2, [r7, #8]
 1217 0044 1A62     		str	r2, [r3, #32]
 800:Drivers/STM32F4xx_HAL_Driver/Src/stm32f4xx_hal_uart.c ****     huart->TxXferSize = Size;
 1218              		.loc 1 800 0 discriminator 2
 1219 0046 FB68     		ldr	r3, [r7, #12]
 1220 0048 FA88     		ldrh	r2, [r7, #6]	@ movhi
 1221 004a 9A84     		strh	r2, [r3, #36]	@ movhi
 801:Drivers/STM32F4xx_HAL_Driver/Src/stm32f4xx_hal_uart.c ****     huart->TxXferCount = Size;
 1222              		.loc 1 801 0 discriminator 2
 1223 004c FB68     		ldr	r3, [r7, #12]
 1224 004e FA88     		ldrh	r2, [r7, #6]	@ movhi
 1225 0050 DA84     		strh	r2, [r3, #38]	@ movhi
 802:Drivers/STM32F4xx_HAL_Driver/Src/stm32f4xx_hal_uart.c **** 
 803:Drivers/STM32F4xx_HAL_Driver/Src/stm32f4xx_hal_uart.c ****     huart->ErrorCode = HAL_UART_ERROR_NONE;
 1226              		.loc 1 803 0 discriminator 2
 1227 0052 FB68     		ldr	r3, [r7, #12]
 1228 0054 0022     		movs	r2, #0
 1229 0056 DA63     		str	r2, [r3, #60]
 804:Drivers/STM32F4xx_HAL_Driver/Src/stm32f4xx_hal_uart.c ****     huart->gState = HAL_UART_STATE_BUSY_TX;
 1230              		.loc 1 804 0 discriminator 2
 1231 0058 FB68     		ldr	r3, [r7, #12]
 1232 005a 2122     		movs	r2, #33
 1233 005c 83F83920 		strb	r2, [r3, #57]
 805:Drivers/STM32F4xx_HAL_Driver/Src/stm32f4xx_hal_uart.c **** 
 806:Drivers/STM32F4xx_HAL_Driver/Src/stm32f4xx_hal_uart.c ****     /* Process Unlocked */
 807:Drivers/STM32F4xx_HAL_Driver/Src/stm32f4xx_hal_uart.c ****     __HAL_UNLOCK(huart);
 1234              		.loc 1 807 0 discriminator 2
 1235 0060 FB68     		ldr	r3, [r7, #12]
 1236 0062 0022     		movs	r2, #0
 1237 0064 83F83820 		strb	r2, [r3, #56]
 808:Drivers/STM32F4xx_HAL_Driver/Src/stm32f4xx_hal_uart.c **** 
 809:Drivers/STM32F4xx_HAL_Driver/Src/stm32f4xx_hal_uart.c ****     /* Enable the UART Transmit data register empty Interrupt */
 810:Drivers/STM32F4xx_HAL_Driver/Src/stm32f4xx_hal_uart.c ****     SET_BIT(huart->Instance->CR1, USART_CR1_TXEIE);
 1238              		.loc 1 810 0 discriminator 2
 1239 0068 FB68     		ldr	r3, [r7, #12]
 1240 006a 1B68     		ldr	r3, [r3]
 1241 006c FA68     		ldr	r2, [r7, #12]
 1242 006e 1268     		ldr	r2, [r2]
 1243 0070 D268     		ldr	r2, [r2, #12]
 1244 0072 42F08002 		orr	r2, r2, #128
 1245 0076 DA60     		str	r2, [r3, #12]
 811:Drivers/STM32F4xx_HAL_Driver/Src/stm32f4xx_hal_uart.c ****     
 812:Drivers/STM32F4xx_HAL_Driver/Src/stm32f4xx_hal_uart.c ****     return HAL_OK;
 1246              		.loc 1 812 0 discriminator 2
 1247 0078 0023     		movs	r3, #0
 1248 007a 00E0     		b	.L54
 1249              	.L51:
 813:Drivers/STM32F4xx_HAL_Driver/Src/stm32f4xx_hal_uart.c ****   }
 814:Drivers/STM32F4xx_HAL_Driver/Src/stm32f4xx_hal_uart.c ****   else
 815:Drivers/STM32F4xx_HAL_Driver/Src/stm32f4xx_hal_uart.c ****   {
 816:Drivers/STM32F4xx_HAL_Driver/Src/stm32f4xx_hal_uart.c ****     return HAL_BUSY;   
 1250              		.loc 1 816 0
 1251 007c 0223     		movs	r3, #2
 1252              	.L54:
 817:Drivers/STM32F4xx_HAL_Driver/Src/stm32f4xx_hal_uart.c ****   }
ARM GAS  /tmp/ccLJIDLw.s 			page 37


 818:Drivers/STM32F4xx_HAL_Driver/Src/stm32f4xx_hal_uart.c **** }
 1253              		.loc 1 818 0
 1254 007e 1846     		mov	r0, r3
 1255 0080 1437     		adds	r7, r7, #20
 1256              	.LCFI50:
 1257              		.cfi_def_cfa_offset 4
 1258 0082 BD46     		mov	sp, r7
 1259              	.LCFI51:
 1260              		.cfi_def_cfa_register 13
 1261              		@ sp needed
 1262 0084 5DF8047B 		ldr	r7, [sp], #4
 1263              	.LCFI52:
 1264              		.cfi_restore 7
 1265              		.cfi_def_cfa_offset 0
 1266 0088 7047     		bx	lr
 1267              		.cfi_endproc
 1268              	.LFE133:
 1270              		.section	.text.HAL_UART_Receive_IT,"ax",%progbits
 1271              		.align	1
 1272              		.global	HAL_UART_Receive_IT
 1273              		.syntax unified
 1274              		.thumb
 1275              		.thumb_func
 1276              		.fpu fpv4-sp-d16
 1278              	HAL_UART_Receive_IT:
 1279              	.LFB134:
 819:Drivers/STM32F4xx_HAL_Driver/Src/stm32f4xx_hal_uart.c **** 
 820:Drivers/STM32F4xx_HAL_Driver/Src/stm32f4xx_hal_uart.c **** /**
 821:Drivers/STM32F4xx_HAL_Driver/Src/stm32f4xx_hal_uart.c ****   * @brief  Receives an amount of data in non blocking mode 
 822:Drivers/STM32F4xx_HAL_Driver/Src/stm32f4xx_hal_uart.c ****   * @param  huart pointer to a UART_HandleTypeDef structure that contains
 823:Drivers/STM32F4xx_HAL_Driver/Src/stm32f4xx_hal_uart.c ****   *                the configuration information for the specified UART module.
 824:Drivers/STM32F4xx_HAL_Driver/Src/stm32f4xx_hal_uart.c ****   * @param  pData Pointer to data buffer
 825:Drivers/STM32F4xx_HAL_Driver/Src/stm32f4xx_hal_uart.c ****   * @param  Size Amount of data to be received
 826:Drivers/STM32F4xx_HAL_Driver/Src/stm32f4xx_hal_uart.c ****   * @retval HAL status
 827:Drivers/STM32F4xx_HAL_Driver/Src/stm32f4xx_hal_uart.c ****   */
 828:Drivers/STM32F4xx_HAL_Driver/Src/stm32f4xx_hal_uart.c **** HAL_StatusTypeDef HAL_UART_Receive_IT(UART_HandleTypeDef *huart, uint8_t *pData, uint16_t Size)
 829:Drivers/STM32F4xx_HAL_Driver/Src/stm32f4xx_hal_uart.c **** {
 1280              		.loc 1 829 0
 1281              		.cfi_startproc
 1282              		@ args = 0, pretend = 0, frame = 16
 1283              		@ frame_needed = 1, uses_anonymous_args = 0
 1284              		@ link register save eliminated.
 1285 0000 80B4     		push	{r7}
 1286              	.LCFI53:
 1287              		.cfi_def_cfa_offset 4
 1288              		.cfi_offset 7, -4
 1289 0002 85B0     		sub	sp, sp, #20
 1290              	.LCFI54:
 1291              		.cfi_def_cfa_offset 24
 1292 0004 00AF     		add	r7, sp, #0
 1293              	.LCFI55:
 1294              		.cfi_def_cfa_register 7
 1295 0006 F860     		str	r0, [r7, #12]
 1296 0008 B960     		str	r1, [r7, #8]
 1297 000a 1346     		mov	r3, r2
 1298 000c FB80     		strh	r3, [r7, #6]	@ movhi
 830:Drivers/STM32F4xx_HAL_Driver/Src/stm32f4xx_hal_uart.c ****   /* Check that a Rx process is not already ongoing */ 
ARM GAS  /tmp/ccLJIDLw.s 			page 38


 831:Drivers/STM32F4xx_HAL_Driver/Src/stm32f4xx_hal_uart.c ****   if(huart->RxState == HAL_UART_STATE_READY)
 1299              		.loc 1 831 0
 1300 000e FB68     		ldr	r3, [r7, #12]
 1301 0010 93F83A30 		ldrb	r3, [r3, #58]
 1302 0014 DBB2     		uxtb	r3, r3
 1303 0016 202B     		cmp	r3, #32
 1304 0018 38D1     		bne	.L57
 832:Drivers/STM32F4xx_HAL_Driver/Src/stm32f4xx_hal_uart.c ****   {
 833:Drivers/STM32F4xx_HAL_Driver/Src/stm32f4xx_hal_uart.c ****     if((pData == NULL ) || (Size == 0)) 
 1305              		.loc 1 833 0
 1306 001a BB68     		ldr	r3, [r7, #8]
 1307 001c 002B     		cmp	r3, #0
 1308 001e 02D0     		beq	.L58
 1309              		.loc 1 833 0 is_stmt 0 discriminator 1
 1310 0020 FB88     		ldrh	r3, [r7, #6]
 1311 0022 002B     		cmp	r3, #0
 1312 0024 01D1     		bne	.L59
 1313              	.L58:
 834:Drivers/STM32F4xx_HAL_Driver/Src/stm32f4xx_hal_uart.c ****     {
 835:Drivers/STM32F4xx_HAL_Driver/Src/stm32f4xx_hal_uart.c ****       return HAL_ERROR;
 1314              		.loc 1 835 0 is_stmt 1
 1315 0026 0123     		movs	r3, #1
 1316 0028 31E0     		b	.L60
 1317              	.L59:
 836:Drivers/STM32F4xx_HAL_Driver/Src/stm32f4xx_hal_uart.c ****     }
 837:Drivers/STM32F4xx_HAL_Driver/Src/stm32f4xx_hal_uart.c ****     
 838:Drivers/STM32F4xx_HAL_Driver/Src/stm32f4xx_hal_uart.c ****     /* Process Locked */
 839:Drivers/STM32F4xx_HAL_Driver/Src/stm32f4xx_hal_uart.c ****     __HAL_LOCK(huart);
 1318              		.loc 1 839 0
 1319 002a FB68     		ldr	r3, [r7, #12]
 1320 002c 93F83830 		ldrb	r3, [r3, #56]	@ zero_extendqisi2
 1321 0030 012B     		cmp	r3, #1
 1322 0032 01D1     		bne	.L61
 1323              		.loc 1 839 0 is_stmt 0 discriminator 1
 1324 0034 0223     		movs	r3, #2
 1325 0036 2AE0     		b	.L60
 1326              	.L61:
 1327              		.loc 1 839 0 discriminator 2
 1328 0038 FB68     		ldr	r3, [r7, #12]
 1329 003a 0122     		movs	r2, #1
 1330 003c 83F83820 		strb	r2, [r3, #56]
 840:Drivers/STM32F4xx_HAL_Driver/Src/stm32f4xx_hal_uart.c ****     
 841:Drivers/STM32F4xx_HAL_Driver/Src/stm32f4xx_hal_uart.c ****     huart->pRxBuffPtr = pData;
 1331              		.loc 1 841 0 is_stmt 1 discriminator 2
 1332 0040 FB68     		ldr	r3, [r7, #12]
 1333 0042 BA68     		ldr	r2, [r7, #8]
 1334 0044 9A62     		str	r2, [r3, #40]
 842:Drivers/STM32F4xx_HAL_Driver/Src/stm32f4xx_hal_uart.c ****     huart->RxXferSize = Size;
 1335              		.loc 1 842 0 discriminator 2
 1336 0046 FB68     		ldr	r3, [r7, #12]
 1337 0048 FA88     		ldrh	r2, [r7, #6]	@ movhi
 1338 004a 9A85     		strh	r2, [r3, #44]	@ movhi
 843:Drivers/STM32F4xx_HAL_Driver/Src/stm32f4xx_hal_uart.c ****     huart->RxXferCount = Size;
 1339              		.loc 1 843 0 discriminator 2
 1340 004c FB68     		ldr	r3, [r7, #12]
 1341 004e FA88     		ldrh	r2, [r7, #6]	@ movhi
 1342 0050 DA85     		strh	r2, [r3, #46]	@ movhi
ARM GAS  /tmp/ccLJIDLw.s 			page 39


 844:Drivers/STM32F4xx_HAL_Driver/Src/stm32f4xx_hal_uart.c ****     
 845:Drivers/STM32F4xx_HAL_Driver/Src/stm32f4xx_hal_uart.c ****     huart->ErrorCode = HAL_UART_ERROR_NONE;
 1343              		.loc 1 845 0 discriminator 2
 1344 0052 FB68     		ldr	r3, [r7, #12]
 1345 0054 0022     		movs	r2, #0
 1346 0056 DA63     		str	r2, [r3, #60]
 846:Drivers/STM32F4xx_HAL_Driver/Src/stm32f4xx_hal_uart.c ****     huart->RxState = HAL_UART_STATE_BUSY_RX;
 1347              		.loc 1 846 0 discriminator 2
 1348 0058 FB68     		ldr	r3, [r7, #12]
 1349 005a 2222     		movs	r2, #34
 1350 005c 83F83A20 		strb	r2, [r3, #58]
 847:Drivers/STM32F4xx_HAL_Driver/Src/stm32f4xx_hal_uart.c ****     
 848:Drivers/STM32F4xx_HAL_Driver/Src/stm32f4xx_hal_uart.c ****     /* Process Unlocked */
 849:Drivers/STM32F4xx_HAL_Driver/Src/stm32f4xx_hal_uart.c ****     __HAL_UNLOCK(huart);
 1351              		.loc 1 849 0 discriminator 2
 1352 0060 FB68     		ldr	r3, [r7, #12]
 1353 0062 0022     		movs	r2, #0
 1354 0064 83F83820 		strb	r2, [r3, #56]
 850:Drivers/STM32F4xx_HAL_Driver/Src/stm32f4xx_hal_uart.c ****         
 851:Drivers/STM32F4xx_HAL_Driver/Src/stm32f4xx_hal_uart.c ****     /* Enable the UART Error Interrupt: (Frame error, noise error, overrun error) */
 852:Drivers/STM32F4xx_HAL_Driver/Src/stm32f4xx_hal_uart.c ****     SET_BIT(huart->Instance->CR3, USART_CR3_EIE);
 1355              		.loc 1 852 0 discriminator 2
 1356 0068 FB68     		ldr	r3, [r7, #12]
 1357 006a 1B68     		ldr	r3, [r3]
 1358 006c FA68     		ldr	r2, [r7, #12]
 1359 006e 1268     		ldr	r2, [r2]
 1360 0070 5269     		ldr	r2, [r2, #20]
 1361 0072 42F00102 		orr	r2, r2, #1
 1362 0076 5A61     		str	r2, [r3, #20]
 853:Drivers/STM32F4xx_HAL_Driver/Src/stm32f4xx_hal_uart.c **** 
 854:Drivers/STM32F4xx_HAL_Driver/Src/stm32f4xx_hal_uart.c ****     /* Enable the UART Parity Error and Data Register not empty Interrupts */
 855:Drivers/STM32F4xx_HAL_Driver/Src/stm32f4xx_hal_uart.c ****     SET_BIT(huart->Instance->CR1, USART_CR1_PEIE | USART_CR1_RXNEIE);
 1363              		.loc 1 855 0 discriminator 2
 1364 0078 FB68     		ldr	r3, [r7, #12]
 1365 007a 1B68     		ldr	r3, [r3]
 1366 007c FA68     		ldr	r2, [r7, #12]
 1367 007e 1268     		ldr	r2, [r2]
 1368 0080 D268     		ldr	r2, [r2, #12]
 1369 0082 42F49072 		orr	r2, r2, #288
 1370 0086 DA60     		str	r2, [r3, #12]
 856:Drivers/STM32F4xx_HAL_Driver/Src/stm32f4xx_hal_uart.c ****     
 857:Drivers/STM32F4xx_HAL_Driver/Src/stm32f4xx_hal_uart.c ****     return HAL_OK;
 1371              		.loc 1 857 0 discriminator 2
 1372 0088 0023     		movs	r3, #0
 1373 008a 00E0     		b	.L60
 1374              	.L57:
 858:Drivers/STM32F4xx_HAL_Driver/Src/stm32f4xx_hal_uart.c ****   }
 859:Drivers/STM32F4xx_HAL_Driver/Src/stm32f4xx_hal_uart.c ****   else
 860:Drivers/STM32F4xx_HAL_Driver/Src/stm32f4xx_hal_uart.c ****   {
 861:Drivers/STM32F4xx_HAL_Driver/Src/stm32f4xx_hal_uart.c ****     return HAL_BUSY; 
 1375              		.loc 1 861 0
 1376 008c 0223     		movs	r3, #2
 1377              	.L60:
 862:Drivers/STM32F4xx_HAL_Driver/Src/stm32f4xx_hal_uart.c ****   }
 863:Drivers/STM32F4xx_HAL_Driver/Src/stm32f4xx_hal_uart.c **** }
 1378              		.loc 1 863 0
 1379 008e 1846     		mov	r0, r3
ARM GAS  /tmp/ccLJIDLw.s 			page 40


 1380 0090 1437     		adds	r7, r7, #20
 1381              	.LCFI56:
 1382              		.cfi_def_cfa_offset 4
 1383 0092 BD46     		mov	sp, r7
 1384              	.LCFI57:
 1385              		.cfi_def_cfa_register 13
 1386              		@ sp needed
 1387 0094 5DF8047B 		ldr	r7, [sp], #4
 1388              	.LCFI58:
 1389              		.cfi_restore 7
 1390              		.cfi_def_cfa_offset 0
 1391 0098 7047     		bx	lr
 1392              		.cfi_endproc
 1393              	.LFE134:
 1395              		.section	.text.HAL_UART_Transmit_DMA,"ax",%progbits
 1396              		.align	1
 1397              		.global	HAL_UART_Transmit_DMA
 1398              		.syntax unified
 1399              		.thumb
 1400              		.thumb_func
 1401              		.fpu fpv4-sp-d16
 1403              	HAL_UART_Transmit_DMA:
 1404              	.LFB135:
 864:Drivers/STM32F4xx_HAL_Driver/Src/stm32f4xx_hal_uart.c **** 
 865:Drivers/STM32F4xx_HAL_Driver/Src/stm32f4xx_hal_uart.c **** /**
 866:Drivers/STM32F4xx_HAL_Driver/Src/stm32f4xx_hal_uart.c ****   * @brief  Sends an amount of data in non blocking mode. 
 867:Drivers/STM32F4xx_HAL_Driver/Src/stm32f4xx_hal_uart.c ****   * @param  huart pointer to a UART_HandleTypeDef structure that contains
 868:Drivers/STM32F4xx_HAL_Driver/Src/stm32f4xx_hal_uart.c ****   *                the configuration information for the specified UART module.
 869:Drivers/STM32F4xx_HAL_Driver/Src/stm32f4xx_hal_uart.c ****   * @param  pData Pointer to data buffer
 870:Drivers/STM32F4xx_HAL_Driver/Src/stm32f4xx_hal_uart.c ****   * @param  Size Amount of data to be sent
 871:Drivers/STM32F4xx_HAL_Driver/Src/stm32f4xx_hal_uart.c ****   * @retval HAL status
 872:Drivers/STM32F4xx_HAL_Driver/Src/stm32f4xx_hal_uart.c ****   */
 873:Drivers/STM32F4xx_HAL_Driver/Src/stm32f4xx_hal_uart.c **** HAL_StatusTypeDef HAL_UART_Transmit_DMA(UART_HandleTypeDef *huart, uint8_t *pData, uint16_t Size)
 874:Drivers/STM32F4xx_HAL_Driver/Src/stm32f4xx_hal_uart.c **** {
 1405              		.loc 1 874 0
 1406              		.cfi_startproc
 1407              		@ args = 0, pretend = 0, frame = 24
 1408              		@ frame_needed = 1, uses_anonymous_args = 0
 1409 0000 80B5     		push	{r7, lr}
 1410              	.LCFI59:
 1411              		.cfi_def_cfa_offset 8
 1412              		.cfi_offset 7, -8
 1413              		.cfi_offset 14, -4
 1414 0002 86B0     		sub	sp, sp, #24
 1415              	.LCFI60:
 1416              		.cfi_def_cfa_offset 32
 1417 0004 00AF     		add	r7, sp, #0
 1418              	.LCFI61:
 1419              		.cfi_def_cfa_register 7
 1420 0006 F860     		str	r0, [r7, #12]
 1421 0008 B960     		str	r1, [r7, #8]
 1422 000a 1346     		mov	r3, r2
 1423 000c FB80     		strh	r3, [r7, #6]	@ movhi
 875:Drivers/STM32F4xx_HAL_Driver/Src/stm32f4xx_hal_uart.c ****   uint32_t *tmp;
 876:Drivers/STM32F4xx_HAL_Driver/Src/stm32f4xx_hal_uart.c ****   
 877:Drivers/STM32F4xx_HAL_Driver/Src/stm32f4xx_hal_uart.c ****   /* Check that a Tx process is not already ongoing */
 878:Drivers/STM32F4xx_HAL_Driver/Src/stm32f4xx_hal_uart.c ****   if(huart->gState == HAL_UART_STATE_READY)
ARM GAS  /tmp/ccLJIDLw.s 			page 41


 1424              		.loc 1 878 0
 1425 000e FB68     		ldr	r3, [r7, #12]
 1426 0010 93F83930 		ldrb	r3, [r3, #57]
 1427 0014 DBB2     		uxtb	r3, r3
 1428 0016 202B     		cmp	r3, #32
 1429 0018 53D1     		bne	.L63
 879:Drivers/STM32F4xx_HAL_Driver/Src/stm32f4xx_hal_uart.c ****   {
 880:Drivers/STM32F4xx_HAL_Driver/Src/stm32f4xx_hal_uart.c ****     if((pData == NULL ) || (Size == 0))
 1430              		.loc 1 880 0
 1431 001a BB68     		ldr	r3, [r7, #8]
 1432 001c 002B     		cmp	r3, #0
 1433 001e 02D0     		beq	.L64
 1434              		.loc 1 880 0 is_stmt 0 discriminator 1
 1435 0020 FB88     		ldrh	r3, [r7, #6]
 1436 0022 002B     		cmp	r3, #0
 1437 0024 01D1     		bne	.L65
 1438              	.L64:
 881:Drivers/STM32F4xx_HAL_Driver/Src/stm32f4xx_hal_uart.c ****     {
 882:Drivers/STM32F4xx_HAL_Driver/Src/stm32f4xx_hal_uart.c ****       return HAL_ERROR;
 1439              		.loc 1 882 0 is_stmt 1
 1440 0026 0123     		movs	r3, #1
 1441 0028 4CE0     		b	.L66
 1442              	.L65:
 883:Drivers/STM32F4xx_HAL_Driver/Src/stm32f4xx_hal_uart.c ****     }
 884:Drivers/STM32F4xx_HAL_Driver/Src/stm32f4xx_hal_uart.c **** 
 885:Drivers/STM32F4xx_HAL_Driver/Src/stm32f4xx_hal_uart.c ****     /* Process Locked */
 886:Drivers/STM32F4xx_HAL_Driver/Src/stm32f4xx_hal_uart.c ****     __HAL_LOCK(huart);
 1443              		.loc 1 886 0
 1444 002a FB68     		ldr	r3, [r7, #12]
 1445 002c 93F83830 		ldrb	r3, [r3, #56]	@ zero_extendqisi2
 1446 0030 012B     		cmp	r3, #1
 1447 0032 01D1     		bne	.L67
 1448              		.loc 1 886 0 is_stmt 0 discriminator 1
 1449 0034 0223     		movs	r3, #2
 1450 0036 45E0     		b	.L66
 1451              	.L67:
 1452              		.loc 1 886 0 discriminator 2
 1453 0038 FB68     		ldr	r3, [r7, #12]
 1454 003a 0122     		movs	r2, #1
 1455 003c 83F83820 		strb	r2, [r3, #56]
 887:Drivers/STM32F4xx_HAL_Driver/Src/stm32f4xx_hal_uart.c **** 
 888:Drivers/STM32F4xx_HAL_Driver/Src/stm32f4xx_hal_uart.c ****     huart->pTxBuffPtr = pData;
 1456              		.loc 1 888 0 is_stmt 1 discriminator 2
 1457 0040 BA68     		ldr	r2, [r7, #8]
 1458 0042 FB68     		ldr	r3, [r7, #12]
 1459 0044 1A62     		str	r2, [r3, #32]
 889:Drivers/STM32F4xx_HAL_Driver/Src/stm32f4xx_hal_uart.c ****     huart->TxXferSize = Size;
 1460              		.loc 1 889 0 discriminator 2
 1461 0046 FB68     		ldr	r3, [r7, #12]
 1462 0048 FA88     		ldrh	r2, [r7, #6]	@ movhi
 1463 004a 9A84     		strh	r2, [r3, #36]	@ movhi
 890:Drivers/STM32F4xx_HAL_Driver/Src/stm32f4xx_hal_uart.c ****     huart->TxXferCount = Size;
 1464              		.loc 1 890 0 discriminator 2
 1465 004c FB68     		ldr	r3, [r7, #12]
 1466 004e FA88     		ldrh	r2, [r7, #6]	@ movhi
 1467 0050 DA84     		strh	r2, [r3, #38]	@ movhi
 891:Drivers/STM32F4xx_HAL_Driver/Src/stm32f4xx_hal_uart.c **** 
ARM GAS  /tmp/ccLJIDLw.s 			page 42


 892:Drivers/STM32F4xx_HAL_Driver/Src/stm32f4xx_hal_uart.c ****     huart->ErrorCode = HAL_UART_ERROR_NONE;
 1468              		.loc 1 892 0 discriminator 2
 1469 0052 FB68     		ldr	r3, [r7, #12]
 1470 0054 0022     		movs	r2, #0
 1471 0056 DA63     		str	r2, [r3, #60]
 893:Drivers/STM32F4xx_HAL_Driver/Src/stm32f4xx_hal_uart.c ****     huart->gState = HAL_UART_STATE_BUSY_TX;
 1472              		.loc 1 893 0 discriminator 2
 1473 0058 FB68     		ldr	r3, [r7, #12]
 1474 005a 2122     		movs	r2, #33
 1475 005c 83F83920 		strb	r2, [r3, #57]
 894:Drivers/STM32F4xx_HAL_Driver/Src/stm32f4xx_hal_uart.c **** 
 895:Drivers/STM32F4xx_HAL_Driver/Src/stm32f4xx_hal_uart.c ****     /* Set the UART DMA transfer complete callback */
 896:Drivers/STM32F4xx_HAL_Driver/Src/stm32f4xx_hal_uart.c ****     huart->hdmatx->XferCpltCallback = UART_DMATransmitCplt;
 1476              		.loc 1 896 0 discriminator 2
 1477 0060 FB68     		ldr	r3, [r7, #12]
 1478 0062 1B6B     		ldr	r3, [r3, #48]
 1479 0064 194A     		ldr	r2, .L68
 1480 0066 DA63     		str	r2, [r3, #60]
 897:Drivers/STM32F4xx_HAL_Driver/Src/stm32f4xx_hal_uart.c **** 
 898:Drivers/STM32F4xx_HAL_Driver/Src/stm32f4xx_hal_uart.c ****     /* Set the UART DMA Half transfer complete callback */
 899:Drivers/STM32F4xx_HAL_Driver/Src/stm32f4xx_hal_uart.c ****     huart->hdmatx->XferHalfCpltCallback = UART_DMATxHalfCplt;
 1481              		.loc 1 899 0 discriminator 2
 1482 0068 FB68     		ldr	r3, [r7, #12]
 1483 006a 1B6B     		ldr	r3, [r3, #48]
 1484 006c 184A     		ldr	r2, .L68+4
 1485 006e 1A64     		str	r2, [r3, #64]
 900:Drivers/STM32F4xx_HAL_Driver/Src/stm32f4xx_hal_uart.c **** 
 901:Drivers/STM32F4xx_HAL_Driver/Src/stm32f4xx_hal_uart.c ****     /* Set the DMA error callback */
 902:Drivers/STM32F4xx_HAL_Driver/Src/stm32f4xx_hal_uart.c ****     huart->hdmatx->XferErrorCallback = UART_DMAError;
 1486              		.loc 1 902 0 discriminator 2
 1487 0070 FB68     		ldr	r3, [r7, #12]
 1488 0072 1B6B     		ldr	r3, [r3, #48]
 1489 0074 174A     		ldr	r2, .L68+8
 1490 0076 DA64     		str	r2, [r3, #76]
 903:Drivers/STM32F4xx_HAL_Driver/Src/stm32f4xx_hal_uart.c **** 
 904:Drivers/STM32F4xx_HAL_Driver/Src/stm32f4xx_hal_uart.c ****     /* Set the DMA abort callback */
 905:Drivers/STM32F4xx_HAL_Driver/Src/stm32f4xx_hal_uart.c ****     huart->hdmatx->XferAbortCallback = NULL;
 1491              		.loc 1 905 0 discriminator 2
 1492 0078 FB68     		ldr	r3, [r7, #12]
 1493 007a 1B6B     		ldr	r3, [r3, #48]
 1494 007c 0022     		movs	r2, #0
 1495 007e 1A65     		str	r2, [r3, #80]
 906:Drivers/STM32F4xx_HAL_Driver/Src/stm32f4xx_hal_uart.c **** 
 907:Drivers/STM32F4xx_HAL_Driver/Src/stm32f4xx_hal_uart.c ****     /* Enable the UART transmit DMA Stream */
 908:Drivers/STM32F4xx_HAL_Driver/Src/stm32f4xx_hal_uart.c ****     tmp = (uint32_t*)&pData;
 1496              		.loc 1 908 0 discriminator 2
 1497 0080 07F10803 		add	r3, r7, #8
 1498 0084 7B61     		str	r3, [r7, #20]
 909:Drivers/STM32F4xx_HAL_Driver/Src/stm32f4xx_hal_uart.c ****     HAL_DMA_Start_IT(huart->hdmatx, *(uint32_t*)tmp, (uint32_t)&huart->Instance->DR, Size);
 1499              		.loc 1 909 0 discriminator 2
 1500 0086 FB68     		ldr	r3, [r7, #12]
 1501 0088 186B     		ldr	r0, [r3, #48]
 1502 008a 7B69     		ldr	r3, [r7, #20]
 1503 008c 1968     		ldr	r1, [r3]
 1504 008e FB68     		ldr	r3, [r7, #12]
 1505 0090 1B68     		ldr	r3, [r3]
 1506 0092 0433     		adds	r3, r3, #4
ARM GAS  /tmp/ccLJIDLw.s 			page 43


 1507 0094 1A46     		mov	r2, r3
 1508 0096 FB88     		ldrh	r3, [r7, #6]
 1509 0098 FFF7FEFF 		bl	HAL_DMA_Start_IT
 910:Drivers/STM32F4xx_HAL_Driver/Src/stm32f4xx_hal_uart.c ****     
 911:Drivers/STM32F4xx_HAL_Driver/Src/stm32f4xx_hal_uart.c ****     /* Clear the TC flag in the SR register by writing 0 to it */
 912:Drivers/STM32F4xx_HAL_Driver/Src/stm32f4xx_hal_uart.c ****     __HAL_UART_CLEAR_FLAG(huart, UART_FLAG_TC);
 1510              		.loc 1 912 0 discriminator 2
 1511 009c FB68     		ldr	r3, [r7, #12]
 1512 009e 1B68     		ldr	r3, [r3]
 1513 00a0 6FF04002 		mvn	r2, #64
 1514 00a4 1A60     		str	r2, [r3]
 913:Drivers/STM32F4xx_HAL_Driver/Src/stm32f4xx_hal_uart.c ****     
 914:Drivers/STM32F4xx_HAL_Driver/Src/stm32f4xx_hal_uart.c ****     /* Process Unlocked */
 915:Drivers/STM32F4xx_HAL_Driver/Src/stm32f4xx_hal_uart.c ****     __HAL_UNLOCK(huart);
 1515              		.loc 1 915 0 discriminator 2
 1516 00a6 FB68     		ldr	r3, [r7, #12]
 1517 00a8 0022     		movs	r2, #0
 1518 00aa 83F83820 		strb	r2, [r3, #56]
 916:Drivers/STM32F4xx_HAL_Driver/Src/stm32f4xx_hal_uart.c ****     
 917:Drivers/STM32F4xx_HAL_Driver/Src/stm32f4xx_hal_uart.c ****     /* Enable the DMA transfer for transmit request by setting the DMAT bit
 918:Drivers/STM32F4xx_HAL_Driver/Src/stm32f4xx_hal_uart.c ****        in the UART CR3 register */
 919:Drivers/STM32F4xx_HAL_Driver/Src/stm32f4xx_hal_uart.c ****     SET_BIT(huart->Instance->CR3, USART_CR3_DMAT);
 1519              		.loc 1 919 0 discriminator 2
 1520 00ae FB68     		ldr	r3, [r7, #12]
 1521 00b0 1B68     		ldr	r3, [r3]
 1522 00b2 FA68     		ldr	r2, [r7, #12]
 1523 00b4 1268     		ldr	r2, [r2]
 1524 00b6 5269     		ldr	r2, [r2, #20]
 1525 00b8 42F08002 		orr	r2, r2, #128
 1526 00bc 5A61     		str	r2, [r3, #20]
 920:Drivers/STM32F4xx_HAL_Driver/Src/stm32f4xx_hal_uart.c ****     
 921:Drivers/STM32F4xx_HAL_Driver/Src/stm32f4xx_hal_uart.c ****     return HAL_OK;
 1527              		.loc 1 921 0 discriminator 2
 1528 00be 0023     		movs	r3, #0
 1529 00c0 00E0     		b	.L66
 1530              	.L63:
 922:Drivers/STM32F4xx_HAL_Driver/Src/stm32f4xx_hal_uart.c ****   }
 923:Drivers/STM32F4xx_HAL_Driver/Src/stm32f4xx_hal_uart.c ****   else
 924:Drivers/STM32F4xx_HAL_Driver/Src/stm32f4xx_hal_uart.c ****   {
 925:Drivers/STM32F4xx_HAL_Driver/Src/stm32f4xx_hal_uart.c ****     return HAL_BUSY;
 1531              		.loc 1 925 0
 1532 00c2 0223     		movs	r3, #2
 1533              	.L66:
 926:Drivers/STM32F4xx_HAL_Driver/Src/stm32f4xx_hal_uart.c ****   }
 927:Drivers/STM32F4xx_HAL_Driver/Src/stm32f4xx_hal_uart.c **** }
 1534              		.loc 1 927 0
 1535 00c4 1846     		mov	r0, r3
 1536 00c6 1837     		adds	r7, r7, #24
 1537              	.LCFI62:
 1538              		.cfi_def_cfa_offset 8
 1539 00c8 BD46     		mov	sp, r7
 1540              	.LCFI63:
 1541              		.cfi_def_cfa_register 13
 1542              		@ sp needed
 1543 00ca 80BD     		pop	{r7, pc}
 1544              	.L69:
 1545              		.align	2
ARM GAS  /tmp/ccLJIDLw.s 			page 44


 1546              	.L68:
 1547 00cc 00000000 		.word	UART_DMATransmitCplt
 1548 00d0 00000000 		.word	UART_DMATxHalfCplt
 1549 00d4 00000000 		.word	UART_DMAError
 1550              		.cfi_endproc
 1551              	.LFE135:
 1553              		.section	.text.HAL_UART_Receive_DMA,"ax",%progbits
 1554              		.align	1
 1555              		.global	HAL_UART_Receive_DMA
 1556              		.syntax unified
 1557              		.thumb
 1558              		.thumb_func
 1559              		.fpu fpv4-sp-d16
 1561              	HAL_UART_Receive_DMA:
 1562              	.LFB136:
 928:Drivers/STM32F4xx_HAL_Driver/Src/stm32f4xx_hal_uart.c **** 
 929:Drivers/STM32F4xx_HAL_Driver/Src/stm32f4xx_hal_uart.c **** /**
 930:Drivers/STM32F4xx_HAL_Driver/Src/stm32f4xx_hal_uart.c ****   * @brief  Receives an amount of data in non blocking mode. 
 931:Drivers/STM32F4xx_HAL_Driver/Src/stm32f4xx_hal_uart.c ****   * @param  huart pointer to a UART_HandleTypeDef structure that contains
 932:Drivers/STM32F4xx_HAL_Driver/Src/stm32f4xx_hal_uart.c ****   *                the configuration information for the specified UART module.
 933:Drivers/STM32F4xx_HAL_Driver/Src/stm32f4xx_hal_uart.c ****   * @param  pData Pointer to data buffer
 934:Drivers/STM32F4xx_HAL_Driver/Src/stm32f4xx_hal_uart.c ****   * @param  Size Amount of data to be received
 935:Drivers/STM32F4xx_HAL_Driver/Src/stm32f4xx_hal_uart.c ****   * @note   When the UART parity is enabled (PCE = 1) the data received contain the parity bit.
 936:Drivers/STM32F4xx_HAL_Driver/Src/stm32f4xx_hal_uart.c ****   * @retval HAL status
 937:Drivers/STM32F4xx_HAL_Driver/Src/stm32f4xx_hal_uart.c ****   */
 938:Drivers/STM32F4xx_HAL_Driver/Src/stm32f4xx_hal_uart.c **** HAL_StatusTypeDef HAL_UART_Receive_DMA(UART_HandleTypeDef *huart, uint8_t *pData, uint16_t Size)
 939:Drivers/STM32F4xx_HAL_Driver/Src/stm32f4xx_hal_uart.c **** {  
 1563              		.loc 1 939 0
 1564              		.cfi_startproc
 1565              		@ args = 0, pretend = 0, frame = 24
 1566              		@ frame_needed = 1, uses_anonymous_args = 0
 1567 0000 80B5     		push	{r7, lr}
 1568              	.LCFI64:
 1569              		.cfi_def_cfa_offset 8
 1570              		.cfi_offset 7, -8
 1571              		.cfi_offset 14, -4
 1572 0002 86B0     		sub	sp, sp, #24
 1573              	.LCFI65:
 1574              		.cfi_def_cfa_offset 32
 1575 0004 00AF     		add	r7, sp, #0
 1576              	.LCFI66:
 1577              		.cfi_def_cfa_register 7
 1578 0006 F860     		str	r0, [r7, #12]
 1579 0008 B960     		str	r1, [r7, #8]
 1580 000a 1346     		mov	r3, r2
 1581 000c FB80     		strh	r3, [r7, #6]	@ movhi
 940:Drivers/STM32F4xx_HAL_Driver/Src/stm32f4xx_hal_uart.c ****   uint32_t *tmp;
 941:Drivers/STM32F4xx_HAL_Driver/Src/stm32f4xx_hal_uart.c ****   
 942:Drivers/STM32F4xx_HAL_Driver/Src/stm32f4xx_hal_uart.c ****   /* Check that a Rx process is not already ongoing */
 943:Drivers/STM32F4xx_HAL_Driver/Src/stm32f4xx_hal_uart.c ****   if(huart->RxState == HAL_UART_STATE_READY) 
 1582              		.loc 1 943 0
 1583 000e FB68     		ldr	r3, [r7, #12]
 1584 0010 93F83A30 		ldrb	r3, [r3, #58]
 1585 0014 DBB2     		uxtb	r3, r3
 1586 0016 202B     		cmp	r3, #32
 1587 0018 66D1     		bne	.L71
 944:Drivers/STM32F4xx_HAL_Driver/Src/stm32f4xx_hal_uart.c ****   {
ARM GAS  /tmp/ccLJIDLw.s 			page 45


 945:Drivers/STM32F4xx_HAL_Driver/Src/stm32f4xx_hal_uart.c ****     if((pData == NULL ) || (Size == 0)) 
 1588              		.loc 1 945 0
 1589 001a BB68     		ldr	r3, [r7, #8]
 1590 001c 002B     		cmp	r3, #0
 1591 001e 02D0     		beq	.L72
 1592              		.loc 1 945 0 is_stmt 0 discriminator 1
 1593 0020 FB88     		ldrh	r3, [r7, #6]
 1594 0022 002B     		cmp	r3, #0
 1595 0024 01D1     		bne	.L73
 1596              	.L72:
 946:Drivers/STM32F4xx_HAL_Driver/Src/stm32f4xx_hal_uart.c ****     {
 947:Drivers/STM32F4xx_HAL_Driver/Src/stm32f4xx_hal_uart.c ****       return HAL_ERROR;
 1597              		.loc 1 947 0 is_stmt 1
 1598 0026 0123     		movs	r3, #1
 1599 0028 5FE0     		b	.L74
 1600              	.L73:
 948:Drivers/STM32F4xx_HAL_Driver/Src/stm32f4xx_hal_uart.c ****     }
 949:Drivers/STM32F4xx_HAL_Driver/Src/stm32f4xx_hal_uart.c ****     
 950:Drivers/STM32F4xx_HAL_Driver/Src/stm32f4xx_hal_uart.c ****     /* Process Locked */
 951:Drivers/STM32F4xx_HAL_Driver/Src/stm32f4xx_hal_uart.c ****     __HAL_LOCK(huart);
 1601              		.loc 1 951 0
 1602 002a FB68     		ldr	r3, [r7, #12]
 1603 002c 93F83830 		ldrb	r3, [r3, #56]	@ zero_extendqisi2
 1604 0030 012B     		cmp	r3, #1
 1605 0032 01D1     		bne	.L75
 1606              		.loc 1 951 0 is_stmt 0 discriminator 1
 1607 0034 0223     		movs	r3, #2
 1608 0036 58E0     		b	.L74
 1609              	.L75:
 1610              		.loc 1 951 0 discriminator 2
 1611 0038 FB68     		ldr	r3, [r7, #12]
 1612 003a 0122     		movs	r2, #1
 1613 003c 83F83820 		strb	r2, [r3, #56]
 952:Drivers/STM32F4xx_HAL_Driver/Src/stm32f4xx_hal_uart.c ****     
 953:Drivers/STM32F4xx_HAL_Driver/Src/stm32f4xx_hal_uart.c ****     huart->pRxBuffPtr = pData;
 1614              		.loc 1 953 0 is_stmt 1 discriminator 2
 1615 0040 BA68     		ldr	r2, [r7, #8]
 1616 0042 FB68     		ldr	r3, [r7, #12]
 1617 0044 9A62     		str	r2, [r3, #40]
 954:Drivers/STM32F4xx_HAL_Driver/Src/stm32f4xx_hal_uart.c ****     huart->RxXferSize = Size;
 1618              		.loc 1 954 0 discriminator 2
 1619 0046 FB68     		ldr	r3, [r7, #12]
 1620 0048 FA88     		ldrh	r2, [r7, #6]	@ movhi
 1621 004a 9A85     		strh	r2, [r3, #44]	@ movhi
 955:Drivers/STM32F4xx_HAL_Driver/Src/stm32f4xx_hal_uart.c ****     
 956:Drivers/STM32F4xx_HAL_Driver/Src/stm32f4xx_hal_uart.c ****     huart->ErrorCode = HAL_UART_ERROR_NONE;
 1622              		.loc 1 956 0 discriminator 2
 1623 004c FB68     		ldr	r3, [r7, #12]
 1624 004e 0022     		movs	r2, #0
 1625 0050 DA63     		str	r2, [r3, #60]
 957:Drivers/STM32F4xx_HAL_Driver/Src/stm32f4xx_hal_uart.c ****     huart->RxState = HAL_UART_STATE_BUSY_RX;
 1626              		.loc 1 957 0 discriminator 2
 1627 0052 FB68     		ldr	r3, [r7, #12]
 1628 0054 2222     		movs	r2, #34
 1629 0056 83F83A20 		strb	r2, [r3, #58]
 958:Drivers/STM32F4xx_HAL_Driver/Src/stm32f4xx_hal_uart.c ****         
 959:Drivers/STM32F4xx_HAL_Driver/Src/stm32f4xx_hal_uart.c ****     /* Set the UART DMA transfer complete callback */
ARM GAS  /tmp/ccLJIDLw.s 			page 46


 960:Drivers/STM32F4xx_HAL_Driver/Src/stm32f4xx_hal_uart.c ****     huart->hdmarx->XferCpltCallback = UART_DMAReceiveCplt;
 1630              		.loc 1 960 0 discriminator 2
 1631 005a FB68     		ldr	r3, [r7, #12]
 1632 005c 5B6B     		ldr	r3, [r3, #52]
 1633 005e 254A     		ldr	r2, .L76
 1634 0060 DA63     		str	r2, [r3, #60]
 961:Drivers/STM32F4xx_HAL_Driver/Src/stm32f4xx_hal_uart.c ****     
 962:Drivers/STM32F4xx_HAL_Driver/Src/stm32f4xx_hal_uart.c ****     /* Set the UART DMA Half transfer complete callback */
 963:Drivers/STM32F4xx_HAL_Driver/Src/stm32f4xx_hal_uart.c ****     huart->hdmarx->XferHalfCpltCallback = UART_DMARxHalfCplt;
 1635              		.loc 1 963 0 discriminator 2
 1636 0062 FB68     		ldr	r3, [r7, #12]
 1637 0064 5B6B     		ldr	r3, [r3, #52]
 1638 0066 244A     		ldr	r2, .L76+4
 1639 0068 1A64     		str	r2, [r3, #64]
 964:Drivers/STM32F4xx_HAL_Driver/Src/stm32f4xx_hal_uart.c ****     
 965:Drivers/STM32F4xx_HAL_Driver/Src/stm32f4xx_hal_uart.c ****     /* Set the DMA error callback */
 966:Drivers/STM32F4xx_HAL_Driver/Src/stm32f4xx_hal_uart.c ****     huart->hdmarx->XferErrorCallback = UART_DMAError;
 1640              		.loc 1 966 0 discriminator 2
 1641 006a FB68     		ldr	r3, [r7, #12]
 1642 006c 5B6B     		ldr	r3, [r3, #52]
 1643 006e 234A     		ldr	r2, .L76+8
 1644 0070 DA64     		str	r2, [r3, #76]
 967:Drivers/STM32F4xx_HAL_Driver/Src/stm32f4xx_hal_uart.c ****     
 968:Drivers/STM32F4xx_HAL_Driver/Src/stm32f4xx_hal_uart.c ****     /* Set the DMA abort callback */
 969:Drivers/STM32F4xx_HAL_Driver/Src/stm32f4xx_hal_uart.c ****     huart->hdmarx->XferAbortCallback = NULL;
 1645              		.loc 1 969 0 discriminator 2
 1646 0072 FB68     		ldr	r3, [r7, #12]
 1647 0074 5B6B     		ldr	r3, [r3, #52]
 1648 0076 0022     		movs	r2, #0
 1649 0078 1A65     		str	r2, [r3, #80]
 970:Drivers/STM32F4xx_HAL_Driver/Src/stm32f4xx_hal_uart.c **** 
 971:Drivers/STM32F4xx_HAL_Driver/Src/stm32f4xx_hal_uart.c ****     /* Enable the DMA Stream */
 972:Drivers/STM32F4xx_HAL_Driver/Src/stm32f4xx_hal_uart.c ****     tmp = (uint32_t*)&pData;
 1650              		.loc 1 972 0 discriminator 2
 1651 007a 07F10803 		add	r3, r7, #8
 1652 007e 7B61     		str	r3, [r7, #20]
 973:Drivers/STM32F4xx_HAL_Driver/Src/stm32f4xx_hal_uart.c ****     HAL_DMA_Start_IT(huart->hdmarx, (uint32_t)&huart->Instance->DR, *(uint32_t*)tmp, Size);
 1653              		.loc 1 973 0 discriminator 2
 1654 0080 FB68     		ldr	r3, [r7, #12]
 1655 0082 586B     		ldr	r0, [r3, #52]
 1656 0084 FB68     		ldr	r3, [r7, #12]
 1657 0086 1B68     		ldr	r3, [r3]
 1658 0088 0433     		adds	r3, r3, #4
 1659 008a 1946     		mov	r1, r3
 1660 008c 7B69     		ldr	r3, [r7, #20]
 1661 008e 1A68     		ldr	r2, [r3]
 1662 0090 FB88     		ldrh	r3, [r7, #6]
 1663 0092 FFF7FEFF 		bl	HAL_DMA_Start_IT
 1664              	.LBB2:
 974:Drivers/STM32F4xx_HAL_Driver/Src/stm32f4xx_hal_uart.c **** 
 975:Drivers/STM32F4xx_HAL_Driver/Src/stm32f4xx_hal_uart.c ****     /* Clear the Overrun flag just before enabling the DMA Rx request: can be mandatory for the sec
 976:Drivers/STM32F4xx_HAL_Driver/Src/stm32f4xx_hal_uart.c ****     __HAL_UART_CLEAR_OREFLAG(huart);
 1665              		.loc 1 976 0 discriminator 2
 1666 0096 0023     		movs	r3, #0
 1667 0098 3B61     		str	r3, [r7, #16]
 1668 009a FB68     		ldr	r3, [r7, #12]
 1669 009c 1B68     		ldr	r3, [r3]
ARM GAS  /tmp/ccLJIDLw.s 			page 47


 1670 009e 1B68     		ldr	r3, [r3]
 1671 00a0 3B61     		str	r3, [r7, #16]
 1672 00a2 FB68     		ldr	r3, [r7, #12]
 1673 00a4 1B68     		ldr	r3, [r3]
 1674 00a6 5B68     		ldr	r3, [r3, #4]
 1675 00a8 3B61     		str	r3, [r7, #16]
 1676 00aa 3B69     		ldr	r3, [r7, #16]
 1677              	.LBE2:
 977:Drivers/STM32F4xx_HAL_Driver/Src/stm32f4xx_hal_uart.c **** 
 978:Drivers/STM32F4xx_HAL_Driver/Src/stm32f4xx_hal_uart.c ****     /* Process Unlocked */
 979:Drivers/STM32F4xx_HAL_Driver/Src/stm32f4xx_hal_uart.c ****     __HAL_UNLOCK(huart);
 1678              		.loc 1 979 0 discriminator 2
 1679 00ac FB68     		ldr	r3, [r7, #12]
 1680 00ae 0022     		movs	r2, #0
 1681 00b0 83F83820 		strb	r2, [r3, #56]
 980:Drivers/STM32F4xx_HAL_Driver/Src/stm32f4xx_hal_uart.c **** 
 981:Drivers/STM32F4xx_HAL_Driver/Src/stm32f4xx_hal_uart.c ****     /* Enable the UART Parity Error Interrupt */
 982:Drivers/STM32F4xx_HAL_Driver/Src/stm32f4xx_hal_uart.c ****     SET_BIT(huart->Instance->CR1, USART_CR1_PEIE);
 1682              		.loc 1 982 0 discriminator 2
 1683 00b4 FB68     		ldr	r3, [r7, #12]
 1684 00b6 1B68     		ldr	r3, [r3]
 1685 00b8 FA68     		ldr	r2, [r7, #12]
 1686 00ba 1268     		ldr	r2, [r2]
 1687 00bc D268     		ldr	r2, [r2, #12]
 1688 00be 42F48072 		orr	r2, r2, #256
 1689 00c2 DA60     		str	r2, [r3, #12]
 983:Drivers/STM32F4xx_HAL_Driver/Src/stm32f4xx_hal_uart.c **** 
 984:Drivers/STM32F4xx_HAL_Driver/Src/stm32f4xx_hal_uart.c ****     /* Enable the UART Error Interrupt: (Frame error, noise error, overrun error) */
 985:Drivers/STM32F4xx_HAL_Driver/Src/stm32f4xx_hal_uart.c ****     SET_BIT(huart->Instance->CR3, USART_CR3_EIE);
 1690              		.loc 1 985 0 discriminator 2
 1691 00c4 FB68     		ldr	r3, [r7, #12]
 1692 00c6 1B68     		ldr	r3, [r3]
 1693 00c8 FA68     		ldr	r2, [r7, #12]
 1694 00ca 1268     		ldr	r2, [r2]
 1695 00cc 5269     		ldr	r2, [r2, #20]
 1696 00ce 42F00102 		orr	r2, r2, #1
 1697 00d2 5A61     		str	r2, [r3, #20]
 986:Drivers/STM32F4xx_HAL_Driver/Src/stm32f4xx_hal_uart.c ****     
 987:Drivers/STM32F4xx_HAL_Driver/Src/stm32f4xx_hal_uart.c ****     /* Enable the DMA transfer for the receiver request by setting the DMAR bit 
 988:Drivers/STM32F4xx_HAL_Driver/Src/stm32f4xx_hal_uart.c ****     in the UART CR3 register */
 989:Drivers/STM32F4xx_HAL_Driver/Src/stm32f4xx_hal_uart.c ****     SET_BIT(huart->Instance->CR3, USART_CR3_DMAR);
 1698              		.loc 1 989 0 discriminator 2
 1699 00d4 FB68     		ldr	r3, [r7, #12]
 1700 00d6 1B68     		ldr	r3, [r3]
 1701 00d8 FA68     		ldr	r2, [r7, #12]
 1702 00da 1268     		ldr	r2, [r2]
 1703 00dc 5269     		ldr	r2, [r2, #20]
 1704 00de 42F04002 		orr	r2, r2, #64
 1705 00e2 5A61     		str	r2, [r3, #20]
 990:Drivers/STM32F4xx_HAL_Driver/Src/stm32f4xx_hal_uart.c **** 
 991:Drivers/STM32F4xx_HAL_Driver/Src/stm32f4xx_hal_uart.c ****     return HAL_OK;
 1706              		.loc 1 991 0 discriminator 2
 1707 00e4 0023     		movs	r3, #0
 1708 00e6 00E0     		b	.L74
 1709              	.L71:
 992:Drivers/STM32F4xx_HAL_Driver/Src/stm32f4xx_hal_uart.c ****   }
 993:Drivers/STM32F4xx_HAL_Driver/Src/stm32f4xx_hal_uart.c ****   else
ARM GAS  /tmp/ccLJIDLw.s 			page 48


 994:Drivers/STM32F4xx_HAL_Driver/Src/stm32f4xx_hal_uart.c ****   {
 995:Drivers/STM32F4xx_HAL_Driver/Src/stm32f4xx_hal_uart.c ****     return HAL_BUSY; 
 1710              		.loc 1 995 0
 1711 00e8 0223     		movs	r3, #2
 1712              	.L74:
 996:Drivers/STM32F4xx_HAL_Driver/Src/stm32f4xx_hal_uart.c ****   }
 997:Drivers/STM32F4xx_HAL_Driver/Src/stm32f4xx_hal_uart.c **** }
 1713              		.loc 1 997 0
 1714 00ea 1846     		mov	r0, r3
 1715 00ec 1837     		adds	r7, r7, #24
 1716              	.LCFI67:
 1717              		.cfi_def_cfa_offset 8
 1718 00ee BD46     		mov	sp, r7
 1719              	.LCFI68:
 1720              		.cfi_def_cfa_register 13
 1721              		@ sp needed
 1722 00f0 80BD     		pop	{r7, pc}
 1723              	.L77:
 1724 00f2 00BF     		.align	2
 1725              	.L76:
 1726 00f4 00000000 		.word	UART_DMAReceiveCplt
 1727 00f8 00000000 		.word	UART_DMARxHalfCplt
 1728 00fc 00000000 		.word	UART_DMAError
 1729              		.cfi_endproc
 1730              	.LFE136:
 1732              		.section	.text.HAL_UART_DMAPause,"ax",%progbits
 1733              		.align	1
 1734              		.global	HAL_UART_DMAPause
 1735              		.syntax unified
 1736              		.thumb
 1737              		.thumb_func
 1738              		.fpu fpv4-sp-d16
 1740              	HAL_UART_DMAPause:
 1741              	.LFB137:
 998:Drivers/STM32F4xx_HAL_Driver/Src/stm32f4xx_hal_uart.c ****     
 999:Drivers/STM32F4xx_HAL_Driver/Src/stm32f4xx_hal_uart.c **** /**
1000:Drivers/STM32F4xx_HAL_Driver/Src/stm32f4xx_hal_uart.c ****   * @brief Pauses the DMA Transfer.
1001:Drivers/STM32F4xx_HAL_Driver/Src/stm32f4xx_hal_uart.c ****   * @param  huart pointer to a UART_HandleTypeDef structure that contains
1002:Drivers/STM32F4xx_HAL_Driver/Src/stm32f4xx_hal_uart.c ****   *                the configuration information for the specified UART module.
1003:Drivers/STM32F4xx_HAL_Driver/Src/stm32f4xx_hal_uart.c ****   * @retval HAL status
1004:Drivers/STM32F4xx_HAL_Driver/Src/stm32f4xx_hal_uart.c ****   */
1005:Drivers/STM32F4xx_HAL_Driver/Src/stm32f4xx_hal_uart.c **** HAL_StatusTypeDef HAL_UART_DMAPause(UART_HandleTypeDef *huart)
1006:Drivers/STM32F4xx_HAL_Driver/Src/stm32f4xx_hal_uart.c **** {
 1742              		.loc 1 1006 0
 1743              		.cfi_startproc
 1744              		@ args = 0, pretend = 0, frame = 16
 1745              		@ frame_needed = 1, uses_anonymous_args = 0
 1746              		@ link register save eliminated.
 1747 0000 80B4     		push	{r7}
 1748              	.LCFI69:
 1749              		.cfi_def_cfa_offset 4
 1750              		.cfi_offset 7, -4
 1751 0002 85B0     		sub	sp, sp, #20
 1752              	.LCFI70:
 1753              		.cfi_def_cfa_offset 24
 1754 0004 00AF     		add	r7, sp, #0
 1755              	.LCFI71:
ARM GAS  /tmp/ccLJIDLw.s 			page 49


 1756              		.cfi_def_cfa_register 7
 1757 0006 7860     		str	r0, [r7, #4]
1007:Drivers/STM32F4xx_HAL_Driver/Src/stm32f4xx_hal_uart.c ****    uint32_t dmarequest = 0x00U;
 1758              		.loc 1 1007 0
 1759 0008 0023     		movs	r3, #0
 1760 000a FB60     		str	r3, [r7, #12]
1008:Drivers/STM32F4xx_HAL_Driver/Src/stm32f4xx_hal_uart.c **** 
1009:Drivers/STM32F4xx_HAL_Driver/Src/stm32f4xx_hal_uart.c ****   /* Process Locked */
1010:Drivers/STM32F4xx_HAL_Driver/Src/stm32f4xx_hal_uart.c ****   __HAL_LOCK(huart);
 1761              		.loc 1 1010 0
 1762 000c 7B68     		ldr	r3, [r7, #4]
 1763 000e 93F83830 		ldrb	r3, [r3, #56]	@ zero_extendqisi2
 1764 0012 012B     		cmp	r3, #1
 1765 0014 01D1     		bne	.L79
 1766              		.loc 1 1010 0 is_stmt 0 discriminator 1
 1767 0016 0223     		movs	r3, #2
 1768 0018 50E0     		b	.L80
 1769              	.L79:
 1770              		.loc 1 1010 0 discriminator 2
 1771 001a 7B68     		ldr	r3, [r7, #4]
 1772 001c 0122     		movs	r2, #1
 1773 001e 83F83820 		strb	r2, [r3, #56]
1011:Drivers/STM32F4xx_HAL_Driver/Src/stm32f4xx_hal_uart.c ****   dmarequest = HAL_IS_BIT_SET(huart->Instance->CR3, USART_CR3_DMAT);
 1774              		.loc 1 1011 0 is_stmt 1 discriminator 2
 1775 0022 7B68     		ldr	r3, [r7, #4]
 1776 0024 1B68     		ldr	r3, [r3]
 1777 0026 5B69     		ldr	r3, [r3, #20]
 1778 0028 03F08003 		and	r3, r3, #128
 1779 002c 002B     		cmp	r3, #0
 1780 002e 14BF     		ite	ne
 1781 0030 0123     		movne	r3, #1
 1782 0032 0023     		moveq	r3, #0
 1783 0034 DBB2     		uxtb	r3, r3
 1784 0036 FB60     		str	r3, [r7, #12]
1012:Drivers/STM32F4xx_HAL_Driver/Src/stm32f4xx_hal_uart.c ****   if((huart->gState == HAL_UART_STATE_BUSY_TX) && dmarequest)
 1785              		.loc 1 1012 0 discriminator 2
 1786 0038 7B68     		ldr	r3, [r7, #4]
 1787 003a 93F83930 		ldrb	r3, [r3, #57]
 1788 003e DBB2     		uxtb	r3, r3
 1789 0040 212B     		cmp	r3, #33
 1790 0042 0AD1     		bne	.L81
 1791              		.loc 1 1012 0 is_stmt 0 discriminator 1
 1792 0044 FB68     		ldr	r3, [r7, #12]
 1793 0046 002B     		cmp	r3, #0
 1794 0048 07D0     		beq	.L81
1013:Drivers/STM32F4xx_HAL_Driver/Src/stm32f4xx_hal_uart.c ****   {
1014:Drivers/STM32F4xx_HAL_Driver/Src/stm32f4xx_hal_uart.c ****     /* Disable the UART DMA Tx request */
1015:Drivers/STM32F4xx_HAL_Driver/Src/stm32f4xx_hal_uart.c ****     CLEAR_BIT(huart->Instance->CR3, USART_CR3_DMAT);
 1795              		.loc 1 1015 0 is_stmt 1
 1796 004a 7B68     		ldr	r3, [r7, #4]
 1797 004c 1B68     		ldr	r3, [r3]
 1798 004e 7A68     		ldr	r2, [r7, #4]
 1799 0050 1268     		ldr	r2, [r2]
 1800 0052 5269     		ldr	r2, [r2, #20]
 1801 0054 22F08002 		bic	r2, r2, #128
 1802 0058 5A61     		str	r2, [r3, #20]
 1803              	.L81:
ARM GAS  /tmp/ccLJIDLw.s 			page 50


1016:Drivers/STM32F4xx_HAL_Driver/Src/stm32f4xx_hal_uart.c ****   }
1017:Drivers/STM32F4xx_HAL_Driver/Src/stm32f4xx_hal_uart.c ****   dmarequest = HAL_IS_BIT_SET(huart->Instance->CR3, USART_CR3_DMAR);
 1804              		.loc 1 1017 0
 1805 005a 7B68     		ldr	r3, [r7, #4]
 1806 005c 1B68     		ldr	r3, [r3]
 1807 005e 5B69     		ldr	r3, [r3, #20]
 1808 0060 03F04003 		and	r3, r3, #64
 1809 0064 002B     		cmp	r3, #0
 1810 0066 14BF     		ite	ne
 1811 0068 0123     		movne	r3, #1
 1812 006a 0023     		moveq	r3, #0
 1813 006c DBB2     		uxtb	r3, r3
 1814 006e FB60     		str	r3, [r7, #12]
1018:Drivers/STM32F4xx_HAL_Driver/Src/stm32f4xx_hal_uart.c ****   if((huart->RxState == HAL_UART_STATE_BUSY_RX) && dmarequest)
 1815              		.loc 1 1018 0
 1816 0070 7B68     		ldr	r3, [r7, #4]
 1817 0072 93F83A30 		ldrb	r3, [r3, #58]
 1818 0076 DBB2     		uxtb	r3, r3
 1819 0078 222B     		cmp	r3, #34
 1820 007a 1AD1     		bne	.L82
 1821              		.loc 1 1018 0 is_stmt 0 discriminator 1
 1822 007c FB68     		ldr	r3, [r7, #12]
 1823 007e 002B     		cmp	r3, #0
 1824 0080 17D0     		beq	.L82
1019:Drivers/STM32F4xx_HAL_Driver/Src/stm32f4xx_hal_uart.c ****   {
1020:Drivers/STM32F4xx_HAL_Driver/Src/stm32f4xx_hal_uart.c ****     /* Disable RXNE, PE and ERR (Frame error, noise error, overrun error) interrupts */
1021:Drivers/STM32F4xx_HAL_Driver/Src/stm32f4xx_hal_uart.c ****     CLEAR_BIT(huart->Instance->CR1, USART_CR1_PEIE);
 1825              		.loc 1 1021 0 is_stmt 1
 1826 0082 7B68     		ldr	r3, [r7, #4]
 1827 0084 1B68     		ldr	r3, [r3]
 1828 0086 7A68     		ldr	r2, [r7, #4]
 1829 0088 1268     		ldr	r2, [r2]
 1830 008a D268     		ldr	r2, [r2, #12]
 1831 008c 22F48072 		bic	r2, r2, #256
 1832 0090 DA60     		str	r2, [r3, #12]
1022:Drivers/STM32F4xx_HAL_Driver/Src/stm32f4xx_hal_uart.c ****     CLEAR_BIT(huart->Instance->CR3, USART_CR3_EIE);
 1833              		.loc 1 1022 0
 1834 0092 7B68     		ldr	r3, [r7, #4]
 1835 0094 1B68     		ldr	r3, [r3]
 1836 0096 7A68     		ldr	r2, [r7, #4]
 1837 0098 1268     		ldr	r2, [r2]
 1838 009a 5269     		ldr	r2, [r2, #20]
 1839 009c 22F00102 		bic	r2, r2, #1
 1840 00a0 5A61     		str	r2, [r3, #20]
1023:Drivers/STM32F4xx_HAL_Driver/Src/stm32f4xx_hal_uart.c ****     
1024:Drivers/STM32F4xx_HAL_Driver/Src/stm32f4xx_hal_uart.c ****     /* Disable the UART DMA Rx request */
1025:Drivers/STM32F4xx_HAL_Driver/Src/stm32f4xx_hal_uart.c ****     CLEAR_BIT(huart->Instance->CR3, USART_CR3_DMAR);
 1841              		.loc 1 1025 0
 1842 00a2 7B68     		ldr	r3, [r7, #4]
 1843 00a4 1B68     		ldr	r3, [r3]
 1844 00a6 7A68     		ldr	r2, [r7, #4]
 1845 00a8 1268     		ldr	r2, [r2]
 1846 00aa 5269     		ldr	r2, [r2, #20]
 1847 00ac 22F04002 		bic	r2, r2, #64
 1848 00b0 5A61     		str	r2, [r3, #20]
 1849              	.L82:
1026:Drivers/STM32F4xx_HAL_Driver/Src/stm32f4xx_hal_uart.c ****   }
ARM GAS  /tmp/ccLJIDLw.s 			page 51


1027:Drivers/STM32F4xx_HAL_Driver/Src/stm32f4xx_hal_uart.c ****   
1028:Drivers/STM32F4xx_HAL_Driver/Src/stm32f4xx_hal_uart.c ****   /* Process Unlocked */
1029:Drivers/STM32F4xx_HAL_Driver/Src/stm32f4xx_hal_uart.c ****   __HAL_UNLOCK(huart);
 1850              		.loc 1 1029 0
 1851 00b2 7B68     		ldr	r3, [r7, #4]
 1852 00b4 0022     		movs	r2, #0
 1853 00b6 83F83820 		strb	r2, [r3, #56]
1030:Drivers/STM32F4xx_HAL_Driver/Src/stm32f4xx_hal_uart.c ****   
1031:Drivers/STM32F4xx_HAL_Driver/Src/stm32f4xx_hal_uart.c ****   return HAL_OK; 
 1854              		.loc 1 1031 0
 1855 00ba 0023     		movs	r3, #0
 1856              	.L80:
1032:Drivers/STM32F4xx_HAL_Driver/Src/stm32f4xx_hal_uart.c **** }
 1857              		.loc 1 1032 0
 1858 00bc 1846     		mov	r0, r3
 1859 00be 1437     		adds	r7, r7, #20
 1860              	.LCFI72:
 1861              		.cfi_def_cfa_offset 4
 1862 00c0 BD46     		mov	sp, r7
 1863              	.LCFI73:
 1864              		.cfi_def_cfa_register 13
 1865              		@ sp needed
 1866 00c2 5DF8047B 		ldr	r7, [sp], #4
 1867              	.LCFI74:
 1868              		.cfi_restore 7
 1869              		.cfi_def_cfa_offset 0
 1870 00c6 7047     		bx	lr
 1871              		.cfi_endproc
 1872              	.LFE137:
 1874              		.section	.text.HAL_UART_DMAResume,"ax",%progbits
 1875              		.align	1
 1876              		.global	HAL_UART_DMAResume
 1877              		.syntax unified
 1878              		.thumb
 1879              		.thumb_func
 1880              		.fpu fpv4-sp-d16
 1882              	HAL_UART_DMAResume:
 1883              	.LFB138:
1033:Drivers/STM32F4xx_HAL_Driver/Src/stm32f4xx_hal_uart.c **** 
1034:Drivers/STM32F4xx_HAL_Driver/Src/stm32f4xx_hal_uart.c **** /**
1035:Drivers/STM32F4xx_HAL_Driver/Src/stm32f4xx_hal_uart.c ****   * @brief Resumes the DMA Transfer.
1036:Drivers/STM32F4xx_HAL_Driver/Src/stm32f4xx_hal_uart.c ****   * @param  huart pointer to a UART_HandleTypeDef structure that contains
1037:Drivers/STM32F4xx_HAL_Driver/Src/stm32f4xx_hal_uart.c ****   *                the configuration information for the specified UART module.
1038:Drivers/STM32F4xx_HAL_Driver/Src/stm32f4xx_hal_uart.c ****   * @retval HAL status
1039:Drivers/STM32F4xx_HAL_Driver/Src/stm32f4xx_hal_uart.c ****   */
1040:Drivers/STM32F4xx_HAL_Driver/Src/stm32f4xx_hal_uart.c **** HAL_StatusTypeDef HAL_UART_DMAResume(UART_HandleTypeDef *huart)
1041:Drivers/STM32F4xx_HAL_Driver/Src/stm32f4xx_hal_uart.c **** {
 1884              		.loc 1 1041 0
 1885              		.cfi_startproc
 1886              		@ args = 0, pretend = 0, frame = 16
 1887              		@ frame_needed = 1, uses_anonymous_args = 0
 1888              		@ link register save eliminated.
 1889 0000 80B4     		push	{r7}
 1890              	.LCFI75:
 1891              		.cfi_def_cfa_offset 4
 1892              		.cfi_offset 7, -4
 1893 0002 85B0     		sub	sp, sp, #20
ARM GAS  /tmp/ccLJIDLw.s 			page 52


 1894              	.LCFI76:
 1895              		.cfi_def_cfa_offset 24
 1896 0004 00AF     		add	r7, sp, #0
 1897              	.LCFI77:
 1898              		.cfi_def_cfa_register 7
 1899 0006 7860     		str	r0, [r7, #4]
1042:Drivers/STM32F4xx_HAL_Driver/Src/stm32f4xx_hal_uart.c ****   /* Process Locked */
1043:Drivers/STM32F4xx_HAL_Driver/Src/stm32f4xx_hal_uart.c ****   __HAL_LOCK(huart);
 1900              		.loc 1 1043 0
 1901 0008 7B68     		ldr	r3, [r7, #4]
 1902 000a 93F83830 		ldrb	r3, [r3, #56]	@ zero_extendqisi2
 1903 000e 012B     		cmp	r3, #1
 1904 0010 01D1     		bne	.L84
 1905              		.loc 1 1043 0 is_stmt 0 discriminator 1
 1906 0012 0223     		movs	r3, #2
 1907 0014 3FE0     		b	.L85
 1908              	.L84:
 1909              		.loc 1 1043 0 discriminator 2
 1910 0016 7B68     		ldr	r3, [r7, #4]
 1911 0018 0122     		movs	r2, #1
 1912 001a 83F83820 		strb	r2, [r3, #56]
1044:Drivers/STM32F4xx_HAL_Driver/Src/stm32f4xx_hal_uart.c ****   
1045:Drivers/STM32F4xx_HAL_Driver/Src/stm32f4xx_hal_uart.c ****   if(huart->gState == HAL_UART_STATE_BUSY_TX)
 1913              		.loc 1 1045 0 is_stmt 1 discriminator 2
 1914 001e 7B68     		ldr	r3, [r7, #4]
 1915 0020 93F83930 		ldrb	r3, [r3, #57]
 1916 0024 DBB2     		uxtb	r3, r3
 1917 0026 212B     		cmp	r3, #33
 1918 0028 07D1     		bne	.L86
1046:Drivers/STM32F4xx_HAL_Driver/Src/stm32f4xx_hal_uart.c ****   {
1047:Drivers/STM32F4xx_HAL_Driver/Src/stm32f4xx_hal_uart.c ****     /* Enable the UART DMA Tx request */
1048:Drivers/STM32F4xx_HAL_Driver/Src/stm32f4xx_hal_uart.c ****     SET_BIT(huart->Instance->CR3, USART_CR3_DMAT);
 1919              		.loc 1 1048 0
 1920 002a 7B68     		ldr	r3, [r7, #4]
 1921 002c 1B68     		ldr	r3, [r3]
 1922 002e 7A68     		ldr	r2, [r7, #4]
 1923 0030 1268     		ldr	r2, [r2]
 1924 0032 5269     		ldr	r2, [r2, #20]
 1925 0034 42F08002 		orr	r2, r2, #128
 1926 0038 5A61     		str	r2, [r3, #20]
 1927              	.L86:
1049:Drivers/STM32F4xx_HAL_Driver/Src/stm32f4xx_hal_uart.c ****   }
1050:Drivers/STM32F4xx_HAL_Driver/Src/stm32f4xx_hal_uart.c ****   if(huart->RxState == HAL_UART_STATE_BUSY_RX)
 1928              		.loc 1 1050 0
 1929 003a 7B68     		ldr	r3, [r7, #4]
 1930 003c 93F83A30 		ldrb	r3, [r3, #58]
 1931 0040 DBB2     		uxtb	r3, r3
 1932 0042 222B     		cmp	r3, #34
 1933 0044 22D1     		bne	.L87
 1934              	.LBB3:
1051:Drivers/STM32F4xx_HAL_Driver/Src/stm32f4xx_hal_uart.c ****   {
1052:Drivers/STM32F4xx_HAL_Driver/Src/stm32f4xx_hal_uart.c ****     /* Clear the Overrun flag before resuming the Rx transfer*/
1053:Drivers/STM32F4xx_HAL_Driver/Src/stm32f4xx_hal_uart.c ****     __HAL_UART_CLEAR_OREFLAG(huart);
 1935              		.loc 1 1053 0
 1936 0046 0023     		movs	r3, #0
 1937 0048 FB60     		str	r3, [r7, #12]
 1938 004a 7B68     		ldr	r3, [r7, #4]
ARM GAS  /tmp/ccLJIDLw.s 			page 53


 1939 004c 1B68     		ldr	r3, [r3]
 1940 004e 1B68     		ldr	r3, [r3]
 1941 0050 FB60     		str	r3, [r7, #12]
 1942 0052 7B68     		ldr	r3, [r7, #4]
 1943 0054 1B68     		ldr	r3, [r3]
 1944 0056 5B68     		ldr	r3, [r3, #4]
 1945 0058 FB60     		str	r3, [r7, #12]
 1946 005a FB68     		ldr	r3, [r7, #12]
 1947              	.LBE3:
1054:Drivers/STM32F4xx_HAL_Driver/Src/stm32f4xx_hal_uart.c ****     
1055:Drivers/STM32F4xx_HAL_Driver/Src/stm32f4xx_hal_uart.c ****     /* Reenable PE and ERR (Frame error, noise error, overrun error) interrupts */
1056:Drivers/STM32F4xx_HAL_Driver/Src/stm32f4xx_hal_uart.c ****     SET_BIT(huart->Instance->CR1, USART_CR1_PEIE);
 1948              		.loc 1 1056 0
 1949 005c 7B68     		ldr	r3, [r7, #4]
 1950 005e 1B68     		ldr	r3, [r3]
 1951 0060 7A68     		ldr	r2, [r7, #4]
 1952 0062 1268     		ldr	r2, [r2]
 1953 0064 D268     		ldr	r2, [r2, #12]
 1954 0066 42F48072 		orr	r2, r2, #256
 1955 006a DA60     		str	r2, [r3, #12]
1057:Drivers/STM32F4xx_HAL_Driver/Src/stm32f4xx_hal_uart.c ****     SET_BIT(huart->Instance->CR3, USART_CR3_EIE);
 1956              		.loc 1 1057 0
 1957 006c 7B68     		ldr	r3, [r7, #4]
 1958 006e 1B68     		ldr	r3, [r3]
 1959 0070 7A68     		ldr	r2, [r7, #4]
 1960 0072 1268     		ldr	r2, [r2]
 1961 0074 5269     		ldr	r2, [r2, #20]
 1962 0076 42F00102 		orr	r2, r2, #1
 1963 007a 5A61     		str	r2, [r3, #20]
1058:Drivers/STM32F4xx_HAL_Driver/Src/stm32f4xx_hal_uart.c ****     
1059:Drivers/STM32F4xx_HAL_Driver/Src/stm32f4xx_hal_uart.c ****     /* Enable the UART DMA Rx request */
1060:Drivers/STM32F4xx_HAL_Driver/Src/stm32f4xx_hal_uart.c ****     SET_BIT(huart->Instance->CR3, USART_CR3_DMAR);
 1964              		.loc 1 1060 0
 1965 007c 7B68     		ldr	r3, [r7, #4]
 1966 007e 1B68     		ldr	r3, [r3]
 1967 0080 7A68     		ldr	r2, [r7, #4]
 1968 0082 1268     		ldr	r2, [r2]
 1969 0084 5269     		ldr	r2, [r2, #20]
 1970 0086 42F04002 		orr	r2, r2, #64
 1971 008a 5A61     		str	r2, [r3, #20]
 1972              	.L87:
1061:Drivers/STM32F4xx_HAL_Driver/Src/stm32f4xx_hal_uart.c ****   }
1062:Drivers/STM32F4xx_HAL_Driver/Src/stm32f4xx_hal_uart.c ****   
1063:Drivers/STM32F4xx_HAL_Driver/Src/stm32f4xx_hal_uart.c ****   /* Process Unlocked */
1064:Drivers/STM32F4xx_HAL_Driver/Src/stm32f4xx_hal_uart.c ****   __HAL_UNLOCK(huart);
 1973              		.loc 1 1064 0
 1974 008c 7B68     		ldr	r3, [r7, #4]
 1975 008e 0022     		movs	r2, #0
 1976 0090 83F83820 		strb	r2, [r3, #56]
1065:Drivers/STM32F4xx_HAL_Driver/Src/stm32f4xx_hal_uart.c ****   
1066:Drivers/STM32F4xx_HAL_Driver/Src/stm32f4xx_hal_uart.c ****   return HAL_OK;
 1977              		.loc 1 1066 0
 1978 0094 0023     		movs	r3, #0
 1979              	.L85:
1067:Drivers/STM32F4xx_HAL_Driver/Src/stm32f4xx_hal_uart.c **** }
 1980              		.loc 1 1067 0
 1981 0096 1846     		mov	r0, r3
ARM GAS  /tmp/ccLJIDLw.s 			page 54


 1982 0098 1437     		adds	r7, r7, #20
 1983              	.LCFI78:
 1984              		.cfi_def_cfa_offset 4
 1985 009a BD46     		mov	sp, r7
 1986              	.LCFI79:
 1987              		.cfi_def_cfa_register 13
 1988              		@ sp needed
 1989 009c 5DF8047B 		ldr	r7, [sp], #4
 1990              	.LCFI80:
 1991              		.cfi_restore 7
 1992              		.cfi_def_cfa_offset 0
 1993 00a0 7047     		bx	lr
 1994              		.cfi_endproc
 1995              	.LFE138:
 1997              		.section	.text.HAL_UART_DMAStop,"ax",%progbits
 1998              		.align	1
 1999              		.global	HAL_UART_DMAStop
 2000              		.syntax unified
 2001              		.thumb
 2002              		.thumb_func
 2003              		.fpu fpv4-sp-d16
 2005              	HAL_UART_DMAStop:
 2006              	.LFB139:
1068:Drivers/STM32F4xx_HAL_Driver/Src/stm32f4xx_hal_uart.c **** 
1069:Drivers/STM32F4xx_HAL_Driver/Src/stm32f4xx_hal_uart.c **** /**
1070:Drivers/STM32F4xx_HAL_Driver/Src/stm32f4xx_hal_uart.c ****   * @brief Stops the DMA Transfer.
1071:Drivers/STM32F4xx_HAL_Driver/Src/stm32f4xx_hal_uart.c ****   * @param  huart pointer to a UART_HandleTypeDef structure that contains
1072:Drivers/STM32F4xx_HAL_Driver/Src/stm32f4xx_hal_uart.c ****   *                the configuration information for the specified UART module.
1073:Drivers/STM32F4xx_HAL_Driver/Src/stm32f4xx_hal_uart.c ****   * @retval HAL status
1074:Drivers/STM32F4xx_HAL_Driver/Src/stm32f4xx_hal_uart.c ****   */
1075:Drivers/STM32F4xx_HAL_Driver/Src/stm32f4xx_hal_uart.c **** HAL_StatusTypeDef HAL_UART_DMAStop(UART_HandleTypeDef *huart)
1076:Drivers/STM32F4xx_HAL_Driver/Src/stm32f4xx_hal_uart.c **** {
 2007              		.loc 1 1076 0
 2008              		.cfi_startproc
 2009              		@ args = 0, pretend = 0, frame = 16
 2010              		@ frame_needed = 1, uses_anonymous_args = 0
 2011 0000 80B5     		push	{r7, lr}
 2012              	.LCFI81:
 2013              		.cfi_def_cfa_offset 8
 2014              		.cfi_offset 7, -8
 2015              		.cfi_offset 14, -4
 2016 0002 84B0     		sub	sp, sp, #16
 2017              	.LCFI82:
 2018              		.cfi_def_cfa_offset 24
 2019 0004 00AF     		add	r7, sp, #0
 2020              	.LCFI83:
 2021              		.cfi_def_cfa_register 7
 2022 0006 7860     		str	r0, [r7, #4]
1077:Drivers/STM32F4xx_HAL_Driver/Src/stm32f4xx_hal_uart.c ****   uint32_t dmarequest = 0x00U;
 2023              		.loc 1 1077 0
 2024 0008 0023     		movs	r3, #0
 2025 000a FB60     		str	r3, [r7, #12]
1078:Drivers/STM32F4xx_HAL_Driver/Src/stm32f4xx_hal_uart.c ****   /* The Lock is not implemented on this API to allow the user application
1079:Drivers/STM32F4xx_HAL_Driver/Src/stm32f4xx_hal_uart.c ****      to call the HAL UART API under callbacks HAL_UART_TxCpltCallback() / HAL_UART_RxCpltCallback()
1080:Drivers/STM32F4xx_HAL_Driver/Src/stm32f4xx_hal_uart.c ****      when calling HAL_DMA_Abort() API the DMA TX/RX Transfer complete interrupt is generated
1081:Drivers/STM32F4xx_HAL_Driver/Src/stm32f4xx_hal_uart.c ****      and the correspond call back is executed HAL_UART_TxCpltCallback() / HAL_UART_RxCpltCallback()
1082:Drivers/STM32F4xx_HAL_Driver/Src/stm32f4xx_hal_uart.c ****      */
ARM GAS  /tmp/ccLJIDLw.s 			page 55


1083:Drivers/STM32F4xx_HAL_Driver/Src/stm32f4xx_hal_uart.c ****   
1084:Drivers/STM32F4xx_HAL_Driver/Src/stm32f4xx_hal_uart.c ****   /* Stop UART DMA Tx request if ongoing */
1085:Drivers/STM32F4xx_HAL_Driver/Src/stm32f4xx_hal_uart.c ****   dmarequest = HAL_IS_BIT_SET(huart->Instance->CR3, USART_CR3_DMAT);
 2026              		.loc 1 1085 0
 2027 000c 7B68     		ldr	r3, [r7, #4]
 2028 000e 1B68     		ldr	r3, [r3]
 2029 0010 5B69     		ldr	r3, [r3, #20]
 2030 0012 03F08003 		and	r3, r3, #128
 2031 0016 002B     		cmp	r3, #0
 2032 0018 14BF     		ite	ne
 2033 001a 0123     		movne	r3, #1
 2034 001c 0023     		moveq	r3, #0
 2035 001e DBB2     		uxtb	r3, r3
 2036 0020 FB60     		str	r3, [r7, #12]
1086:Drivers/STM32F4xx_HAL_Driver/Src/stm32f4xx_hal_uart.c ****   if((huart->gState == HAL_UART_STATE_BUSY_TX) && dmarequest)
 2037              		.loc 1 1086 0
 2038 0022 7B68     		ldr	r3, [r7, #4]
 2039 0024 93F83930 		ldrb	r3, [r3, #57]
 2040 0028 DBB2     		uxtb	r3, r3
 2041 002a 212B     		cmp	r3, #33
 2042 002c 16D1     		bne	.L89
 2043              		.loc 1 1086 0 is_stmt 0 discriminator 1
 2044 002e FB68     		ldr	r3, [r7, #12]
 2045 0030 002B     		cmp	r3, #0
 2046 0032 13D0     		beq	.L89
1087:Drivers/STM32F4xx_HAL_Driver/Src/stm32f4xx_hal_uart.c ****   {
1088:Drivers/STM32F4xx_HAL_Driver/Src/stm32f4xx_hal_uart.c ****     CLEAR_BIT(huart->Instance->CR3, USART_CR3_DMAT);
 2047              		.loc 1 1088 0 is_stmt 1
 2048 0034 7B68     		ldr	r3, [r7, #4]
 2049 0036 1B68     		ldr	r3, [r3]
 2050 0038 7A68     		ldr	r2, [r7, #4]
 2051 003a 1268     		ldr	r2, [r2]
 2052 003c 5269     		ldr	r2, [r2, #20]
 2053 003e 22F08002 		bic	r2, r2, #128
 2054 0042 5A61     		str	r2, [r3, #20]
1089:Drivers/STM32F4xx_HAL_Driver/Src/stm32f4xx_hal_uart.c **** 
1090:Drivers/STM32F4xx_HAL_Driver/Src/stm32f4xx_hal_uart.c ****     /* Abort the UART DMA Tx channel */
1091:Drivers/STM32F4xx_HAL_Driver/Src/stm32f4xx_hal_uart.c ****     if(huart->hdmatx != NULL)
 2055              		.loc 1 1091 0
 2056 0044 7B68     		ldr	r3, [r7, #4]
 2057 0046 1B6B     		ldr	r3, [r3, #48]
 2058 0048 002B     		cmp	r3, #0
 2059 004a 04D0     		beq	.L90
1092:Drivers/STM32F4xx_HAL_Driver/Src/stm32f4xx_hal_uart.c ****     {
1093:Drivers/STM32F4xx_HAL_Driver/Src/stm32f4xx_hal_uart.c ****       HAL_DMA_Abort(huart->hdmatx);
 2060              		.loc 1 1093 0
 2061 004c 7B68     		ldr	r3, [r7, #4]
 2062 004e 1B6B     		ldr	r3, [r3, #48]
 2063 0050 1846     		mov	r0, r3
 2064 0052 FFF7FEFF 		bl	HAL_DMA_Abort
 2065              	.L90:
1094:Drivers/STM32F4xx_HAL_Driver/Src/stm32f4xx_hal_uart.c ****     }
1095:Drivers/STM32F4xx_HAL_Driver/Src/stm32f4xx_hal_uart.c ****     UART_EndTxTransfer(huart);
 2066              		.loc 1 1095 0
 2067 0056 7868     		ldr	r0, [r7, #4]
 2068 0058 FFF7FEFF 		bl	UART_EndTxTransfer
 2069              	.L89:
ARM GAS  /tmp/ccLJIDLw.s 			page 56


1096:Drivers/STM32F4xx_HAL_Driver/Src/stm32f4xx_hal_uart.c ****   }
1097:Drivers/STM32F4xx_HAL_Driver/Src/stm32f4xx_hal_uart.c **** 
1098:Drivers/STM32F4xx_HAL_Driver/Src/stm32f4xx_hal_uart.c ****   /* Stop UART DMA Rx request if ongoing */
1099:Drivers/STM32F4xx_HAL_Driver/Src/stm32f4xx_hal_uart.c ****   dmarequest = HAL_IS_BIT_SET(huart->Instance->CR3, USART_CR3_DMAR);
 2070              		.loc 1 1099 0
 2071 005c 7B68     		ldr	r3, [r7, #4]
 2072 005e 1B68     		ldr	r3, [r3]
 2073 0060 5B69     		ldr	r3, [r3, #20]
 2074 0062 03F04003 		and	r3, r3, #64
 2075 0066 002B     		cmp	r3, #0
 2076 0068 14BF     		ite	ne
 2077 006a 0123     		movne	r3, #1
 2078 006c 0023     		moveq	r3, #0
 2079 006e DBB2     		uxtb	r3, r3
 2080 0070 FB60     		str	r3, [r7, #12]
1100:Drivers/STM32F4xx_HAL_Driver/Src/stm32f4xx_hal_uart.c ****   if((huart->RxState == HAL_UART_STATE_BUSY_RX) && dmarequest)
 2081              		.loc 1 1100 0
 2082 0072 7B68     		ldr	r3, [r7, #4]
 2083 0074 93F83A30 		ldrb	r3, [r3, #58]
 2084 0078 DBB2     		uxtb	r3, r3
 2085 007a 222B     		cmp	r3, #34
 2086 007c 16D1     		bne	.L91
 2087              		.loc 1 1100 0 is_stmt 0 discriminator 1
 2088 007e FB68     		ldr	r3, [r7, #12]
 2089 0080 002B     		cmp	r3, #0
 2090 0082 13D0     		beq	.L91
1101:Drivers/STM32F4xx_HAL_Driver/Src/stm32f4xx_hal_uart.c ****   {
1102:Drivers/STM32F4xx_HAL_Driver/Src/stm32f4xx_hal_uart.c ****     CLEAR_BIT(huart->Instance->CR3, USART_CR3_DMAR);
 2091              		.loc 1 1102 0 is_stmt 1
 2092 0084 7B68     		ldr	r3, [r7, #4]
 2093 0086 1B68     		ldr	r3, [r3]
 2094 0088 7A68     		ldr	r2, [r7, #4]
 2095 008a 1268     		ldr	r2, [r2]
 2096 008c 5269     		ldr	r2, [r2, #20]
 2097 008e 22F04002 		bic	r2, r2, #64
 2098 0092 5A61     		str	r2, [r3, #20]
1103:Drivers/STM32F4xx_HAL_Driver/Src/stm32f4xx_hal_uart.c **** 
1104:Drivers/STM32F4xx_HAL_Driver/Src/stm32f4xx_hal_uart.c ****     /* Abort the UART DMA Rx channel */
1105:Drivers/STM32F4xx_HAL_Driver/Src/stm32f4xx_hal_uart.c ****     if(huart->hdmarx != NULL)
 2099              		.loc 1 1105 0
 2100 0094 7B68     		ldr	r3, [r7, #4]
 2101 0096 5B6B     		ldr	r3, [r3, #52]
 2102 0098 002B     		cmp	r3, #0
 2103 009a 04D0     		beq	.L92
1106:Drivers/STM32F4xx_HAL_Driver/Src/stm32f4xx_hal_uart.c ****     {
1107:Drivers/STM32F4xx_HAL_Driver/Src/stm32f4xx_hal_uart.c ****       HAL_DMA_Abort(huart->hdmarx);
 2104              		.loc 1 1107 0
 2105 009c 7B68     		ldr	r3, [r7, #4]
 2106 009e 5B6B     		ldr	r3, [r3, #52]
 2107 00a0 1846     		mov	r0, r3
 2108 00a2 FFF7FEFF 		bl	HAL_DMA_Abort
 2109              	.L92:
1108:Drivers/STM32F4xx_HAL_Driver/Src/stm32f4xx_hal_uart.c ****     }
1109:Drivers/STM32F4xx_HAL_Driver/Src/stm32f4xx_hal_uart.c ****     UART_EndRxTransfer(huart);
 2110              		.loc 1 1109 0
 2111 00a6 7868     		ldr	r0, [r7, #4]
 2112 00a8 FFF7FEFF 		bl	UART_EndRxTransfer
ARM GAS  /tmp/ccLJIDLw.s 			page 57


 2113              	.L91:
1110:Drivers/STM32F4xx_HAL_Driver/Src/stm32f4xx_hal_uart.c ****   }
1111:Drivers/STM32F4xx_HAL_Driver/Src/stm32f4xx_hal_uart.c **** 
1112:Drivers/STM32F4xx_HAL_Driver/Src/stm32f4xx_hal_uart.c ****   return HAL_OK;
 2114              		.loc 1 1112 0
 2115 00ac 0023     		movs	r3, #0
1113:Drivers/STM32F4xx_HAL_Driver/Src/stm32f4xx_hal_uart.c **** }
 2116              		.loc 1 1113 0
 2117 00ae 1846     		mov	r0, r3
 2118 00b0 1037     		adds	r7, r7, #16
 2119              	.LCFI84:
 2120              		.cfi_def_cfa_offset 8
 2121 00b2 BD46     		mov	sp, r7
 2122              	.LCFI85:
 2123              		.cfi_def_cfa_register 13
 2124              		@ sp needed
 2125 00b4 80BD     		pop	{r7, pc}
 2126              		.cfi_endproc
 2127              	.LFE139:
 2129              		.section	.text.HAL_UART_Abort,"ax",%progbits
 2130              		.align	1
 2131              		.global	HAL_UART_Abort
 2132              		.syntax unified
 2133              		.thumb
 2134              		.thumb_func
 2135              		.fpu fpv4-sp-d16
 2137              	HAL_UART_Abort:
 2138              	.LFB140:
1114:Drivers/STM32F4xx_HAL_Driver/Src/stm32f4xx_hal_uart.c **** 
1115:Drivers/STM32F4xx_HAL_Driver/Src/stm32f4xx_hal_uart.c **** /**
1116:Drivers/STM32F4xx_HAL_Driver/Src/stm32f4xx_hal_uart.c ****   * @brief  Abort ongoing transfers (blocking mode).
1117:Drivers/STM32F4xx_HAL_Driver/Src/stm32f4xx_hal_uart.c ****   * @param  huart UART handle.
1118:Drivers/STM32F4xx_HAL_Driver/Src/stm32f4xx_hal_uart.c ****   * @note   This procedure could be used for aborting any ongoing transfer started in Interrupt or 
1119:Drivers/STM32F4xx_HAL_Driver/Src/stm32f4xx_hal_uart.c ****   *         This procedure performs following operations :
1120:Drivers/STM32F4xx_HAL_Driver/Src/stm32f4xx_hal_uart.c ****   *           - Disable PPP Interrupts
1121:Drivers/STM32F4xx_HAL_Driver/Src/stm32f4xx_hal_uart.c ****   *           - Disable the DMA transfer in the peripheral register (if enabled)
1122:Drivers/STM32F4xx_HAL_Driver/Src/stm32f4xx_hal_uart.c ****   *           - Abort DMA transfer by calling HAL_DMA_Abort (in case of transfer in DMA mode)
1123:Drivers/STM32F4xx_HAL_Driver/Src/stm32f4xx_hal_uart.c ****   *           - Set handle State to READY
1124:Drivers/STM32F4xx_HAL_Driver/Src/stm32f4xx_hal_uart.c ****   * @note   This procedure is executed in blocking mode : when exiting function, Abort is considere
1125:Drivers/STM32F4xx_HAL_Driver/Src/stm32f4xx_hal_uart.c ****   * @retval HAL status
1126:Drivers/STM32F4xx_HAL_Driver/Src/stm32f4xx_hal_uart.c **** */
1127:Drivers/STM32F4xx_HAL_Driver/Src/stm32f4xx_hal_uart.c **** HAL_StatusTypeDef HAL_UART_Abort(UART_HandleTypeDef *huart)
1128:Drivers/STM32F4xx_HAL_Driver/Src/stm32f4xx_hal_uart.c **** {
 2139              		.loc 1 1128 0
 2140              		.cfi_startproc
 2141              		@ args = 0, pretend = 0, frame = 8
 2142              		@ frame_needed = 1, uses_anonymous_args = 0
 2143 0000 80B5     		push	{r7, lr}
 2144              	.LCFI86:
 2145              		.cfi_def_cfa_offset 8
 2146              		.cfi_offset 7, -8
 2147              		.cfi_offset 14, -4
 2148 0002 82B0     		sub	sp, sp, #8
 2149              	.LCFI87:
 2150              		.cfi_def_cfa_offset 16
 2151 0004 00AF     		add	r7, sp, #0
 2152              	.LCFI88:
ARM GAS  /tmp/ccLJIDLw.s 			page 58


 2153              		.cfi_def_cfa_register 7
 2154 0006 7860     		str	r0, [r7, #4]
1129:Drivers/STM32F4xx_HAL_Driver/Src/stm32f4xx_hal_uart.c ****   /* Disable TXEIE, TCIE, RXNE, PE and ERR (Frame error, noise error, overrun error) interrupts */
1130:Drivers/STM32F4xx_HAL_Driver/Src/stm32f4xx_hal_uart.c ****   CLEAR_BIT(huart->Instance->CR1, (USART_CR1_RXNEIE | USART_CR1_PEIE | USART_CR1_TXEIE | USART_CR1_
 2155              		.loc 1 1130 0
 2156 0008 7B68     		ldr	r3, [r7, #4]
 2157 000a 1B68     		ldr	r3, [r3]
 2158 000c 7A68     		ldr	r2, [r7, #4]
 2159 000e 1268     		ldr	r2, [r2]
 2160 0010 D268     		ldr	r2, [r2, #12]
 2161 0012 22F4F072 		bic	r2, r2, #480
 2162 0016 DA60     		str	r2, [r3, #12]
1131:Drivers/STM32F4xx_HAL_Driver/Src/stm32f4xx_hal_uart.c ****   CLEAR_BIT(huart->Instance->CR3, USART_CR3_EIE);
 2163              		.loc 1 1131 0
 2164 0018 7B68     		ldr	r3, [r7, #4]
 2165 001a 1B68     		ldr	r3, [r3]
 2166 001c 7A68     		ldr	r2, [r7, #4]
 2167 001e 1268     		ldr	r2, [r2]
 2168 0020 5269     		ldr	r2, [r2, #20]
 2169 0022 22F00102 		bic	r2, r2, #1
 2170 0026 5A61     		str	r2, [r3, #20]
1132:Drivers/STM32F4xx_HAL_Driver/Src/stm32f4xx_hal_uart.c ****   
1133:Drivers/STM32F4xx_HAL_Driver/Src/stm32f4xx_hal_uart.c ****   /* Disable the UART DMA Tx request if enabled */
1134:Drivers/STM32F4xx_HAL_Driver/Src/stm32f4xx_hal_uart.c ****   if(HAL_IS_BIT_SET(huart->Instance->CR3, USART_CR3_DMAT))
 2171              		.loc 1 1134 0
 2172 0028 7B68     		ldr	r3, [r7, #4]
 2173 002a 1B68     		ldr	r3, [r3]
 2174 002c 5B69     		ldr	r3, [r3, #20]
 2175 002e 03F08003 		and	r3, r3, #128
 2176 0032 002B     		cmp	r3, #0
 2177 0034 14D0     		beq	.L95
1135:Drivers/STM32F4xx_HAL_Driver/Src/stm32f4xx_hal_uart.c ****   {
1136:Drivers/STM32F4xx_HAL_Driver/Src/stm32f4xx_hal_uart.c ****     CLEAR_BIT(huart->Instance->CR3, USART_CR3_DMAT);
 2178              		.loc 1 1136 0
 2179 0036 7B68     		ldr	r3, [r7, #4]
 2180 0038 1B68     		ldr	r3, [r3]
 2181 003a 7A68     		ldr	r2, [r7, #4]
 2182 003c 1268     		ldr	r2, [r2]
 2183 003e 5269     		ldr	r2, [r2, #20]
 2184 0040 22F08002 		bic	r2, r2, #128
 2185 0044 5A61     		str	r2, [r3, #20]
1137:Drivers/STM32F4xx_HAL_Driver/Src/stm32f4xx_hal_uart.c **** 
1138:Drivers/STM32F4xx_HAL_Driver/Src/stm32f4xx_hal_uart.c ****     /* Abort the UART DMA Tx channel: use blocking DMA Abort API (no callback) */
1139:Drivers/STM32F4xx_HAL_Driver/Src/stm32f4xx_hal_uart.c ****     if(huart->hdmatx != NULL)
 2186              		.loc 1 1139 0
 2187 0046 7B68     		ldr	r3, [r7, #4]
 2188 0048 1B6B     		ldr	r3, [r3, #48]
 2189 004a 002B     		cmp	r3, #0
 2190 004c 08D0     		beq	.L95
1140:Drivers/STM32F4xx_HAL_Driver/Src/stm32f4xx_hal_uart.c ****     {
1141:Drivers/STM32F4xx_HAL_Driver/Src/stm32f4xx_hal_uart.c ****       /* Set the UART DMA Abort callback to Null. 
1142:Drivers/STM32F4xx_HAL_Driver/Src/stm32f4xx_hal_uart.c ****          No call back execution at end of DMA abort procedure */
1143:Drivers/STM32F4xx_HAL_Driver/Src/stm32f4xx_hal_uart.c ****       huart->hdmatx->XferAbortCallback = NULL;
 2191              		.loc 1 1143 0
 2192 004e 7B68     		ldr	r3, [r7, #4]
 2193 0050 1B6B     		ldr	r3, [r3, #48]
 2194 0052 0022     		movs	r2, #0
ARM GAS  /tmp/ccLJIDLw.s 			page 59


 2195 0054 1A65     		str	r2, [r3, #80]
1144:Drivers/STM32F4xx_HAL_Driver/Src/stm32f4xx_hal_uart.c **** 
1145:Drivers/STM32F4xx_HAL_Driver/Src/stm32f4xx_hal_uart.c ****       HAL_DMA_Abort(huart->hdmatx);
 2196              		.loc 1 1145 0
 2197 0056 7B68     		ldr	r3, [r7, #4]
 2198 0058 1B6B     		ldr	r3, [r3, #48]
 2199 005a 1846     		mov	r0, r3
 2200 005c FFF7FEFF 		bl	HAL_DMA_Abort
 2201              	.L95:
1146:Drivers/STM32F4xx_HAL_Driver/Src/stm32f4xx_hal_uart.c ****     }
1147:Drivers/STM32F4xx_HAL_Driver/Src/stm32f4xx_hal_uart.c ****   }
1148:Drivers/STM32F4xx_HAL_Driver/Src/stm32f4xx_hal_uart.c **** 
1149:Drivers/STM32F4xx_HAL_Driver/Src/stm32f4xx_hal_uart.c ****   /* Disable the UART DMA Rx request if enabled */
1150:Drivers/STM32F4xx_HAL_Driver/Src/stm32f4xx_hal_uart.c ****   if(HAL_IS_BIT_SET(huart->Instance->CR3, USART_CR3_DMAR))
 2202              		.loc 1 1150 0
 2203 0060 7B68     		ldr	r3, [r7, #4]
 2204 0062 1B68     		ldr	r3, [r3]
 2205 0064 5B69     		ldr	r3, [r3, #20]
 2206 0066 03F04003 		and	r3, r3, #64
 2207 006a 002B     		cmp	r3, #0
 2208 006c 14D0     		beq	.L96
1151:Drivers/STM32F4xx_HAL_Driver/Src/stm32f4xx_hal_uart.c ****   {
1152:Drivers/STM32F4xx_HAL_Driver/Src/stm32f4xx_hal_uart.c ****     CLEAR_BIT(huart->Instance->CR3, USART_CR3_DMAR);
 2209              		.loc 1 1152 0
 2210 006e 7B68     		ldr	r3, [r7, #4]
 2211 0070 1B68     		ldr	r3, [r3]
 2212 0072 7A68     		ldr	r2, [r7, #4]
 2213 0074 1268     		ldr	r2, [r2]
 2214 0076 5269     		ldr	r2, [r2, #20]
 2215 0078 22F04002 		bic	r2, r2, #64
 2216 007c 5A61     		str	r2, [r3, #20]
1153:Drivers/STM32F4xx_HAL_Driver/Src/stm32f4xx_hal_uart.c **** 
1154:Drivers/STM32F4xx_HAL_Driver/Src/stm32f4xx_hal_uart.c ****     /* Abort the UART DMA Rx channel: use blocking DMA Abort API (no callback) */
1155:Drivers/STM32F4xx_HAL_Driver/Src/stm32f4xx_hal_uart.c ****     if(huart->hdmarx != NULL)
 2217              		.loc 1 1155 0
 2218 007e 7B68     		ldr	r3, [r7, #4]
 2219 0080 5B6B     		ldr	r3, [r3, #52]
 2220 0082 002B     		cmp	r3, #0
 2221 0084 08D0     		beq	.L96
1156:Drivers/STM32F4xx_HAL_Driver/Src/stm32f4xx_hal_uart.c ****     {
1157:Drivers/STM32F4xx_HAL_Driver/Src/stm32f4xx_hal_uart.c ****       /* Set the UART DMA Abort callback to Null. 
1158:Drivers/STM32F4xx_HAL_Driver/Src/stm32f4xx_hal_uart.c ****          No call back execution at end of DMA abort procedure */
1159:Drivers/STM32F4xx_HAL_Driver/Src/stm32f4xx_hal_uart.c ****       huart->hdmarx->XferAbortCallback = NULL;
 2222              		.loc 1 1159 0
 2223 0086 7B68     		ldr	r3, [r7, #4]
 2224 0088 5B6B     		ldr	r3, [r3, #52]
 2225 008a 0022     		movs	r2, #0
 2226 008c 1A65     		str	r2, [r3, #80]
1160:Drivers/STM32F4xx_HAL_Driver/Src/stm32f4xx_hal_uart.c **** 
1161:Drivers/STM32F4xx_HAL_Driver/Src/stm32f4xx_hal_uart.c ****       HAL_DMA_Abort(huart->hdmarx);
 2227              		.loc 1 1161 0
 2228 008e 7B68     		ldr	r3, [r7, #4]
 2229 0090 5B6B     		ldr	r3, [r3, #52]
 2230 0092 1846     		mov	r0, r3
 2231 0094 FFF7FEFF 		bl	HAL_DMA_Abort
 2232              	.L96:
1162:Drivers/STM32F4xx_HAL_Driver/Src/stm32f4xx_hal_uart.c ****     }
ARM GAS  /tmp/ccLJIDLw.s 			page 60


1163:Drivers/STM32F4xx_HAL_Driver/Src/stm32f4xx_hal_uart.c ****   }
1164:Drivers/STM32F4xx_HAL_Driver/Src/stm32f4xx_hal_uart.c **** 
1165:Drivers/STM32F4xx_HAL_Driver/Src/stm32f4xx_hal_uart.c ****   /* Reset Tx and Rx transfer counters */
1166:Drivers/STM32F4xx_HAL_Driver/Src/stm32f4xx_hal_uart.c ****   huart->TxXferCount = 0x00U;
 2233              		.loc 1 1166 0
 2234 0098 7B68     		ldr	r3, [r7, #4]
 2235 009a 0022     		movs	r2, #0
 2236 009c DA84     		strh	r2, [r3, #38]	@ movhi
1167:Drivers/STM32F4xx_HAL_Driver/Src/stm32f4xx_hal_uart.c ****   huart->RxXferCount = 0x00U;
 2237              		.loc 1 1167 0
 2238 009e 7B68     		ldr	r3, [r7, #4]
 2239 00a0 0022     		movs	r2, #0
 2240 00a2 DA85     		strh	r2, [r3, #46]	@ movhi
1168:Drivers/STM32F4xx_HAL_Driver/Src/stm32f4xx_hal_uart.c **** 
1169:Drivers/STM32F4xx_HAL_Driver/Src/stm32f4xx_hal_uart.c ****   /* Reset ErrorCode */
1170:Drivers/STM32F4xx_HAL_Driver/Src/stm32f4xx_hal_uart.c ****   huart->ErrorCode = HAL_UART_ERROR_NONE;
 2241              		.loc 1 1170 0
 2242 00a4 7B68     		ldr	r3, [r7, #4]
 2243 00a6 0022     		movs	r2, #0
 2244 00a8 DA63     		str	r2, [r3, #60]
1171:Drivers/STM32F4xx_HAL_Driver/Src/stm32f4xx_hal_uart.c **** 
1172:Drivers/STM32F4xx_HAL_Driver/Src/stm32f4xx_hal_uart.c ****   /* Restore huart->RxState and huart->gState to Ready */
1173:Drivers/STM32F4xx_HAL_Driver/Src/stm32f4xx_hal_uart.c ****   huart->RxState = HAL_UART_STATE_READY;
 2245              		.loc 1 1173 0
 2246 00aa 7B68     		ldr	r3, [r7, #4]
 2247 00ac 2022     		movs	r2, #32
 2248 00ae 83F83A20 		strb	r2, [r3, #58]
1174:Drivers/STM32F4xx_HAL_Driver/Src/stm32f4xx_hal_uart.c ****   huart->gState = HAL_UART_STATE_READY;
 2249              		.loc 1 1174 0
 2250 00b2 7B68     		ldr	r3, [r7, #4]
 2251 00b4 2022     		movs	r2, #32
 2252 00b6 83F83920 		strb	r2, [r3, #57]
1175:Drivers/STM32F4xx_HAL_Driver/Src/stm32f4xx_hal_uart.c **** 
1176:Drivers/STM32F4xx_HAL_Driver/Src/stm32f4xx_hal_uart.c ****   return HAL_OK;
 2253              		.loc 1 1176 0
 2254 00ba 0023     		movs	r3, #0
1177:Drivers/STM32F4xx_HAL_Driver/Src/stm32f4xx_hal_uart.c **** }
 2255              		.loc 1 1177 0
 2256 00bc 1846     		mov	r0, r3
 2257 00be 0837     		adds	r7, r7, #8
 2258              	.LCFI89:
 2259              		.cfi_def_cfa_offset 8
 2260 00c0 BD46     		mov	sp, r7
 2261              	.LCFI90:
 2262              		.cfi_def_cfa_register 13
 2263              		@ sp needed
 2264 00c2 80BD     		pop	{r7, pc}
 2265              		.cfi_endproc
 2266              	.LFE140:
 2268              		.section	.text.HAL_UART_AbortTransmit,"ax",%progbits
 2269              		.align	1
 2270              		.global	HAL_UART_AbortTransmit
 2271              		.syntax unified
 2272              		.thumb
 2273              		.thumb_func
 2274              		.fpu fpv4-sp-d16
 2276              	HAL_UART_AbortTransmit:
ARM GAS  /tmp/ccLJIDLw.s 			page 61


 2277              	.LFB141:
1178:Drivers/STM32F4xx_HAL_Driver/Src/stm32f4xx_hal_uart.c **** 
1179:Drivers/STM32F4xx_HAL_Driver/Src/stm32f4xx_hal_uart.c **** /**
1180:Drivers/STM32F4xx_HAL_Driver/Src/stm32f4xx_hal_uart.c ****   * @brief  Abort ongoing Transmit transfer (blocking mode).
1181:Drivers/STM32F4xx_HAL_Driver/Src/stm32f4xx_hal_uart.c ****   * @param  huart UART handle.
1182:Drivers/STM32F4xx_HAL_Driver/Src/stm32f4xx_hal_uart.c ****   * @note   This procedure could be used for aborting any ongoing transfer started in Interrupt or 
1183:Drivers/STM32F4xx_HAL_Driver/Src/stm32f4xx_hal_uart.c ****   *         This procedure performs following operations :
1184:Drivers/STM32F4xx_HAL_Driver/Src/stm32f4xx_hal_uart.c ****   *           - Disable PPP Interrupts
1185:Drivers/STM32F4xx_HAL_Driver/Src/stm32f4xx_hal_uart.c ****   *           - Disable the DMA transfer in the peripheral register (if enabled)
1186:Drivers/STM32F4xx_HAL_Driver/Src/stm32f4xx_hal_uart.c ****   *           - Abort DMA transfer by calling HAL_DMA_Abort (in case of transfer in DMA mode)
1187:Drivers/STM32F4xx_HAL_Driver/Src/stm32f4xx_hal_uart.c ****   *           - Set handle State to READY
1188:Drivers/STM32F4xx_HAL_Driver/Src/stm32f4xx_hal_uart.c ****   * @note   This procedure is executed in blocking mode : when exiting function, Abort is considere
1189:Drivers/STM32F4xx_HAL_Driver/Src/stm32f4xx_hal_uart.c ****   * @retval HAL status
1190:Drivers/STM32F4xx_HAL_Driver/Src/stm32f4xx_hal_uart.c **** */
1191:Drivers/STM32F4xx_HAL_Driver/Src/stm32f4xx_hal_uart.c **** HAL_StatusTypeDef HAL_UART_AbortTransmit(UART_HandleTypeDef *huart)
1192:Drivers/STM32F4xx_HAL_Driver/Src/stm32f4xx_hal_uart.c **** {
 2278              		.loc 1 1192 0
 2279              		.cfi_startproc
 2280              		@ args = 0, pretend = 0, frame = 8
 2281              		@ frame_needed = 1, uses_anonymous_args = 0
 2282 0000 80B5     		push	{r7, lr}
 2283              	.LCFI91:
 2284              		.cfi_def_cfa_offset 8
 2285              		.cfi_offset 7, -8
 2286              		.cfi_offset 14, -4
 2287 0002 82B0     		sub	sp, sp, #8
 2288              	.LCFI92:
 2289              		.cfi_def_cfa_offset 16
 2290 0004 00AF     		add	r7, sp, #0
 2291              	.LCFI93:
 2292              		.cfi_def_cfa_register 7
 2293 0006 7860     		str	r0, [r7, #4]
1193:Drivers/STM32F4xx_HAL_Driver/Src/stm32f4xx_hal_uart.c ****   /* Disable TXEIE and TCIE interrupts */
1194:Drivers/STM32F4xx_HAL_Driver/Src/stm32f4xx_hal_uart.c ****   CLEAR_BIT(huart->Instance->CR1, (USART_CR1_TXEIE | USART_CR1_TCIE));
 2294              		.loc 1 1194 0
 2295 0008 7B68     		ldr	r3, [r7, #4]
 2296 000a 1B68     		ldr	r3, [r3]
 2297 000c 7A68     		ldr	r2, [r7, #4]
 2298 000e 1268     		ldr	r2, [r2]
 2299 0010 D268     		ldr	r2, [r2, #12]
 2300 0012 22F0C002 		bic	r2, r2, #192
 2301 0016 DA60     		str	r2, [r3, #12]
1195:Drivers/STM32F4xx_HAL_Driver/Src/stm32f4xx_hal_uart.c **** 
1196:Drivers/STM32F4xx_HAL_Driver/Src/stm32f4xx_hal_uart.c ****   /* Disable the UART DMA Tx request if enabled */
1197:Drivers/STM32F4xx_HAL_Driver/Src/stm32f4xx_hal_uart.c ****   if(HAL_IS_BIT_SET(huart->Instance->CR3, USART_CR3_DMAT))
 2302              		.loc 1 1197 0
 2303 0018 7B68     		ldr	r3, [r7, #4]
 2304 001a 1B68     		ldr	r3, [r3]
 2305 001c 5B69     		ldr	r3, [r3, #20]
 2306 001e 03F08003 		and	r3, r3, #128
 2307 0022 002B     		cmp	r3, #0
 2308 0024 14D0     		beq	.L99
1198:Drivers/STM32F4xx_HAL_Driver/Src/stm32f4xx_hal_uart.c ****   {
1199:Drivers/STM32F4xx_HAL_Driver/Src/stm32f4xx_hal_uart.c ****     CLEAR_BIT(huart->Instance->CR3, USART_CR3_DMAT);
 2309              		.loc 1 1199 0
 2310 0026 7B68     		ldr	r3, [r7, #4]
 2311 0028 1B68     		ldr	r3, [r3]
ARM GAS  /tmp/ccLJIDLw.s 			page 62


 2312 002a 7A68     		ldr	r2, [r7, #4]
 2313 002c 1268     		ldr	r2, [r2]
 2314 002e 5269     		ldr	r2, [r2, #20]
 2315 0030 22F08002 		bic	r2, r2, #128
 2316 0034 5A61     		str	r2, [r3, #20]
1200:Drivers/STM32F4xx_HAL_Driver/Src/stm32f4xx_hal_uart.c **** 
1201:Drivers/STM32F4xx_HAL_Driver/Src/stm32f4xx_hal_uart.c ****     /* Abort the UART DMA Tx channel : use blocking DMA Abort API (no callback) */
1202:Drivers/STM32F4xx_HAL_Driver/Src/stm32f4xx_hal_uart.c ****     if(huart->hdmatx != NULL)
 2317              		.loc 1 1202 0
 2318 0036 7B68     		ldr	r3, [r7, #4]
 2319 0038 1B6B     		ldr	r3, [r3, #48]
 2320 003a 002B     		cmp	r3, #0
 2321 003c 08D0     		beq	.L99
1203:Drivers/STM32F4xx_HAL_Driver/Src/stm32f4xx_hal_uart.c ****     {
1204:Drivers/STM32F4xx_HAL_Driver/Src/stm32f4xx_hal_uart.c ****       /* Set the UART DMA Abort callback to Null. 
1205:Drivers/STM32F4xx_HAL_Driver/Src/stm32f4xx_hal_uart.c ****          No call back execution at end of DMA abort procedure */
1206:Drivers/STM32F4xx_HAL_Driver/Src/stm32f4xx_hal_uart.c ****       huart->hdmatx->XferAbortCallback = NULL;
 2322              		.loc 1 1206 0
 2323 003e 7B68     		ldr	r3, [r7, #4]
 2324 0040 1B6B     		ldr	r3, [r3, #48]
 2325 0042 0022     		movs	r2, #0
 2326 0044 1A65     		str	r2, [r3, #80]
1207:Drivers/STM32F4xx_HAL_Driver/Src/stm32f4xx_hal_uart.c **** 
1208:Drivers/STM32F4xx_HAL_Driver/Src/stm32f4xx_hal_uart.c ****       HAL_DMA_Abort(huart->hdmatx);
 2327              		.loc 1 1208 0
 2328 0046 7B68     		ldr	r3, [r7, #4]
 2329 0048 1B6B     		ldr	r3, [r3, #48]
 2330 004a 1846     		mov	r0, r3
 2331 004c FFF7FEFF 		bl	HAL_DMA_Abort
 2332              	.L99:
1209:Drivers/STM32F4xx_HAL_Driver/Src/stm32f4xx_hal_uart.c ****     }
1210:Drivers/STM32F4xx_HAL_Driver/Src/stm32f4xx_hal_uart.c ****   }
1211:Drivers/STM32F4xx_HAL_Driver/Src/stm32f4xx_hal_uart.c **** 
1212:Drivers/STM32F4xx_HAL_Driver/Src/stm32f4xx_hal_uart.c ****   /* Reset Tx transfer counter */
1213:Drivers/STM32F4xx_HAL_Driver/Src/stm32f4xx_hal_uart.c ****   huart->TxXferCount = 0x00U;
 2333              		.loc 1 1213 0
 2334 0050 7B68     		ldr	r3, [r7, #4]
 2335 0052 0022     		movs	r2, #0
 2336 0054 DA84     		strh	r2, [r3, #38]	@ movhi
1214:Drivers/STM32F4xx_HAL_Driver/Src/stm32f4xx_hal_uart.c **** 
1215:Drivers/STM32F4xx_HAL_Driver/Src/stm32f4xx_hal_uart.c ****   /* Restore huart->gState to Ready */
1216:Drivers/STM32F4xx_HAL_Driver/Src/stm32f4xx_hal_uart.c ****   huart->gState = HAL_UART_STATE_READY;
 2337              		.loc 1 1216 0
 2338 0056 7B68     		ldr	r3, [r7, #4]
 2339 0058 2022     		movs	r2, #32
 2340 005a 83F83920 		strb	r2, [r3, #57]
1217:Drivers/STM32F4xx_HAL_Driver/Src/stm32f4xx_hal_uart.c **** 
1218:Drivers/STM32F4xx_HAL_Driver/Src/stm32f4xx_hal_uart.c ****   return HAL_OK;
 2341              		.loc 1 1218 0
 2342 005e 0023     		movs	r3, #0
1219:Drivers/STM32F4xx_HAL_Driver/Src/stm32f4xx_hal_uart.c **** }
 2343              		.loc 1 1219 0
 2344 0060 1846     		mov	r0, r3
 2345 0062 0837     		adds	r7, r7, #8
 2346              	.LCFI94:
 2347              		.cfi_def_cfa_offset 8
 2348 0064 BD46     		mov	sp, r7
ARM GAS  /tmp/ccLJIDLw.s 			page 63


 2349              	.LCFI95:
 2350              		.cfi_def_cfa_register 13
 2351              		@ sp needed
 2352 0066 80BD     		pop	{r7, pc}
 2353              		.cfi_endproc
 2354              	.LFE141:
 2356              		.section	.text.HAL_UART_AbortReceive,"ax",%progbits
 2357              		.align	1
 2358              		.global	HAL_UART_AbortReceive
 2359              		.syntax unified
 2360              		.thumb
 2361              		.thumb_func
 2362              		.fpu fpv4-sp-d16
 2364              	HAL_UART_AbortReceive:
 2365              	.LFB142:
1220:Drivers/STM32F4xx_HAL_Driver/Src/stm32f4xx_hal_uart.c **** 
1221:Drivers/STM32F4xx_HAL_Driver/Src/stm32f4xx_hal_uart.c **** /**
1222:Drivers/STM32F4xx_HAL_Driver/Src/stm32f4xx_hal_uart.c ****   * @brief  Abort ongoing Receive transfer (blocking mode).
1223:Drivers/STM32F4xx_HAL_Driver/Src/stm32f4xx_hal_uart.c ****   * @param  huart UART handle.
1224:Drivers/STM32F4xx_HAL_Driver/Src/stm32f4xx_hal_uart.c ****   * @note   This procedure could be used for aborting any ongoing transfer started in Interrupt or 
1225:Drivers/STM32F4xx_HAL_Driver/Src/stm32f4xx_hal_uart.c ****   *         This procedure performs following operations :
1226:Drivers/STM32F4xx_HAL_Driver/Src/stm32f4xx_hal_uart.c ****   *           - Disable PPP Interrupts
1227:Drivers/STM32F4xx_HAL_Driver/Src/stm32f4xx_hal_uart.c ****   *           - Disable the DMA transfer in the peripheral register (if enabled)
1228:Drivers/STM32F4xx_HAL_Driver/Src/stm32f4xx_hal_uart.c ****   *           - Abort DMA transfer by calling HAL_DMA_Abort (in case of transfer in DMA mode)
1229:Drivers/STM32F4xx_HAL_Driver/Src/stm32f4xx_hal_uart.c ****   *           - Set handle State to READY
1230:Drivers/STM32F4xx_HAL_Driver/Src/stm32f4xx_hal_uart.c ****   * @note   This procedure is executed in blocking mode : when exiting function, Abort is considere
1231:Drivers/STM32F4xx_HAL_Driver/Src/stm32f4xx_hal_uart.c ****   * @retval HAL status
1232:Drivers/STM32F4xx_HAL_Driver/Src/stm32f4xx_hal_uart.c **** */
1233:Drivers/STM32F4xx_HAL_Driver/Src/stm32f4xx_hal_uart.c **** HAL_StatusTypeDef HAL_UART_AbortReceive(UART_HandleTypeDef *huart)
1234:Drivers/STM32F4xx_HAL_Driver/Src/stm32f4xx_hal_uart.c **** {
 2366              		.loc 1 1234 0
 2367              		.cfi_startproc
 2368              		@ args = 0, pretend = 0, frame = 8
 2369              		@ frame_needed = 1, uses_anonymous_args = 0
 2370 0000 80B5     		push	{r7, lr}
 2371              	.LCFI96:
 2372              		.cfi_def_cfa_offset 8
 2373              		.cfi_offset 7, -8
 2374              		.cfi_offset 14, -4
 2375 0002 82B0     		sub	sp, sp, #8
 2376              	.LCFI97:
 2377              		.cfi_def_cfa_offset 16
 2378 0004 00AF     		add	r7, sp, #0
 2379              	.LCFI98:
 2380              		.cfi_def_cfa_register 7
 2381 0006 7860     		str	r0, [r7, #4]
1235:Drivers/STM32F4xx_HAL_Driver/Src/stm32f4xx_hal_uart.c ****   /* Disable RXNE, PE and ERR (Frame error, noise error, overrun error) interrupts */
1236:Drivers/STM32F4xx_HAL_Driver/Src/stm32f4xx_hal_uart.c ****   CLEAR_BIT(huart->Instance->CR1, (USART_CR1_RXNEIE | USART_CR1_PEIE));
 2382              		.loc 1 1236 0
 2383 0008 7B68     		ldr	r3, [r7, #4]
 2384 000a 1B68     		ldr	r3, [r3]
 2385 000c 7A68     		ldr	r2, [r7, #4]
 2386 000e 1268     		ldr	r2, [r2]
 2387 0010 D268     		ldr	r2, [r2, #12]
 2388 0012 22F49072 		bic	r2, r2, #288
 2389 0016 DA60     		str	r2, [r3, #12]
1237:Drivers/STM32F4xx_HAL_Driver/Src/stm32f4xx_hal_uart.c ****   CLEAR_BIT(huart->Instance->CR3, USART_CR3_EIE);
ARM GAS  /tmp/ccLJIDLw.s 			page 64


 2390              		.loc 1 1237 0
 2391 0018 7B68     		ldr	r3, [r7, #4]
 2392 001a 1B68     		ldr	r3, [r3]
 2393 001c 7A68     		ldr	r2, [r7, #4]
 2394 001e 1268     		ldr	r2, [r2]
 2395 0020 5269     		ldr	r2, [r2, #20]
 2396 0022 22F00102 		bic	r2, r2, #1
 2397 0026 5A61     		str	r2, [r3, #20]
1238:Drivers/STM32F4xx_HAL_Driver/Src/stm32f4xx_hal_uart.c **** 
1239:Drivers/STM32F4xx_HAL_Driver/Src/stm32f4xx_hal_uart.c ****   /* Disable the UART DMA Rx request if enabled */
1240:Drivers/STM32F4xx_HAL_Driver/Src/stm32f4xx_hal_uart.c ****   if(HAL_IS_BIT_SET(huart->Instance->CR3, USART_CR3_DMAR))
 2398              		.loc 1 1240 0
 2399 0028 7B68     		ldr	r3, [r7, #4]
 2400 002a 1B68     		ldr	r3, [r3]
 2401 002c 5B69     		ldr	r3, [r3, #20]
 2402 002e 03F04003 		and	r3, r3, #64
 2403 0032 002B     		cmp	r3, #0
 2404 0034 14D0     		beq	.L102
1241:Drivers/STM32F4xx_HAL_Driver/Src/stm32f4xx_hal_uart.c ****   {
1242:Drivers/STM32F4xx_HAL_Driver/Src/stm32f4xx_hal_uart.c ****     CLEAR_BIT(huart->Instance->CR3, USART_CR3_DMAR);
 2405              		.loc 1 1242 0
 2406 0036 7B68     		ldr	r3, [r7, #4]
 2407 0038 1B68     		ldr	r3, [r3]
 2408 003a 7A68     		ldr	r2, [r7, #4]
 2409 003c 1268     		ldr	r2, [r2]
 2410 003e 5269     		ldr	r2, [r2, #20]
 2411 0040 22F04002 		bic	r2, r2, #64
 2412 0044 5A61     		str	r2, [r3, #20]
1243:Drivers/STM32F4xx_HAL_Driver/Src/stm32f4xx_hal_uart.c **** 
1244:Drivers/STM32F4xx_HAL_Driver/Src/stm32f4xx_hal_uart.c ****     /* Abort the UART DMA Rx channel : use blocking DMA Abort API (no callback) */
1245:Drivers/STM32F4xx_HAL_Driver/Src/stm32f4xx_hal_uart.c ****     if(huart->hdmarx != NULL)
 2413              		.loc 1 1245 0
 2414 0046 7B68     		ldr	r3, [r7, #4]
 2415 0048 5B6B     		ldr	r3, [r3, #52]
 2416 004a 002B     		cmp	r3, #0
 2417 004c 08D0     		beq	.L102
1246:Drivers/STM32F4xx_HAL_Driver/Src/stm32f4xx_hal_uart.c ****     {
1247:Drivers/STM32F4xx_HAL_Driver/Src/stm32f4xx_hal_uart.c ****       /* Set the UART DMA Abort callback to Null. 
1248:Drivers/STM32F4xx_HAL_Driver/Src/stm32f4xx_hal_uart.c ****          No call back execution at end of DMA abort procedure */
1249:Drivers/STM32F4xx_HAL_Driver/Src/stm32f4xx_hal_uart.c ****       huart->hdmarx->XferAbortCallback = NULL;
 2418              		.loc 1 1249 0
 2419 004e 7B68     		ldr	r3, [r7, #4]
 2420 0050 5B6B     		ldr	r3, [r3, #52]
 2421 0052 0022     		movs	r2, #0
 2422 0054 1A65     		str	r2, [r3, #80]
1250:Drivers/STM32F4xx_HAL_Driver/Src/stm32f4xx_hal_uart.c **** 
1251:Drivers/STM32F4xx_HAL_Driver/Src/stm32f4xx_hal_uart.c ****       HAL_DMA_Abort(huart->hdmarx);
 2423              		.loc 1 1251 0
 2424 0056 7B68     		ldr	r3, [r7, #4]
 2425 0058 5B6B     		ldr	r3, [r3, #52]
 2426 005a 1846     		mov	r0, r3
 2427 005c FFF7FEFF 		bl	HAL_DMA_Abort
 2428              	.L102:
1252:Drivers/STM32F4xx_HAL_Driver/Src/stm32f4xx_hal_uart.c ****     }
1253:Drivers/STM32F4xx_HAL_Driver/Src/stm32f4xx_hal_uart.c ****   }
1254:Drivers/STM32F4xx_HAL_Driver/Src/stm32f4xx_hal_uart.c **** 
1255:Drivers/STM32F4xx_HAL_Driver/Src/stm32f4xx_hal_uart.c ****   /* Reset Rx transfer counter */
ARM GAS  /tmp/ccLJIDLw.s 			page 65


1256:Drivers/STM32F4xx_HAL_Driver/Src/stm32f4xx_hal_uart.c ****   huart->RxXferCount = 0x00U;
 2429              		.loc 1 1256 0
 2430 0060 7B68     		ldr	r3, [r7, #4]
 2431 0062 0022     		movs	r2, #0
 2432 0064 DA85     		strh	r2, [r3, #46]	@ movhi
1257:Drivers/STM32F4xx_HAL_Driver/Src/stm32f4xx_hal_uart.c **** 
1258:Drivers/STM32F4xx_HAL_Driver/Src/stm32f4xx_hal_uart.c ****   /* Restore huart->RxState to Ready */
1259:Drivers/STM32F4xx_HAL_Driver/Src/stm32f4xx_hal_uart.c ****   huart->RxState = HAL_UART_STATE_READY;
 2433              		.loc 1 1259 0
 2434 0066 7B68     		ldr	r3, [r7, #4]
 2435 0068 2022     		movs	r2, #32
 2436 006a 83F83A20 		strb	r2, [r3, #58]
1260:Drivers/STM32F4xx_HAL_Driver/Src/stm32f4xx_hal_uart.c **** 
1261:Drivers/STM32F4xx_HAL_Driver/Src/stm32f4xx_hal_uart.c ****   return HAL_OK;
 2437              		.loc 1 1261 0
 2438 006e 0023     		movs	r3, #0
1262:Drivers/STM32F4xx_HAL_Driver/Src/stm32f4xx_hal_uart.c **** }
 2439              		.loc 1 1262 0
 2440 0070 1846     		mov	r0, r3
 2441 0072 0837     		adds	r7, r7, #8
 2442              	.LCFI99:
 2443              		.cfi_def_cfa_offset 8
 2444 0074 BD46     		mov	sp, r7
 2445              	.LCFI100:
 2446              		.cfi_def_cfa_register 13
 2447              		@ sp needed
 2448 0076 80BD     		pop	{r7, pc}
 2449              		.cfi_endproc
 2450              	.LFE142:
 2452              		.section	.text.HAL_UART_Abort_IT,"ax",%progbits
 2453              		.align	1
 2454              		.global	HAL_UART_Abort_IT
 2455              		.syntax unified
 2456              		.thumb
 2457              		.thumb_func
 2458              		.fpu fpv4-sp-d16
 2460              	HAL_UART_Abort_IT:
 2461              	.LFB143:
1263:Drivers/STM32F4xx_HAL_Driver/Src/stm32f4xx_hal_uart.c **** 
1264:Drivers/STM32F4xx_HAL_Driver/Src/stm32f4xx_hal_uart.c **** /**
1265:Drivers/STM32F4xx_HAL_Driver/Src/stm32f4xx_hal_uart.c ****   * @brief  Abort ongoing transfers (Interrupt mode).
1266:Drivers/STM32F4xx_HAL_Driver/Src/stm32f4xx_hal_uart.c ****   * @param  huart UART handle.
1267:Drivers/STM32F4xx_HAL_Driver/Src/stm32f4xx_hal_uart.c ****   * @note   This procedure could be used for aborting any ongoing transfer started in Interrupt or 
1268:Drivers/STM32F4xx_HAL_Driver/Src/stm32f4xx_hal_uart.c ****   *         This procedure performs following operations :
1269:Drivers/STM32F4xx_HAL_Driver/Src/stm32f4xx_hal_uart.c ****   *           - Disable PPP Interrupts
1270:Drivers/STM32F4xx_HAL_Driver/Src/stm32f4xx_hal_uart.c ****   *           - Disable the DMA transfer in the peripheral register (if enabled)
1271:Drivers/STM32F4xx_HAL_Driver/Src/stm32f4xx_hal_uart.c ****   *           - Abort DMA transfer by calling HAL_DMA_Abort_IT (in case of transfer in DMA mode)
1272:Drivers/STM32F4xx_HAL_Driver/Src/stm32f4xx_hal_uart.c ****   *           - Set handle State to READY
1273:Drivers/STM32F4xx_HAL_Driver/Src/stm32f4xx_hal_uart.c ****   *           - At abort completion, call user abort complete callback
1274:Drivers/STM32F4xx_HAL_Driver/Src/stm32f4xx_hal_uart.c ****   * @note   This procedure is executed in Interrupt mode, meaning that abort procedure could be
1275:Drivers/STM32F4xx_HAL_Driver/Src/stm32f4xx_hal_uart.c ****   *         considered as completed only when user abort complete callback is executed (not when ex
1276:Drivers/STM32F4xx_HAL_Driver/Src/stm32f4xx_hal_uart.c ****   * @retval HAL status
1277:Drivers/STM32F4xx_HAL_Driver/Src/stm32f4xx_hal_uart.c **** */
1278:Drivers/STM32F4xx_HAL_Driver/Src/stm32f4xx_hal_uart.c **** HAL_StatusTypeDef HAL_UART_Abort_IT(UART_HandleTypeDef *huart)
1279:Drivers/STM32F4xx_HAL_Driver/Src/stm32f4xx_hal_uart.c **** {
 2462              		.loc 1 1279 0
 2463              		.cfi_startproc
ARM GAS  /tmp/ccLJIDLw.s 			page 66


 2464              		@ args = 0, pretend = 0, frame = 16
 2465              		@ frame_needed = 1, uses_anonymous_args = 0
 2466 0000 80B5     		push	{r7, lr}
 2467              	.LCFI101:
 2468              		.cfi_def_cfa_offset 8
 2469              		.cfi_offset 7, -8
 2470              		.cfi_offset 14, -4
 2471 0002 84B0     		sub	sp, sp, #16
 2472              	.LCFI102:
 2473              		.cfi_def_cfa_offset 24
 2474 0004 00AF     		add	r7, sp, #0
 2475              	.LCFI103:
 2476              		.cfi_def_cfa_register 7
 2477 0006 7860     		str	r0, [r7, #4]
1280:Drivers/STM32F4xx_HAL_Driver/Src/stm32f4xx_hal_uart.c ****   uint32_t AbortCplt = 0x01U;
 2478              		.loc 1 1280 0
 2479 0008 0123     		movs	r3, #1
 2480 000a FB60     		str	r3, [r7, #12]
1281:Drivers/STM32F4xx_HAL_Driver/Src/stm32f4xx_hal_uart.c **** 
1282:Drivers/STM32F4xx_HAL_Driver/Src/stm32f4xx_hal_uart.c ****   /* Disable TXEIE, TCIE, RXNE, PE and ERR (Frame error, noise error, overrun error) interrupts */
1283:Drivers/STM32F4xx_HAL_Driver/Src/stm32f4xx_hal_uart.c ****   CLEAR_BIT(huart->Instance->CR1, (USART_CR1_RXNEIE | USART_CR1_PEIE | USART_CR1_TXEIE | USART_CR1_
 2481              		.loc 1 1283 0
 2482 000c 7B68     		ldr	r3, [r7, #4]
 2483 000e 1B68     		ldr	r3, [r3]
 2484 0010 7A68     		ldr	r2, [r7, #4]
 2485 0012 1268     		ldr	r2, [r2]
 2486 0014 D268     		ldr	r2, [r2, #12]
 2487 0016 22F4F072 		bic	r2, r2, #480
 2488 001a DA60     		str	r2, [r3, #12]
1284:Drivers/STM32F4xx_HAL_Driver/Src/stm32f4xx_hal_uart.c ****   CLEAR_BIT(huart->Instance->CR3, USART_CR3_EIE);
 2489              		.loc 1 1284 0
 2490 001c 7B68     		ldr	r3, [r7, #4]
 2491 001e 1B68     		ldr	r3, [r3]
 2492 0020 7A68     		ldr	r2, [r7, #4]
 2493 0022 1268     		ldr	r2, [r2]
 2494 0024 5269     		ldr	r2, [r2, #20]
 2495 0026 22F00102 		bic	r2, r2, #1
 2496 002a 5A61     		str	r2, [r3, #20]
1285:Drivers/STM32F4xx_HAL_Driver/Src/stm32f4xx_hal_uart.c **** 
1286:Drivers/STM32F4xx_HAL_Driver/Src/stm32f4xx_hal_uart.c ****   /* If DMA Tx and/or DMA Rx Handles are associated to UART Handle, DMA Abort complete callbacks sh
1287:Drivers/STM32F4xx_HAL_Driver/Src/stm32f4xx_hal_uart.c ****      before any call to DMA Abort functions */
1288:Drivers/STM32F4xx_HAL_Driver/Src/stm32f4xx_hal_uart.c ****   /* DMA Tx Handle is valid */
1289:Drivers/STM32F4xx_HAL_Driver/Src/stm32f4xx_hal_uart.c ****   if(huart->hdmatx != NULL)
 2497              		.loc 1 1289 0
 2498 002c 7B68     		ldr	r3, [r7, #4]
 2499 002e 1B6B     		ldr	r3, [r3, #48]
 2500 0030 002B     		cmp	r3, #0
 2501 0032 0FD0     		beq	.L105
1290:Drivers/STM32F4xx_HAL_Driver/Src/stm32f4xx_hal_uart.c ****   {
1291:Drivers/STM32F4xx_HAL_Driver/Src/stm32f4xx_hal_uart.c ****     /* Set DMA Abort Complete callback if UART DMA Tx request if enabled.
1292:Drivers/STM32F4xx_HAL_Driver/Src/stm32f4xx_hal_uart.c ****        Otherwise, set it to NULL */
1293:Drivers/STM32F4xx_HAL_Driver/Src/stm32f4xx_hal_uart.c ****     if(HAL_IS_BIT_SET(huart->Instance->CR3, USART_CR3_DMAT))
 2502              		.loc 1 1293 0
 2503 0034 7B68     		ldr	r3, [r7, #4]
 2504 0036 1B68     		ldr	r3, [r3]
 2505 0038 5B69     		ldr	r3, [r3, #20]
 2506 003a 03F08003 		and	r3, r3, #128
ARM GAS  /tmp/ccLJIDLw.s 			page 67


 2507 003e 002B     		cmp	r3, #0
 2508 0040 04D0     		beq	.L106
1294:Drivers/STM32F4xx_HAL_Driver/Src/stm32f4xx_hal_uart.c ****     {
1295:Drivers/STM32F4xx_HAL_Driver/Src/stm32f4xx_hal_uart.c ****       huart->hdmatx->XferAbortCallback = UART_DMATxAbortCallback;
 2509              		.loc 1 1295 0
 2510 0042 7B68     		ldr	r3, [r7, #4]
 2511 0044 1B6B     		ldr	r3, [r3, #48]
 2512 0046 3E4A     		ldr	r2, .L115
 2513 0048 1A65     		str	r2, [r3, #80]
 2514 004a 03E0     		b	.L105
 2515              	.L106:
1296:Drivers/STM32F4xx_HAL_Driver/Src/stm32f4xx_hal_uart.c ****     }
1297:Drivers/STM32F4xx_HAL_Driver/Src/stm32f4xx_hal_uart.c ****     else
1298:Drivers/STM32F4xx_HAL_Driver/Src/stm32f4xx_hal_uart.c ****     {
1299:Drivers/STM32F4xx_HAL_Driver/Src/stm32f4xx_hal_uart.c ****       huart->hdmatx->XferAbortCallback = NULL;
 2516              		.loc 1 1299 0
 2517 004c 7B68     		ldr	r3, [r7, #4]
 2518 004e 1B6B     		ldr	r3, [r3, #48]
 2519 0050 0022     		movs	r2, #0
 2520 0052 1A65     		str	r2, [r3, #80]
 2521              	.L105:
1300:Drivers/STM32F4xx_HAL_Driver/Src/stm32f4xx_hal_uart.c ****     }
1301:Drivers/STM32F4xx_HAL_Driver/Src/stm32f4xx_hal_uart.c ****   }
1302:Drivers/STM32F4xx_HAL_Driver/Src/stm32f4xx_hal_uart.c ****   /* DMA Rx Handle is valid */
1303:Drivers/STM32F4xx_HAL_Driver/Src/stm32f4xx_hal_uart.c ****   if(huart->hdmarx != NULL)
 2522              		.loc 1 1303 0
 2523 0054 7B68     		ldr	r3, [r7, #4]
 2524 0056 5B6B     		ldr	r3, [r3, #52]
 2525 0058 002B     		cmp	r3, #0
 2526 005a 0FD0     		beq	.L107
1304:Drivers/STM32F4xx_HAL_Driver/Src/stm32f4xx_hal_uart.c ****   {
1305:Drivers/STM32F4xx_HAL_Driver/Src/stm32f4xx_hal_uart.c ****     /* Set DMA Abort Complete callback if UART DMA Rx request if enabled.
1306:Drivers/STM32F4xx_HAL_Driver/Src/stm32f4xx_hal_uart.c ****        Otherwise, set it to NULL */
1307:Drivers/STM32F4xx_HAL_Driver/Src/stm32f4xx_hal_uart.c ****     if(HAL_IS_BIT_SET(huart->Instance->CR3, USART_CR3_DMAR))
 2527              		.loc 1 1307 0
 2528 005c 7B68     		ldr	r3, [r7, #4]
 2529 005e 1B68     		ldr	r3, [r3]
 2530 0060 5B69     		ldr	r3, [r3, #20]
 2531 0062 03F04003 		and	r3, r3, #64
 2532 0066 002B     		cmp	r3, #0
 2533 0068 04D0     		beq	.L108
1308:Drivers/STM32F4xx_HAL_Driver/Src/stm32f4xx_hal_uart.c ****     {
1309:Drivers/STM32F4xx_HAL_Driver/Src/stm32f4xx_hal_uart.c ****       huart->hdmarx->XferAbortCallback = UART_DMARxAbortCallback;
 2534              		.loc 1 1309 0
 2535 006a 7B68     		ldr	r3, [r7, #4]
 2536 006c 5B6B     		ldr	r3, [r3, #52]
 2537 006e 354A     		ldr	r2, .L115+4
 2538 0070 1A65     		str	r2, [r3, #80]
 2539 0072 03E0     		b	.L107
 2540              	.L108:
1310:Drivers/STM32F4xx_HAL_Driver/Src/stm32f4xx_hal_uart.c ****     }
1311:Drivers/STM32F4xx_HAL_Driver/Src/stm32f4xx_hal_uart.c ****     else
1312:Drivers/STM32F4xx_HAL_Driver/Src/stm32f4xx_hal_uart.c ****     {
1313:Drivers/STM32F4xx_HAL_Driver/Src/stm32f4xx_hal_uart.c ****       huart->hdmarx->XferAbortCallback = NULL;
 2541              		.loc 1 1313 0
 2542 0074 7B68     		ldr	r3, [r7, #4]
 2543 0076 5B6B     		ldr	r3, [r3, #52]
ARM GAS  /tmp/ccLJIDLw.s 			page 68


 2544 0078 0022     		movs	r2, #0
 2545 007a 1A65     		str	r2, [r3, #80]
 2546              	.L107:
1314:Drivers/STM32F4xx_HAL_Driver/Src/stm32f4xx_hal_uart.c ****     }
1315:Drivers/STM32F4xx_HAL_Driver/Src/stm32f4xx_hal_uart.c ****   }
1316:Drivers/STM32F4xx_HAL_Driver/Src/stm32f4xx_hal_uart.c **** 
1317:Drivers/STM32F4xx_HAL_Driver/Src/stm32f4xx_hal_uart.c ****   /* Disable the UART DMA Tx request if enabled */
1318:Drivers/STM32F4xx_HAL_Driver/Src/stm32f4xx_hal_uart.c ****   if(HAL_IS_BIT_SET(huart->Instance->CR3, USART_CR3_DMAT))
 2547              		.loc 1 1318 0
 2548 007c 7B68     		ldr	r3, [r7, #4]
 2549 007e 1B68     		ldr	r3, [r3]
 2550 0080 5B69     		ldr	r3, [r3, #20]
 2551 0082 03F08003 		and	r3, r3, #128
 2552 0086 002B     		cmp	r3, #0
 2553 0088 1AD0     		beq	.L109
1319:Drivers/STM32F4xx_HAL_Driver/Src/stm32f4xx_hal_uart.c ****   {
1320:Drivers/STM32F4xx_HAL_Driver/Src/stm32f4xx_hal_uart.c ****     /* Disable DMA Tx at UART level */
1321:Drivers/STM32F4xx_HAL_Driver/Src/stm32f4xx_hal_uart.c ****     CLEAR_BIT(huart->Instance->CR3, USART_CR3_DMAT);
 2554              		.loc 1 1321 0
 2555 008a 7B68     		ldr	r3, [r7, #4]
 2556 008c 1B68     		ldr	r3, [r3]
 2557 008e 7A68     		ldr	r2, [r7, #4]
 2558 0090 1268     		ldr	r2, [r2]
 2559 0092 5269     		ldr	r2, [r2, #20]
 2560 0094 22F08002 		bic	r2, r2, #128
 2561 0098 5A61     		str	r2, [r3, #20]
1322:Drivers/STM32F4xx_HAL_Driver/Src/stm32f4xx_hal_uart.c **** 
1323:Drivers/STM32F4xx_HAL_Driver/Src/stm32f4xx_hal_uart.c ****     /* Abort the UART DMA Tx channel : use non blocking DMA Abort API (callback) */
1324:Drivers/STM32F4xx_HAL_Driver/Src/stm32f4xx_hal_uart.c ****     if(huart->hdmatx != NULL)
 2562              		.loc 1 1324 0
 2563 009a 7B68     		ldr	r3, [r7, #4]
 2564 009c 1B6B     		ldr	r3, [r3, #48]
 2565 009e 002B     		cmp	r3, #0
 2566 00a0 0ED0     		beq	.L109
1325:Drivers/STM32F4xx_HAL_Driver/Src/stm32f4xx_hal_uart.c ****     {
1326:Drivers/STM32F4xx_HAL_Driver/Src/stm32f4xx_hal_uart.c ****       /* UART Tx DMA Abort callback has already been initialised : 
1327:Drivers/STM32F4xx_HAL_Driver/Src/stm32f4xx_hal_uart.c ****          will lead to call HAL_UART_AbortCpltCallback() at end of DMA abort procedure */
1328:Drivers/STM32F4xx_HAL_Driver/Src/stm32f4xx_hal_uart.c **** 
1329:Drivers/STM32F4xx_HAL_Driver/Src/stm32f4xx_hal_uart.c ****       /* Abort DMA TX */
1330:Drivers/STM32F4xx_HAL_Driver/Src/stm32f4xx_hal_uart.c ****       if(HAL_DMA_Abort_IT(huart->hdmatx) != HAL_OK)
 2567              		.loc 1 1330 0
 2568 00a2 7B68     		ldr	r3, [r7, #4]
 2569 00a4 1B6B     		ldr	r3, [r3, #48]
 2570 00a6 1846     		mov	r0, r3
 2571 00a8 FFF7FEFF 		bl	HAL_DMA_Abort_IT
 2572 00ac 0346     		mov	r3, r0
 2573 00ae 002B     		cmp	r3, #0
 2574 00b0 04D0     		beq	.L110
1331:Drivers/STM32F4xx_HAL_Driver/Src/stm32f4xx_hal_uart.c ****       {
1332:Drivers/STM32F4xx_HAL_Driver/Src/stm32f4xx_hal_uart.c ****         huart->hdmatx->XferAbortCallback = NULL;
 2575              		.loc 1 1332 0
 2576 00b2 7B68     		ldr	r3, [r7, #4]
 2577 00b4 1B6B     		ldr	r3, [r3, #48]
 2578 00b6 0022     		movs	r2, #0
 2579 00b8 1A65     		str	r2, [r3, #80]
 2580 00ba 01E0     		b	.L109
 2581              	.L110:
ARM GAS  /tmp/ccLJIDLw.s 			page 69


1333:Drivers/STM32F4xx_HAL_Driver/Src/stm32f4xx_hal_uart.c ****       }
1334:Drivers/STM32F4xx_HAL_Driver/Src/stm32f4xx_hal_uart.c ****       else
1335:Drivers/STM32F4xx_HAL_Driver/Src/stm32f4xx_hal_uart.c ****       {
1336:Drivers/STM32F4xx_HAL_Driver/Src/stm32f4xx_hal_uart.c ****         AbortCplt = 0x00U;
 2582              		.loc 1 1336 0
 2583 00bc 0023     		movs	r3, #0
 2584 00be FB60     		str	r3, [r7, #12]
 2585              	.L109:
1337:Drivers/STM32F4xx_HAL_Driver/Src/stm32f4xx_hal_uart.c ****       }
1338:Drivers/STM32F4xx_HAL_Driver/Src/stm32f4xx_hal_uart.c ****     }
1339:Drivers/STM32F4xx_HAL_Driver/Src/stm32f4xx_hal_uart.c ****   }
1340:Drivers/STM32F4xx_HAL_Driver/Src/stm32f4xx_hal_uart.c **** 
1341:Drivers/STM32F4xx_HAL_Driver/Src/stm32f4xx_hal_uart.c ****   /* Disable the UART DMA Rx request if enabled */
1342:Drivers/STM32F4xx_HAL_Driver/Src/stm32f4xx_hal_uart.c ****   if(HAL_IS_BIT_SET(huart->Instance->CR3, USART_CR3_DMAR))
 2586              		.loc 1 1342 0
 2587 00c0 7B68     		ldr	r3, [r7, #4]
 2588 00c2 1B68     		ldr	r3, [r3]
 2589 00c4 5B69     		ldr	r3, [r3, #20]
 2590 00c6 03F04003 		and	r3, r3, #64
 2591 00ca 002B     		cmp	r3, #0
 2592 00cc 1CD0     		beq	.L111
1343:Drivers/STM32F4xx_HAL_Driver/Src/stm32f4xx_hal_uart.c ****   {
1344:Drivers/STM32F4xx_HAL_Driver/Src/stm32f4xx_hal_uart.c ****     CLEAR_BIT(huart->Instance->CR3, USART_CR3_DMAR);
 2593              		.loc 1 1344 0
 2594 00ce 7B68     		ldr	r3, [r7, #4]
 2595 00d0 1B68     		ldr	r3, [r3]
 2596 00d2 7A68     		ldr	r2, [r7, #4]
 2597 00d4 1268     		ldr	r2, [r2]
 2598 00d6 5269     		ldr	r2, [r2, #20]
 2599 00d8 22F04002 		bic	r2, r2, #64
 2600 00dc 5A61     		str	r2, [r3, #20]
1345:Drivers/STM32F4xx_HAL_Driver/Src/stm32f4xx_hal_uart.c **** 
1346:Drivers/STM32F4xx_HAL_Driver/Src/stm32f4xx_hal_uart.c ****     /* Abort the UART DMA Rx channel : use non blocking DMA Abort API (callback) */
1347:Drivers/STM32F4xx_HAL_Driver/Src/stm32f4xx_hal_uart.c ****     if(huart->hdmarx != NULL)
 2601              		.loc 1 1347 0
 2602 00de 7B68     		ldr	r3, [r7, #4]
 2603 00e0 5B6B     		ldr	r3, [r3, #52]
 2604 00e2 002B     		cmp	r3, #0
 2605 00e4 10D0     		beq	.L111
1348:Drivers/STM32F4xx_HAL_Driver/Src/stm32f4xx_hal_uart.c ****     {
1349:Drivers/STM32F4xx_HAL_Driver/Src/stm32f4xx_hal_uart.c ****       /* UART Rx DMA Abort callback has already been initialised : 
1350:Drivers/STM32F4xx_HAL_Driver/Src/stm32f4xx_hal_uart.c ****          will lead to call HAL_UART_AbortCpltCallback() at end of DMA abort procedure */
1351:Drivers/STM32F4xx_HAL_Driver/Src/stm32f4xx_hal_uart.c **** 
1352:Drivers/STM32F4xx_HAL_Driver/Src/stm32f4xx_hal_uart.c ****       /* Abort DMA RX */
1353:Drivers/STM32F4xx_HAL_Driver/Src/stm32f4xx_hal_uart.c ****       if(HAL_DMA_Abort_IT(huart->hdmarx) != HAL_OK)
 2606              		.loc 1 1353 0
 2607 00e6 7B68     		ldr	r3, [r7, #4]
 2608 00e8 5B6B     		ldr	r3, [r3, #52]
 2609 00ea 1846     		mov	r0, r3
 2610 00ec FFF7FEFF 		bl	HAL_DMA_Abort_IT
 2611 00f0 0346     		mov	r3, r0
 2612 00f2 002B     		cmp	r3, #0
 2613 00f4 06D0     		beq	.L112
1354:Drivers/STM32F4xx_HAL_Driver/Src/stm32f4xx_hal_uart.c ****       {
1355:Drivers/STM32F4xx_HAL_Driver/Src/stm32f4xx_hal_uart.c ****         huart->hdmarx->XferAbortCallback = NULL;
 2614              		.loc 1 1355 0
 2615 00f6 7B68     		ldr	r3, [r7, #4]
ARM GAS  /tmp/ccLJIDLw.s 			page 70


 2616 00f8 5B6B     		ldr	r3, [r3, #52]
 2617 00fa 0022     		movs	r2, #0
 2618 00fc 1A65     		str	r2, [r3, #80]
1356:Drivers/STM32F4xx_HAL_Driver/Src/stm32f4xx_hal_uart.c ****         AbortCplt = 0x01U;
 2619              		.loc 1 1356 0
 2620 00fe 0123     		movs	r3, #1
 2621 0100 FB60     		str	r3, [r7, #12]
 2622 0102 01E0     		b	.L111
 2623              	.L112:
1357:Drivers/STM32F4xx_HAL_Driver/Src/stm32f4xx_hal_uart.c ****       }
1358:Drivers/STM32F4xx_HAL_Driver/Src/stm32f4xx_hal_uart.c ****       else
1359:Drivers/STM32F4xx_HAL_Driver/Src/stm32f4xx_hal_uart.c ****       {
1360:Drivers/STM32F4xx_HAL_Driver/Src/stm32f4xx_hal_uart.c ****         AbortCplt = 0x00U;
 2624              		.loc 1 1360 0
 2625 0104 0023     		movs	r3, #0
 2626 0106 FB60     		str	r3, [r7, #12]
 2627              	.L111:
1361:Drivers/STM32F4xx_HAL_Driver/Src/stm32f4xx_hal_uart.c ****       }
1362:Drivers/STM32F4xx_HAL_Driver/Src/stm32f4xx_hal_uart.c ****     }
1363:Drivers/STM32F4xx_HAL_Driver/Src/stm32f4xx_hal_uart.c ****   }
1364:Drivers/STM32F4xx_HAL_Driver/Src/stm32f4xx_hal_uart.c **** 
1365:Drivers/STM32F4xx_HAL_Driver/Src/stm32f4xx_hal_uart.c ****   /* if no DMA abort complete callback execution is required => call user Abort Complete callback *
1366:Drivers/STM32F4xx_HAL_Driver/Src/stm32f4xx_hal_uart.c ****   if(AbortCplt == 0x01U)
 2628              		.loc 1 1366 0
 2629 0108 FB68     		ldr	r3, [r7, #12]
 2630 010a 012B     		cmp	r3, #1
 2631 010c 13D1     		bne	.L113
1367:Drivers/STM32F4xx_HAL_Driver/Src/stm32f4xx_hal_uart.c ****   {
1368:Drivers/STM32F4xx_HAL_Driver/Src/stm32f4xx_hal_uart.c ****     /* Reset Tx and Rx transfer counters */
1369:Drivers/STM32F4xx_HAL_Driver/Src/stm32f4xx_hal_uart.c ****     huart->TxXferCount = 0x00U; 
 2632              		.loc 1 1369 0
 2633 010e 7B68     		ldr	r3, [r7, #4]
 2634 0110 0022     		movs	r2, #0
 2635 0112 DA84     		strh	r2, [r3, #38]	@ movhi
1370:Drivers/STM32F4xx_HAL_Driver/Src/stm32f4xx_hal_uart.c ****     huart->RxXferCount = 0x00U;
 2636              		.loc 1 1370 0
 2637 0114 7B68     		ldr	r3, [r7, #4]
 2638 0116 0022     		movs	r2, #0
 2639 0118 DA85     		strh	r2, [r3, #46]	@ movhi
1371:Drivers/STM32F4xx_HAL_Driver/Src/stm32f4xx_hal_uart.c **** 
1372:Drivers/STM32F4xx_HAL_Driver/Src/stm32f4xx_hal_uart.c ****     /* Reset ErrorCode */
1373:Drivers/STM32F4xx_HAL_Driver/Src/stm32f4xx_hal_uart.c ****     huart->ErrorCode = HAL_UART_ERROR_NONE;
 2640              		.loc 1 1373 0
 2641 011a 7B68     		ldr	r3, [r7, #4]
 2642 011c 0022     		movs	r2, #0
 2643 011e DA63     		str	r2, [r3, #60]
1374:Drivers/STM32F4xx_HAL_Driver/Src/stm32f4xx_hal_uart.c **** 
1375:Drivers/STM32F4xx_HAL_Driver/Src/stm32f4xx_hal_uart.c ****     /* Restore huart->gState and huart->RxState to Ready */
1376:Drivers/STM32F4xx_HAL_Driver/Src/stm32f4xx_hal_uart.c ****     huart->gState  = HAL_UART_STATE_READY;
 2644              		.loc 1 1376 0
 2645 0120 7B68     		ldr	r3, [r7, #4]
 2646 0122 2022     		movs	r2, #32
 2647 0124 83F83920 		strb	r2, [r3, #57]
1377:Drivers/STM32F4xx_HAL_Driver/Src/stm32f4xx_hal_uart.c ****     huart->RxState = HAL_UART_STATE_READY;
 2648              		.loc 1 1377 0
 2649 0128 7B68     		ldr	r3, [r7, #4]
 2650 012a 2022     		movs	r2, #32
ARM GAS  /tmp/ccLJIDLw.s 			page 71


 2651 012c 83F83A20 		strb	r2, [r3, #58]
1378:Drivers/STM32F4xx_HAL_Driver/Src/stm32f4xx_hal_uart.c **** 
1379:Drivers/STM32F4xx_HAL_Driver/Src/stm32f4xx_hal_uart.c ****     /* As no DMA to be aborted, call directly user Abort complete callback */
1380:Drivers/STM32F4xx_HAL_Driver/Src/stm32f4xx_hal_uart.c ****     HAL_UART_AbortCpltCallback(huart);
 2652              		.loc 1 1380 0
 2653 0130 7868     		ldr	r0, [r7, #4]
 2654 0132 FFF7FEFF 		bl	HAL_UART_AbortCpltCallback
 2655              	.L113:
1381:Drivers/STM32F4xx_HAL_Driver/Src/stm32f4xx_hal_uart.c ****   }
1382:Drivers/STM32F4xx_HAL_Driver/Src/stm32f4xx_hal_uart.c **** 
1383:Drivers/STM32F4xx_HAL_Driver/Src/stm32f4xx_hal_uart.c ****   return HAL_OK;
 2656              		.loc 1 1383 0
 2657 0136 0023     		movs	r3, #0
1384:Drivers/STM32F4xx_HAL_Driver/Src/stm32f4xx_hal_uart.c **** }
 2658              		.loc 1 1384 0
 2659 0138 1846     		mov	r0, r3
 2660 013a 1037     		adds	r7, r7, #16
 2661              	.LCFI104:
 2662              		.cfi_def_cfa_offset 8
 2663 013c BD46     		mov	sp, r7
 2664              	.LCFI105:
 2665              		.cfi_def_cfa_register 13
 2666              		@ sp needed
 2667 013e 80BD     		pop	{r7, pc}
 2668              	.L116:
 2669              		.align	2
 2670              	.L115:
 2671 0140 00000000 		.word	UART_DMATxAbortCallback
 2672 0144 00000000 		.word	UART_DMARxAbortCallback
 2673              		.cfi_endproc
 2674              	.LFE143:
 2676              		.section	.text.HAL_UART_AbortTransmit_IT,"ax",%progbits
 2677              		.align	1
 2678              		.global	HAL_UART_AbortTransmit_IT
 2679              		.syntax unified
 2680              		.thumb
 2681              		.thumb_func
 2682              		.fpu fpv4-sp-d16
 2684              	HAL_UART_AbortTransmit_IT:
 2685              	.LFB144:
1385:Drivers/STM32F4xx_HAL_Driver/Src/stm32f4xx_hal_uart.c **** 
1386:Drivers/STM32F4xx_HAL_Driver/Src/stm32f4xx_hal_uart.c **** /**
1387:Drivers/STM32F4xx_HAL_Driver/Src/stm32f4xx_hal_uart.c ****   * @brief  Abort ongoing Transmit transfer (Interrupt mode).
1388:Drivers/STM32F4xx_HAL_Driver/Src/stm32f4xx_hal_uart.c ****   * @param  huart UART handle.
1389:Drivers/STM32F4xx_HAL_Driver/Src/stm32f4xx_hal_uart.c ****   * @note   This procedure could be used for aborting any ongoing transfer started in Interrupt or 
1390:Drivers/STM32F4xx_HAL_Driver/Src/stm32f4xx_hal_uart.c ****   *         This procedure performs following operations :
1391:Drivers/STM32F4xx_HAL_Driver/Src/stm32f4xx_hal_uart.c ****   *           - Disable PPP Interrupts
1392:Drivers/STM32F4xx_HAL_Driver/Src/stm32f4xx_hal_uart.c ****   *           - Disable the DMA transfer in the peripheral register (if enabled)
1393:Drivers/STM32F4xx_HAL_Driver/Src/stm32f4xx_hal_uart.c ****   *           - Abort DMA transfer by calling HAL_DMA_Abort_IT (in case of transfer in DMA mode)
1394:Drivers/STM32F4xx_HAL_Driver/Src/stm32f4xx_hal_uart.c ****   *           - Set handle State to READY
1395:Drivers/STM32F4xx_HAL_Driver/Src/stm32f4xx_hal_uart.c ****   *           - At abort completion, call user abort complete callback
1396:Drivers/STM32F4xx_HAL_Driver/Src/stm32f4xx_hal_uart.c ****   * @note   This procedure is executed in Interrupt mode, meaning that abort procedure could be
1397:Drivers/STM32F4xx_HAL_Driver/Src/stm32f4xx_hal_uart.c ****   *         considered as completed only when user abort complete callback is executed (not when ex
1398:Drivers/STM32F4xx_HAL_Driver/Src/stm32f4xx_hal_uart.c ****   * @retval HAL status
1399:Drivers/STM32F4xx_HAL_Driver/Src/stm32f4xx_hal_uart.c **** */
1400:Drivers/STM32F4xx_HAL_Driver/Src/stm32f4xx_hal_uart.c **** HAL_StatusTypeDef HAL_UART_AbortTransmit_IT(UART_HandleTypeDef *huart)
1401:Drivers/STM32F4xx_HAL_Driver/Src/stm32f4xx_hal_uart.c **** {
ARM GAS  /tmp/ccLJIDLw.s 			page 72


 2686              		.loc 1 1401 0
 2687              		.cfi_startproc
 2688              		@ args = 0, pretend = 0, frame = 8
 2689              		@ frame_needed = 1, uses_anonymous_args = 0
 2690 0000 80B5     		push	{r7, lr}
 2691              	.LCFI106:
 2692              		.cfi_def_cfa_offset 8
 2693              		.cfi_offset 7, -8
 2694              		.cfi_offset 14, -4
 2695 0002 82B0     		sub	sp, sp, #8
 2696              	.LCFI107:
 2697              		.cfi_def_cfa_offset 16
 2698 0004 00AF     		add	r7, sp, #0
 2699              	.LCFI108:
 2700              		.cfi_def_cfa_register 7
 2701 0006 7860     		str	r0, [r7, #4]
1402:Drivers/STM32F4xx_HAL_Driver/Src/stm32f4xx_hal_uart.c ****   /* Disable TXEIE and TCIE interrupts */
1403:Drivers/STM32F4xx_HAL_Driver/Src/stm32f4xx_hal_uart.c ****   CLEAR_BIT(huart->Instance->CR1, (USART_CR1_TXEIE | USART_CR1_TCIE));
 2702              		.loc 1 1403 0
 2703 0008 7B68     		ldr	r3, [r7, #4]
 2704 000a 1B68     		ldr	r3, [r3]
 2705 000c 7A68     		ldr	r2, [r7, #4]
 2706 000e 1268     		ldr	r2, [r2]
 2707 0010 D268     		ldr	r2, [r2, #12]
 2708 0012 22F0C002 		bic	r2, r2, #192
 2709 0016 DA60     		str	r2, [r3, #12]
1404:Drivers/STM32F4xx_HAL_Driver/Src/stm32f4xx_hal_uart.c **** 
1405:Drivers/STM32F4xx_HAL_Driver/Src/stm32f4xx_hal_uart.c ****   /* Disable the UART DMA Tx request if enabled */
1406:Drivers/STM32F4xx_HAL_Driver/Src/stm32f4xx_hal_uart.c ****   if(HAL_IS_BIT_SET(huart->Instance->CR3, USART_CR3_DMAT))
 2710              		.loc 1 1406 0
 2711 0018 7B68     		ldr	r3, [r7, #4]
 2712 001a 1B68     		ldr	r3, [r3]
 2713 001c 5B69     		ldr	r3, [r3, #20]
 2714 001e 03F08003 		and	r3, r3, #128
 2715 0022 002B     		cmp	r3, #0
 2716 0024 2AD0     		beq	.L118
1407:Drivers/STM32F4xx_HAL_Driver/Src/stm32f4xx_hal_uart.c ****   {
1408:Drivers/STM32F4xx_HAL_Driver/Src/stm32f4xx_hal_uart.c ****     CLEAR_BIT(huart->Instance->CR3, USART_CR3_DMAT);
 2717              		.loc 1 1408 0
 2718 0026 7B68     		ldr	r3, [r7, #4]
 2719 0028 1B68     		ldr	r3, [r3]
 2720 002a 7A68     		ldr	r2, [r7, #4]
 2721 002c 1268     		ldr	r2, [r2]
 2722 002e 5269     		ldr	r2, [r2, #20]
 2723 0030 22F08002 		bic	r2, r2, #128
 2724 0034 5A61     		str	r2, [r3, #20]
1409:Drivers/STM32F4xx_HAL_Driver/Src/stm32f4xx_hal_uart.c **** 
1410:Drivers/STM32F4xx_HAL_Driver/Src/stm32f4xx_hal_uart.c ****     /* Abort the UART DMA Tx channel : use blocking DMA Abort API (no callback) */
1411:Drivers/STM32F4xx_HAL_Driver/Src/stm32f4xx_hal_uart.c ****     if(huart->hdmatx != NULL)
 2725              		.loc 1 1411 0
 2726 0036 7B68     		ldr	r3, [r7, #4]
 2727 0038 1B6B     		ldr	r3, [r3, #48]
 2728 003a 002B     		cmp	r3, #0
 2729 003c 13D0     		beq	.L119
1412:Drivers/STM32F4xx_HAL_Driver/Src/stm32f4xx_hal_uart.c ****     {
1413:Drivers/STM32F4xx_HAL_Driver/Src/stm32f4xx_hal_uart.c ****       /* Set the UART DMA Abort callback : 
1414:Drivers/STM32F4xx_HAL_Driver/Src/stm32f4xx_hal_uart.c ****          will lead to call HAL_UART_AbortCpltCallback() at end of DMA abort procedure */
ARM GAS  /tmp/ccLJIDLw.s 			page 73


1415:Drivers/STM32F4xx_HAL_Driver/Src/stm32f4xx_hal_uart.c ****       huart->hdmatx->XferAbortCallback = UART_DMATxOnlyAbortCallback;
 2730              		.loc 1 1415 0
 2731 003e 7B68     		ldr	r3, [r7, #4]
 2732 0040 1B6B     		ldr	r3, [r3, #48]
 2733 0042 164A     		ldr	r2, .L124
 2734 0044 1A65     		str	r2, [r3, #80]
1416:Drivers/STM32F4xx_HAL_Driver/Src/stm32f4xx_hal_uart.c **** 
1417:Drivers/STM32F4xx_HAL_Driver/Src/stm32f4xx_hal_uart.c ****       /* Abort DMA TX */
1418:Drivers/STM32F4xx_HAL_Driver/Src/stm32f4xx_hal_uart.c ****       if(HAL_DMA_Abort_IT(huart->hdmatx) != HAL_OK)
 2735              		.loc 1 1418 0
 2736 0046 7B68     		ldr	r3, [r7, #4]
 2737 0048 1B6B     		ldr	r3, [r3, #48]
 2738 004a 1846     		mov	r0, r3
 2739 004c FFF7FEFF 		bl	HAL_DMA_Abort_IT
 2740 0050 0346     		mov	r3, r0
 2741 0052 002B     		cmp	r3, #0
 2742 0054 1CD0     		beq	.L122
1419:Drivers/STM32F4xx_HAL_Driver/Src/stm32f4xx_hal_uart.c ****       {
1420:Drivers/STM32F4xx_HAL_Driver/Src/stm32f4xx_hal_uart.c ****         /* Call Directly huart->hdmatx->XferAbortCallback function in case of error */
1421:Drivers/STM32F4xx_HAL_Driver/Src/stm32f4xx_hal_uart.c ****         huart->hdmatx->XferAbortCallback(huart->hdmatx);
 2743              		.loc 1 1421 0
 2744 0056 7B68     		ldr	r3, [r7, #4]
 2745 0058 1B6B     		ldr	r3, [r3, #48]
 2746 005a 1B6D     		ldr	r3, [r3, #80]
 2747 005c 7A68     		ldr	r2, [r7, #4]
 2748 005e 126B     		ldr	r2, [r2, #48]
 2749 0060 1046     		mov	r0, r2
 2750 0062 9847     		blx	r3
 2751              	.LVL0:
 2752 0064 14E0     		b	.L122
 2753              	.L119:
1422:Drivers/STM32F4xx_HAL_Driver/Src/stm32f4xx_hal_uart.c ****       }
1423:Drivers/STM32F4xx_HAL_Driver/Src/stm32f4xx_hal_uart.c ****     }
1424:Drivers/STM32F4xx_HAL_Driver/Src/stm32f4xx_hal_uart.c ****     else
1425:Drivers/STM32F4xx_HAL_Driver/Src/stm32f4xx_hal_uart.c ****     {      
1426:Drivers/STM32F4xx_HAL_Driver/Src/stm32f4xx_hal_uart.c ****       /* Reset Tx transfer counter */
1427:Drivers/STM32F4xx_HAL_Driver/Src/stm32f4xx_hal_uart.c ****       huart->TxXferCount = 0x00U;
 2754              		.loc 1 1427 0
 2755 0066 7B68     		ldr	r3, [r7, #4]
 2756 0068 0022     		movs	r2, #0
 2757 006a DA84     		strh	r2, [r3, #38]	@ movhi
1428:Drivers/STM32F4xx_HAL_Driver/Src/stm32f4xx_hal_uart.c **** 
1429:Drivers/STM32F4xx_HAL_Driver/Src/stm32f4xx_hal_uart.c ****       /* Restore huart->gState to Ready */
1430:Drivers/STM32F4xx_HAL_Driver/Src/stm32f4xx_hal_uart.c ****       huart->gState = HAL_UART_STATE_READY;
 2758              		.loc 1 1430 0
 2759 006c 7B68     		ldr	r3, [r7, #4]
 2760 006e 2022     		movs	r2, #32
 2761 0070 83F83920 		strb	r2, [r3, #57]
1431:Drivers/STM32F4xx_HAL_Driver/Src/stm32f4xx_hal_uart.c **** 
1432:Drivers/STM32F4xx_HAL_Driver/Src/stm32f4xx_hal_uart.c ****       /* As no DMA to be aborted, call directly user Abort complete callback */
1433:Drivers/STM32F4xx_HAL_Driver/Src/stm32f4xx_hal_uart.c ****       HAL_UART_AbortTransmitCpltCallback(huart);
 2762              		.loc 1 1433 0
 2763 0074 7868     		ldr	r0, [r7, #4]
 2764 0076 FFF7FEFF 		bl	HAL_UART_AbortTransmitCpltCallback
 2765 007a 09E0     		b	.L122
 2766              	.L118:
1434:Drivers/STM32F4xx_HAL_Driver/Src/stm32f4xx_hal_uart.c ****     }
ARM GAS  /tmp/ccLJIDLw.s 			page 74


1435:Drivers/STM32F4xx_HAL_Driver/Src/stm32f4xx_hal_uart.c ****   }
1436:Drivers/STM32F4xx_HAL_Driver/Src/stm32f4xx_hal_uart.c ****   else
1437:Drivers/STM32F4xx_HAL_Driver/Src/stm32f4xx_hal_uart.c ****   {
1438:Drivers/STM32F4xx_HAL_Driver/Src/stm32f4xx_hal_uart.c ****     /* Reset Tx transfer counter */
1439:Drivers/STM32F4xx_HAL_Driver/Src/stm32f4xx_hal_uart.c ****     huart->TxXferCount = 0x00U;
 2767              		.loc 1 1439 0
 2768 007c 7B68     		ldr	r3, [r7, #4]
 2769 007e 0022     		movs	r2, #0
 2770 0080 DA84     		strh	r2, [r3, #38]	@ movhi
1440:Drivers/STM32F4xx_HAL_Driver/Src/stm32f4xx_hal_uart.c **** 
1441:Drivers/STM32F4xx_HAL_Driver/Src/stm32f4xx_hal_uart.c ****     /* Restore huart->gState to Ready */
1442:Drivers/STM32F4xx_HAL_Driver/Src/stm32f4xx_hal_uart.c ****     huart->gState = HAL_UART_STATE_READY;
 2771              		.loc 1 1442 0
 2772 0082 7B68     		ldr	r3, [r7, #4]
 2773 0084 2022     		movs	r2, #32
 2774 0086 83F83920 		strb	r2, [r3, #57]
1443:Drivers/STM32F4xx_HAL_Driver/Src/stm32f4xx_hal_uart.c **** 
1444:Drivers/STM32F4xx_HAL_Driver/Src/stm32f4xx_hal_uart.c ****     /* As no DMA to be aborted, call directly user Abort complete callback */
1445:Drivers/STM32F4xx_HAL_Driver/Src/stm32f4xx_hal_uart.c ****     HAL_UART_AbortTransmitCpltCallback(huart);
 2775              		.loc 1 1445 0
 2776 008a 7868     		ldr	r0, [r7, #4]
 2777 008c FFF7FEFF 		bl	HAL_UART_AbortTransmitCpltCallback
 2778              	.L122:
1446:Drivers/STM32F4xx_HAL_Driver/Src/stm32f4xx_hal_uart.c ****   }
1447:Drivers/STM32F4xx_HAL_Driver/Src/stm32f4xx_hal_uart.c **** 
1448:Drivers/STM32F4xx_HAL_Driver/Src/stm32f4xx_hal_uart.c ****   return HAL_OK;
 2779              		.loc 1 1448 0
 2780 0090 0023     		movs	r3, #0
1449:Drivers/STM32F4xx_HAL_Driver/Src/stm32f4xx_hal_uart.c **** }
 2781              		.loc 1 1449 0
 2782 0092 1846     		mov	r0, r3
 2783 0094 0837     		adds	r7, r7, #8
 2784              	.LCFI109:
 2785              		.cfi_def_cfa_offset 8
 2786 0096 BD46     		mov	sp, r7
 2787              	.LCFI110:
 2788              		.cfi_def_cfa_register 13
 2789              		@ sp needed
 2790 0098 80BD     		pop	{r7, pc}
 2791              	.L125:
 2792 009a 00BF     		.align	2
 2793              	.L124:
 2794 009c 00000000 		.word	UART_DMATxOnlyAbortCallback
 2795              		.cfi_endproc
 2796              	.LFE144:
 2798              		.section	.text.HAL_UART_AbortReceive_IT,"ax",%progbits
 2799              		.align	1
 2800              		.global	HAL_UART_AbortReceive_IT
 2801              		.syntax unified
 2802              		.thumb
 2803              		.thumb_func
 2804              		.fpu fpv4-sp-d16
 2806              	HAL_UART_AbortReceive_IT:
 2807              	.LFB145:
1450:Drivers/STM32F4xx_HAL_Driver/Src/stm32f4xx_hal_uart.c **** 
1451:Drivers/STM32F4xx_HAL_Driver/Src/stm32f4xx_hal_uart.c **** /**
1452:Drivers/STM32F4xx_HAL_Driver/Src/stm32f4xx_hal_uart.c ****   * @brief  Abort ongoing Receive transfer (Interrupt mode).
ARM GAS  /tmp/ccLJIDLw.s 			page 75


1453:Drivers/STM32F4xx_HAL_Driver/Src/stm32f4xx_hal_uart.c ****   * @param  huart UART handle.
