ARM GAS  /tmp/cc82Pysy.s 			page 1


   1              		.cpu cortex-m4
   2              		.eabi_attribute 27, 1
   3              		.eabi_attribute 28, 1
   4              		.eabi_attribute 20, 1
   5              		.eabi_attribute 21, 1
   6              		.eabi_attribute 23, 3
   7              		.eabi_attribute 24, 1
   8              		.eabi_attribute 25, 1
   9              		.eabi_attribute 26, 1
  10              		.eabi_attribute 30, 6
  11              		.eabi_attribute 34, 1
  12              		.eabi_attribute 18, 4
  13              		.file	"stm32f4xx_hal_msp.c"
  14              		.text
  15              	.Ltext0:
  16              		.cfi_sections	.debug_frame
  17              		.section	.text.HAL_MspInit,"ax",%progbits
  18              		.align	1
  19              		.global	HAL_MspInit
  20              		.syntax unified
  21              		.thumb
  22              		.thumb_func
  23              		.fpu fpv4-sp-d16
  25              	HAL_MspInit:
  26              	.LFB124:
  27              		.file 1 "Src/stm32f4xx_hal_msp.c"
   1:Src/stm32f4xx_hal_msp.c **** /**
   2:Src/stm32f4xx_hal_msp.c ****   ******************************************************************************
   3:Src/stm32f4xx_hal_msp.c ****   * File Name          : stm32f4xx_hal_msp.c
   4:Src/stm32f4xx_hal_msp.c ****   * Description        : This file provides code for the MSP Initialization 
   5:Src/stm32f4xx_hal_msp.c ****   *                      and de-Initialization codes.
   6:Src/stm32f4xx_hal_msp.c ****   ******************************************************************************
   7:Src/stm32f4xx_hal_msp.c ****   * This notice applies to any and all portions of this file
   8:Src/stm32f4xx_hal_msp.c ****   * that are not between comment pairs USER CODE BEGIN and
   9:Src/stm32f4xx_hal_msp.c ****   * USER CODE END. Other portions of this file, whether 
  10:Src/stm32f4xx_hal_msp.c ****   * inserted by the user or by software development tools
  11:Src/stm32f4xx_hal_msp.c ****   * are owned by their respective copyright owners.
  12:Src/stm32f4xx_hal_msp.c ****   *
  13:Src/stm32f4xx_hal_msp.c ****   * Copyright (c) 2017 STMicroelectronics International N.V. 
  14:Src/stm32f4xx_hal_msp.c ****   * All rights reserved.
  15:Src/stm32f4xx_hal_msp.c ****   *
  16:Src/stm32f4xx_hal_msp.c ****   * Redistribution and use in source and binary forms, with or without 
  17:Src/stm32f4xx_hal_msp.c ****   * modification, are permitted, provided that the following conditions are met:
  18:Src/stm32f4xx_hal_msp.c ****   *
  19:Src/stm32f4xx_hal_msp.c ****   * 1. Redistribution of source code must retain the above copyright notice, 
  20:Src/stm32f4xx_hal_msp.c ****   *    this list of conditions and the following disclaimer.
  21:Src/stm32f4xx_hal_msp.c ****   * 2. Redistributions in binary form must reproduce the above copyright notice,
  22:Src/stm32f4xx_hal_msp.c ****   *    this list of conditions and the following disclaimer in the documentation
  23:Src/stm32f4xx_hal_msp.c ****   *    and/or other materials provided with the distribution.
  24:Src/stm32f4xx_hal_msp.c ****   * 3. Neither the name of STMicroelectronics nor the names of other 
  25:Src/stm32f4xx_hal_msp.c ****   *    contributors to this software may be used to endorse or promote products 
  26:Src/stm32f4xx_hal_msp.c ****   *    derived from this software without specific written permission.
  27:Src/stm32f4xx_hal_msp.c ****   * 4. This software, including modifications and/or derivative works of this 
  28:Src/stm32f4xx_hal_msp.c ****   *    software, must execute solely and exclusively on microcontroller or
  29:Src/stm32f4xx_hal_msp.c ****   *    microprocessor devices manufactured by or for STMicroelectronics.
  30:Src/stm32f4xx_hal_msp.c ****   * 5. Redistribution and use of this software other than as permitted under 
  31:Src/stm32f4xx_hal_msp.c ****   *    this license is void and will automatically terminate your rights under 
ARM GAS  /tmp/cc82Pysy.s 			page 2


  32:Src/stm32f4xx_hal_msp.c ****   *    this license. 
  33:Src/stm32f4xx_hal_msp.c ****   *
  34:Src/stm32f4xx_hal_msp.c ****   * THIS SOFTWARE IS PROVIDED BY STMICROELECTRONICS AND CONTRIBUTORS "AS IS" 
  35:Src/stm32f4xx_hal_msp.c ****   * AND ANY EXPRESS, IMPLIED OR STATUTORY WARRANTIES, INCLUDING, BUT NOT 
  36:Src/stm32f4xx_hal_msp.c ****   * LIMITED TO, THE IMPLIED WARRANTIES OF MERCHANTABILITY, FITNESS FOR A 
  37:Src/stm32f4xx_hal_msp.c ****   * PARTICULAR PURPOSE AND NON-INFRINGEMENT OF THIRD PARTY INTELLECTUAL PROPERTY
  38:Src/stm32f4xx_hal_msp.c ****   * RIGHTS ARE DISCLAIMED TO THE FULLEST EXTENT PERMITTED BY LAW. IN NO EVENT 
  39:Src/stm32f4xx_hal_msp.c ****   * SHALL STMICROELECTRONICS OR CONTRIBUTORS BE LIABLE FOR ANY DIRECT, INDIRECT,
  40:Src/stm32f4xx_hal_msp.c ****   * INCIDENTAL, SPECIAL, EXEMPLARY, OR CONSEQUENTIAL DAMAGES (INCLUDING, BUT NOT
  41:Src/stm32f4xx_hal_msp.c ****   * LIMITED TO, PROCUREMENT OF SUBSTITUTE GOODS OR SERVICES; LOSS OF USE, DATA, 
  42:Src/stm32f4xx_hal_msp.c ****   * OR PROFITS; OR BUSINESS INTERRUPTION) HOWEVER CAUSED AND ON ANY THEORY OF 
  43:Src/stm32f4xx_hal_msp.c ****   * LIABILITY, WHETHER IN CONTRACT, STRICT LIABILITY, OR TORT (INCLUDING 
  44:Src/stm32f4xx_hal_msp.c ****   * NEGLIGENCE OR OTHERWISE) ARISING IN ANY WAY OUT OF THE USE OF THIS SOFTWARE,
  45:Src/stm32f4xx_hal_msp.c ****   * EVEN IF ADVISED OF THE POSSIBILITY OF SUCH DAMAGE.
  46:Src/stm32f4xx_hal_msp.c ****   *
  47:Src/stm32f4xx_hal_msp.c ****   ******************************************************************************
  48:Src/stm32f4xx_hal_msp.c ****   */
  49:Src/stm32f4xx_hal_msp.c **** /* Includes ------------------------------------------------------------------*/
  50:Src/stm32f4xx_hal_msp.c **** #include "stm32f4xx_hal.h"
  51:Src/stm32f4xx_hal_msp.c **** 
  52:Src/stm32f4xx_hal_msp.c **** extern void _Error_Handler(char *, int);
  53:Src/stm32f4xx_hal_msp.c **** /* USER CODE BEGIN 0 */
  54:Src/stm32f4xx_hal_msp.c **** 
  55:Src/stm32f4xx_hal_msp.c **** /* USER CODE END 0 */
  56:Src/stm32f4xx_hal_msp.c **** /**
  57:Src/stm32f4xx_hal_msp.c ****   * Initializes the Global MSP.
  58:Src/stm32f4xx_hal_msp.c ****   */
  59:Src/stm32f4xx_hal_msp.c **** void HAL_MspInit(void)
  60:Src/stm32f4xx_hal_msp.c **** {
  28              		.loc 1 60 0
  29              		.cfi_startproc
  30              		@ args = 0, pretend = 0, frame = 0
  31              		@ frame_needed = 1, uses_anonymous_args = 0
  32 0000 80B5     		push	{r7, lr}
  33              	.LCFI0:
  34              		.cfi_def_cfa_offset 8
  35              		.cfi_offset 7, -8
  36              		.cfi_offset 14, -4
  37 0002 00AF     		add	r7, sp, #0
  38              	.LCFI1:
  39              		.cfi_def_cfa_register 7
  61:Src/stm32f4xx_hal_msp.c ****   /* USER CODE BEGIN MspInit 0 */
  62:Src/stm32f4xx_hal_msp.c **** 
  63:Src/stm32f4xx_hal_msp.c ****   /* USER CODE END MspInit 0 */
  64:Src/stm32f4xx_hal_msp.c **** 
  65:Src/stm32f4xx_hal_msp.c ****   HAL_NVIC_SetPriorityGrouping(NVIC_PRIORITYGROUP_4);
  40              		.loc 1 65 0
  41 0004 0320     		movs	r0, #3
  42 0006 FFF7FEFF 		bl	HAL_NVIC_SetPriorityGrouping
  66:Src/stm32f4xx_hal_msp.c **** 
  67:Src/stm32f4xx_hal_msp.c ****   /* System interrupt init*/
  68:Src/stm32f4xx_hal_msp.c ****   /* MemoryManagement_IRQn interrupt configuration */
  69:Src/stm32f4xx_hal_msp.c ****   HAL_NVIC_SetPriority(MemoryManagement_IRQn, 0, 0);
  43              		.loc 1 69 0
  44 000a 0022     		movs	r2, #0
  45 000c 0021     		movs	r1, #0
  46 000e 6FF00B00 		mvn	r0, #11
ARM GAS  /tmp/cc82Pysy.s 			page 3


  47 0012 FFF7FEFF 		bl	HAL_NVIC_SetPriority
  70:Src/stm32f4xx_hal_msp.c ****   /* BusFault_IRQn interrupt configuration */
  71:Src/stm32f4xx_hal_msp.c ****   HAL_NVIC_SetPriority(BusFault_IRQn, 0, 0);
  48              		.loc 1 71 0
  49 0016 0022     		movs	r2, #0
  50 0018 0021     		movs	r1, #0
  51 001a 6FF00A00 		mvn	r0, #10
  52 001e FFF7FEFF 		bl	HAL_NVIC_SetPriority
  72:Src/stm32f4xx_hal_msp.c ****   /* UsageFault_IRQn interrupt configuration */
  73:Src/stm32f4xx_hal_msp.c ****   HAL_NVIC_SetPriority(UsageFault_IRQn, 0, 0);
  53              		.loc 1 73 0
  54 0022 0022     		movs	r2, #0
  55 0024 0021     		movs	r1, #0
  56 0026 6FF00900 		mvn	r0, #9
  57 002a FFF7FEFF 		bl	HAL_NVIC_SetPriority
  74:Src/stm32f4xx_hal_msp.c ****   /* SVCall_IRQn interrupt configuration */
  75:Src/stm32f4xx_hal_msp.c ****   HAL_NVIC_SetPriority(SVCall_IRQn, 0, 0);
  58              		.loc 1 75 0
  59 002e 0022     		movs	r2, #0
  60 0030 0021     		movs	r1, #0
  61 0032 6FF00400 		mvn	r0, #4
  62 0036 FFF7FEFF 		bl	HAL_NVIC_SetPriority
  76:Src/stm32f4xx_hal_msp.c ****   /* DebugMonitor_IRQn interrupt configuration */
  77:Src/stm32f4xx_hal_msp.c ****   HAL_NVIC_SetPriority(DebugMonitor_IRQn, 0, 0);
  63              		.loc 1 77 0
  64 003a 0022     		movs	r2, #0
  65 003c 0021     		movs	r1, #0
  66 003e 6FF00300 		mvn	r0, #3
  67 0042 FFF7FEFF 		bl	HAL_NVIC_SetPriority
  78:Src/stm32f4xx_hal_msp.c ****   /* PendSV_IRQn interrupt configuration */
  79:Src/stm32f4xx_hal_msp.c ****   HAL_NVIC_SetPriority(PendSV_IRQn, 15, 0);
  68              		.loc 1 79 0
  69 0046 0022     		movs	r2, #0
  70 0048 0F21     		movs	r1, #15
  71 004a 6FF00100 		mvn	r0, #1
  72 004e FFF7FEFF 		bl	HAL_NVIC_SetPriority
  80:Src/stm32f4xx_hal_msp.c ****   /* SysTick_IRQn interrupt configuration */
  81:Src/stm32f4xx_hal_msp.c ****   HAL_NVIC_SetPriority(SysTick_IRQn, 15, 0);
  73              		.loc 1 81 0
  74 0052 0022     		movs	r2, #0
  75 0054 0F21     		movs	r1, #15
  76 0056 4FF0FF30 		mov	r0, #-1
  77 005a FFF7FEFF 		bl	HAL_NVIC_SetPriority
  82:Src/stm32f4xx_hal_msp.c **** 
  83:Src/stm32f4xx_hal_msp.c ****   /* USER CODE BEGIN MspInit 1 */
  84:Src/stm32f4xx_hal_msp.c **** 
  85:Src/stm32f4xx_hal_msp.c ****   /* USER CODE END MspInit 1 */
  86:Src/stm32f4xx_hal_msp.c **** }
  78              		.loc 1 86 0
  79 005e 00BF     		nop
  80 0060 80BD     		pop	{r7, pc}
  81              		.cfi_endproc
  82              	.LFE124:
  84              		.section	.text.HAL_UART_MspInit,"ax",%progbits
  85              		.align	1
  86              		.global	HAL_UART_MspInit
  87              		.syntax unified
ARM GAS  /tmp/cc82Pysy.s 			page 4


  88              		.thumb
  89              		.thumb_func
  90              		.fpu fpv4-sp-d16
  92              	HAL_UART_MspInit:
  93              	.LFB125:
  87:Src/stm32f4xx_hal_msp.c **** 
  88:Src/stm32f4xx_hal_msp.c **** void HAL_UART_MspInit(UART_HandleTypeDef* huart)
  89:Src/stm32f4xx_hal_msp.c **** {
  94              		.loc 1 89 0
  95              		.cfi_startproc
  96              		@ args = 0, pretend = 0, frame = 32
  97              		@ frame_needed = 1, uses_anonymous_args = 0
  98 0000 80B5     		push	{r7, lr}
  99              	.LCFI2:
 100              		.cfi_def_cfa_offset 8
 101              		.cfi_offset 7, -8
 102              		.cfi_offset 14, -4
 103 0002 88B0     		sub	sp, sp, #32
 104              	.LCFI3:
 105              		.cfi_def_cfa_offset 40
 106 0004 00AF     		add	r7, sp, #0
 107              	.LCFI4:
 108              		.cfi_def_cfa_register 7
 109 0006 7860     		str	r0, [r7, #4]
  90:Src/stm32f4xx_hal_msp.c **** 
  91:Src/stm32f4xx_hal_msp.c ****   GPIO_InitTypeDef GPIO_InitStruct;
  92:Src/stm32f4xx_hal_msp.c ****   if(huart->Instance==USART1)
 110              		.loc 1 92 0
 111 0008 7B68     		ldr	r3, [r7, #4]
 112 000a 1B68     		ldr	r3, [r3]
 113 000c 124A     		ldr	r2, .L5
 114 000e 9342     		cmp	r3, r2
 115 0010 1ED1     		bne	.L4
 116              	.LBB2:
  93:Src/stm32f4xx_hal_msp.c ****   {
  94:Src/stm32f4xx_hal_msp.c ****   /* USER CODE BEGIN USART1_MspInit 0 */
  95:Src/stm32f4xx_hal_msp.c **** 
  96:Src/stm32f4xx_hal_msp.c ****   /* USER CODE END USART1_MspInit 0 */
  97:Src/stm32f4xx_hal_msp.c ****     /* Peripheral clock enable */
  98:Src/stm32f4xx_hal_msp.c ****     __HAL_RCC_USART1_CLK_ENABLE();
 117              		.loc 1 98 0
 118 0012 0023     		movs	r3, #0
 119 0014 BB60     		str	r3, [r7, #8]
 120 0016 114A     		ldr	r2, .L5+4
 121 0018 104B     		ldr	r3, .L5+4
 122 001a 5B6C     		ldr	r3, [r3, #68]
 123 001c 43F01003 		orr	r3, r3, #16
 124 0020 5364     		str	r3, [r2, #68]
 125 0022 0E4B     		ldr	r3, .L5+4
 126 0024 5B6C     		ldr	r3, [r3, #68]
 127 0026 03F01003 		and	r3, r3, #16
 128 002a BB60     		str	r3, [r7, #8]
 129 002c BB68     		ldr	r3, [r7, #8]
 130              	.LBE2:
  99:Src/stm32f4xx_hal_msp.c ****   
 100:Src/stm32f4xx_hal_msp.c ****     /**USART1 GPIO Configuration    
 101:Src/stm32f4xx_hal_msp.c ****     PA9     ------> USART1_TX
ARM GAS  /tmp/cc82Pysy.s 			page 5


 102:Src/stm32f4xx_hal_msp.c ****     PA10     ------> USART1_RX 
 103:Src/stm32f4xx_hal_msp.c ****     */
 104:Src/stm32f4xx_hal_msp.c ****     GPIO_InitStruct.Pin = GPIO_PIN_9|GPIO_PIN_10;
 131              		.loc 1 104 0
 132 002e 4FF4C063 		mov	r3, #1536
 133 0032 FB60     		str	r3, [r7, #12]
 105:Src/stm32f4xx_hal_msp.c ****     GPIO_InitStruct.Mode = GPIO_MODE_AF_PP;
 134              		.loc 1 105 0
 135 0034 0223     		movs	r3, #2
 136 0036 3B61     		str	r3, [r7, #16]
 106:Src/stm32f4xx_hal_msp.c ****     GPIO_InitStruct.Pull = GPIO_PULLUP;
 137              		.loc 1 106 0
 138 0038 0123     		movs	r3, #1
 139 003a 7B61     		str	r3, [r7, #20]
 107:Src/stm32f4xx_hal_msp.c ****     GPIO_InitStruct.Speed = GPIO_SPEED_FREQ_VERY_HIGH;
 140              		.loc 1 107 0
 141 003c 0323     		movs	r3, #3
 142 003e BB61     		str	r3, [r7, #24]
 108:Src/stm32f4xx_hal_msp.c ****     GPIO_InitStruct.Alternate = GPIO_AF7_USART1;
 143              		.loc 1 108 0
 144 0040 0723     		movs	r3, #7
 145 0042 FB61     		str	r3, [r7, #28]
 109:Src/stm32f4xx_hal_msp.c ****     HAL_GPIO_Init(GPIOA, &GPIO_InitStruct);
 146              		.loc 1 109 0
 147 0044 07F10C03 		add	r3, r7, #12
 148 0048 1946     		mov	r1, r3
 149 004a 0548     		ldr	r0, .L5+8
 150 004c FFF7FEFF 		bl	HAL_GPIO_Init
 151              	.L4:
 110:Src/stm32f4xx_hal_msp.c **** 
 111:Src/stm32f4xx_hal_msp.c ****   /* USER CODE BEGIN USART1_MspInit 1 */
 112:Src/stm32f4xx_hal_msp.c **** 
 113:Src/stm32f4xx_hal_msp.c ****   /* USER CODE END USART1_MspInit 1 */
 114:Src/stm32f4xx_hal_msp.c ****   }
 115:Src/stm32f4xx_hal_msp.c **** 
 116:Src/stm32f4xx_hal_msp.c **** }
 152              		.loc 1 116 0
 153 0050 00BF     		nop
 154 0052 2037     		adds	r7, r7, #32
 155              	.LCFI5:
 156              		.cfi_def_cfa_offset 8
 157 0054 BD46     		mov	sp, r7
 158              	.LCFI6:
 159              		.cfi_def_cfa_register 13
 160              		@ sp needed
 161 0056 80BD     		pop	{r7, pc}
 162              	.L6:
 163              		.align	2
 164              	.L5:
 165 0058 00100140 		.word	1073811456
 166 005c 00380240 		.word	1073887232
 167 0060 00000240 		.word	1073872896
 168              		.cfi_endproc
 169              	.LFE125:
 171              		.section	.text.HAL_UART_MspDeInit,"ax",%progbits
 172              		.align	1
 173              		.global	HAL_UART_MspDeInit
ARM GAS  /tmp/cc82Pysy.s 			page 6


 174              		.syntax unified
 175              		.thumb
 176              		.thumb_func
 177              		.fpu fpv4-sp-d16
 179              	HAL_UART_MspDeInit:
 180              	.LFB126:
 117:Src/stm32f4xx_hal_msp.c **** 
 118:Src/stm32f4xx_hal_msp.c **** void HAL_UART_MspDeInit(UART_HandleTypeDef* huart)
 119:Src/stm32f4xx_hal_msp.c **** {
 181              		.loc 1 119 0
 182              		.cfi_startproc
 183              		@ args = 0, pretend = 0, frame = 8
 184              		@ frame_needed = 1, uses_anonymous_args = 0
 185 0000 80B5     		push	{r7, lr}
 186              	.LCFI7:
 187              		.cfi_def_cfa_offset 8
 188              		.cfi_offset 7, -8
 189              		.cfi_offset 14, -4
 190 0002 82B0     		sub	sp, sp, #8
 191              	.LCFI8:
 192              		.cfi_def_cfa_offset 16
 193 0004 00AF     		add	r7, sp, #0
 194              	.LCFI9:
 195              		.cfi_def_cfa_register 7
 196 0006 7860     		str	r0, [r7, #4]
 120:Src/stm32f4xx_hal_msp.c **** 
 121:Src/stm32f4xx_hal_msp.c ****   if(huart->Instance==USART1)
 197              		.loc 1 121 0
 198 0008 7B68     		ldr	r3, [r7, #4]
 199 000a 1B68     		ldr	r3, [r3]
 200 000c 084A     		ldr	r2, .L10
 201 000e 9342     		cmp	r3, r2
 202 0010 0AD1     		bne	.L9
 122:Src/stm32f4xx_hal_msp.c ****   {
 123:Src/stm32f4xx_hal_msp.c ****   /* USER CODE BEGIN USART1_MspDeInit 0 */
 124:Src/stm32f4xx_hal_msp.c **** 
 125:Src/stm32f4xx_hal_msp.c ****   /* USER CODE END USART1_MspDeInit 0 */
 126:Src/stm32f4xx_hal_msp.c ****     /* Peripheral clock disable */
 127:Src/stm32f4xx_hal_msp.c ****     __HAL_RCC_USART1_CLK_DISABLE();
 203              		.loc 1 127 0
 204 0012 084A     		ldr	r2, .L10+4
 205 0014 074B     		ldr	r3, .L10+4
 206 0016 5B6C     		ldr	r3, [r3, #68]
 207 0018 23F01003 		bic	r3, r3, #16
 208 001c 5364     		str	r3, [r2, #68]
 128:Src/stm32f4xx_hal_msp.c ****   
 129:Src/stm32f4xx_hal_msp.c ****     /**USART1 GPIO Configuration    
 130:Src/stm32f4xx_hal_msp.c ****     PA9     ------> USART1_TX
 131:Src/stm32f4xx_hal_msp.c ****     PA10     ------> USART1_RX 
 132:Src/stm32f4xx_hal_msp.c ****     */
 133:Src/stm32f4xx_hal_msp.c ****     HAL_GPIO_DeInit(GPIOA, GPIO_PIN_9|GPIO_PIN_10);
 209              		.loc 1 133 0
 210 001e 4FF4C061 		mov	r1, #1536
 211 0022 0548     		ldr	r0, .L10+8
 212 0024 FFF7FEFF 		bl	HAL_GPIO_DeInit
 213              	.L9:
 134:Src/stm32f4xx_hal_msp.c **** 
ARM GAS  /tmp/cc82Pysy.s 			page 7


 135:Src/stm32f4xx_hal_msp.c ****   /* USER CODE BEGIN USART1_MspDeInit 1 */
 136:Src/stm32f4xx_hal_msp.c **** 
 137:Src/stm32f4xx_hal_msp.c ****   /* USER CODE END USART1_MspDeInit 1 */
 138:Src/stm32f4xx_hal_msp.c ****   }
 139:Src/stm32f4xx_hal_msp.c **** 
 140:Src/stm32f4xx_hal_msp.c **** }
 214              		.loc 1 140 0
 215 0028 00BF     		nop
 216 002a 0837     		adds	r7, r7, #8
 217              	.LCFI10:
 218              		.cfi_def_cfa_offset 8
 219 002c BD46     		mov	sp, r7
 220              	.LCFI11:
 221              		.cfi_def_cfa_register 13
 222              		@ sp needed
 223 002e 80BD     		pop	{r7, pc}
 224              	.L11:
 225              		.align	2
 226              	.L10:
 227 0030 00100140 		.word	1073811456
 228 0034 00380240 		.word	1073887232
 229 0038 00000240 		.word	1073872896
 230              		.cfi_endproc
 231              	.LFE126:
 233              		.text
 234              	.Letext0:
 235              		.file 2 "/usr/arm-none-eabi/include/machine/_default_types.h"
 236              		.file 3 "/usr/arm-none-eabi/include/sys/_stdint.h"
 237              		.file 4 "Drivers/CMSIS/Include/core_cm4.h"
 238              		.file 5 "Drivers/CMSIS/Device/ST/STM32F4xx/Include/system_stm32f4xx.h"
 239              		.file 6 "Drivers/CMSIS/Device/ST/STM32F4xx/Include/stm32f429xx.h"
 240              		.file 7 "/usr/arm-none-eabi/include/sys/lock.h"
 241              		.file 8 "/usr/arm-none-eabi/include/sys/_types.h"
 242              		.file 9 "/usr/lib/gcc/arm-none-eabi/6.3.1/include/stddef.h"
 243              		.file 10 "/usr/arm-none-eabi/include/sys/reent.h"
 244              		.file 11 "Drivers/STM32F4xx_HAL_Driver/Inc/stm32f4xx_hal_def.h"
 245              		.file 12 "Drivers/STM32F4xx_HAL_Driver/Inc/stm32f4xx_hal_gpio.h"
 246              		.file 13 "Drivers/STM32F4xx_HAL_Driver/Inc/stm32f4xx_hal_dma.h"
 247              		.file 14 "Drivers/STM32F4xx_HAL_Driver/Inc/stm32f4xx_hal_uart.h"
ARM GAS  /tmp/cc82Pysy.s 			page 8

