ARM GAS  /tmp/ccvK2xU6.s 			page 1


   1              		.cpu cortex-m4
   2              		.eabi_attribute 27, 1
   3              		.eabi_attribute 28, 1
   4              		.eabi_attribute 20, 1
   5              		.eabi_attribute 21, 1
   6              		.eabi_attribute 23, 3
   7              		.eabi_attribute 24, 1
   8              		.eabi_attribute 25, 1
   9              		.eabi_attribute 26, 1
  10              		.eabi_attribute 30, 6
  11              		.eabi_attribute 34, 1
  12              		.eabi_attribute 18, 4
  13              		.file	"stm32f4xx_hal_tim.c"
  14              		.text
  15              	.Ltext0:
  16              		.cfi_sections	.debug_frame
  17              		.section	.text.HAL_TIM_Base_Init,"ax",%progbits
  18              		.align	1
  19              		.global	HAL_TIM_Base_Init
  20              		.syntax unified
  21              		.thumb
  22              		.thumb_func
  23              		.fpu fpv4-sp-d16
  25              	HAL_TIM_Base_Init:
  26              	.LFB124:
  27              		.file 1 "Drivers/STM32F4xx_HAL_Driver/Src/stm32f4xx_hal_tim.c"
   1:Drivers/STM32F4xx_HAL_Driver/Src/stm32f4xx_hal_tim.c **** /**
   2:Drivers/STM32F4xx_HAL_Driver/Src/stm32f4xx_hal_tim.c ****   ******************************************************************************
   3:Drivers/STM32F4xx_HAL_Driver/Src/stm32f4xx_hal_tim.c ****   * @file    stm32f4xx_hal_tim.c
   4:Drivers/STM32F4xx_HAL_Driver/Src/stm32f4xx_hal_tim.c ****   * @author  MCD Application Team
   5:Drivers/STM32F4xx_HAL_Driver/Src/stm32f4xx_hal_tim.c ****   * @brief   TIM HAL module driver.
   6:Drivers/STM32F4xx_HAL_Driver/Src/stm32f4xx_hal_tim.c ****   *          This file provides firmware functions to manage the following 
   7:Drivers/STM32F4xx_HAL_Driver/Src/stm32f4xx_hal_tim.c ****   *          functionalities of the Timer (TIM) peripheral:
   8:Drivers/STM32F4xx_HAL_Driver/Src/stm32f4xx_hal_tim.c ****   *           + Time Base Initialization
   9:Drivers/STM32F4xx_HAL_Driver/Src/stm32f4xx_hal_tim.c ****   *           + Time Base Start
  10:Drivers/STM32F4xx_HAL_Driver/Src/stm32f4xx_hal_tim.c ****   *           + Time Base Start Interruption
  11:Drivers/STM32F4xx_HAL_Driver/Src/stm32f4xx_hal_tim.c ****   *           + Time Base Start DMA
  12:Drivers/STM32F4xx_HAL_Driver/Src/stm32f4xx_hal_tim.c ****   *           + Time Output Compare/PWM Initialization
  13:Drivers/STM32F4xx_HAL_Driver/Src/stm32f4xx_hal_tim.c ****   *           + Time Output Compare/PWM Channel Configuration
  14:Drivers/STM32F4xx_HAL_Driver/Src/stm32f4xx_hal_tim.c ****   *           + Time Output Compare/PWM  Start
  15:Drivers/STM32F4xx_HAL_Driver/Src/stm32f4xx_hal_tim.c ****   *           + Time Output Compare/PWM  Start Interruption
  16:Drivers/STM32F4xx_HAL_Driver/Src/stm32f4xx_hal_tim.c ****   *           + Time Output Compare/PWM Start DMA
  17:Drivers/STM32F4xx_HAL_Driver/Src/stm32f4xx_hal_tim.c ****   *           + Time Input Capture Initialization
  18:Drivers/STM32F4xx_HAL_Driver/Src/stm32f4xx_hal_tim.c ****   *           + Time Input Capture Channel Configuration
  19:Drivers/STM32F4xx_HAL_Driver/Src/stm32f4xx_hal_tim.c ****   *           + Time Input Capture Start
  20:Drivers/STM32F4xx_HAL_Driver/Src/stm32f4xx_hal_tim.c ****   *           + Time Input Capture Start Interruption 
  21:Drivers/STM32F4xx_HAL_Driver/Src/stm32f4xx_hal_tim.c ****   *           + Time Input Capture Start DMA
  22:Drivers/STM32F4xx_HAL_Driver/Src/stm32f4xx_hal_tim.c ****   *           + Time One Pulse Initialization
  23:Drivers/STM32F4xx_HAL_Driver/Src/stm32f4xx_hal_tim.c ****   *           + Time One Pulse Channel Configuration
  24:Drivers/STM32F4xx_HAL_Driver/Src/stm32f4xx_hal_tim.c ****   *           + Time One Pulse Start 
  25:Drivers/STM32F4xx_HAL_Driver/Src/stm32f4xx_hal_tim.c ****   *           + Time Encoder Interface Initialization
  26:Drivers/STM32F4xx_HAL_Driver/Src/stm32f4xx_hal_tim.c ****   *           + Time Encoder Interface Start
  27:Drivers/STM32F4xx_HAL_Driver/Src/stm32f4xx_hal_tim.c ****   *           + Time Encoder Interface Start Interruption
  28:Drivers/STM32F4xx_HAL_Driver/Src/stm32f4xx_hal_tim.c ****   *           + Time Encoder Interface Start DMA
  29:Drivers/STM32F4xx_HAL_Driver/Src/stm32f4xx_hal_tim.c ****   *           + Commutation Event configuration with Interruption and DMA
  30:Drivers/STM32F4xx_HAL_Driver/Src/stm32f4xx_hal_tim.c ****   *           + Time OCRef clear configuration
  31:Drivers/STM32F4xx_HAL_Driver/Src/stm32f4xx_hal_tim.c ****   *           + Time External Clock configuration
ARM GAS  /tmp/ccvK2xU6.s 			page 2


  32:Drivers/STM32F4xx_HAL_Driver/Src/stm32f4xx_hal_tim.c ****   @verbatim 
  33:Drivers/STM32F4xx_HAL_Driver/Src/stm32f4xx_hal_tim.c ****   ==============================================================================
  34:Drivers/STM32F4xx_HAL_Driver/Src/stm32f4xx_hal_tim.c ****                       ##### TIMER Generic features #####
  35:Drivers/STM32F4xx_HAL_Driver/Src/stm32f4xx_hal_tim.c ****   ==============================================================================
  36:Drivers/STM32F4xx_HAL_Driver/Src/stm32f4xx_hal_tim.c ****   [..] The Timer features include: 
  37:Drivers/STM32F4xx_HAL_Driver/Src/stm32f4xx_hal_tim.c ****        (#) 16-bit up, down, up/down auto-reload counter.
  38:Drivers/STM32F4xx_HAL_Driver/Src/stm32f4xx_hal_tim.c ****        (#) 16-bit programmable prescaler allowing dividing (also on the fly) the 
  39:Drivers/STM32F4xx_HAL_Driver/Src/stm32f4xx_hal_tim.c ****            counter clock frequency either by any factor between 1 and 65536.
  40:Drivers/STM32F4xx_HAL_Driver/Src/stm32f4xx_hal_tim.c ****        (#) Up to 4 independent channels for:
  41:Drivers/STM32F4xx_HAL_Driver/Src/stm32f4xx_hal_tim.c ****            (++) Input Capture
  42:Drivers/STM32F4xx_HAL_Driver/Src/stm32f4xx_hal_tim.c ****            (++) Output Compare
  43:Drivers/STM32F4xx_HAL_Driver/Src/stm32f4xx_hal_tim.c ****            (++) PWM generation (Edge and Center-aligned Mode)
  44:Drivers/STM32F4xx_HAL_Driver/Src/stm32f4xx_hal_tim.c ****            (++) One-pulse mode output               
  45:Drivers/STM32F4xx_HAL_Driver/Src/stm32f4xx_hal_tim.c ****    
  46:Drivers/STM32F4xx_HAL_Driver/Src/stm32f4xx_hal_tim.c ****                         ##### How to use this driver #####
  47:Drivers/STM32F4xx_HAL_Driver/Src/stm32f4xx_hal_tim.c ****   ==============================================================================
  48:Drivers/STM32F4xx_HAL_Driver/Src/stm32f4xx_hal_tim.c ****     [..]
  49:Drivers/STM32F4xx_HAL_Driver/Src/stm32f4xx_hal_tim.c ****      (#) Initialize the TIM low level resources by implementing the following functions 
  50:Drivers/STM32F4xx_HAL_Driver/Src/stm32f4xx_hal_tim.c ****          depending from feature used :
  51:Drivers/STM32F4xx_HAL_Driver/Src/stm32f4xx_hal_tim.c ****            (++) Time Base : HAL_TIM_Base_MspInit() 
  52:Drivers/STM32F4xx_HAL_Driver/Src/stm32f4xx_hal_tim.c ****            (++) Input Capture : HAL_TIM_IC_MspInit()
  53:Drivers/STM32F4xx_HAL_Driver/Src/stm32f4xx_hal_tim.c ****            (++) Output Compare : HAL_TIM_OC_MspInit()
  54:Drivers/STM32F4xx_HAL_Driver/Src/stm32f4xx_hal_tim.c ****            (++) PWM generation : HAL_TIM_PWM_MspInit()
  55:Drivers/STM32F4xx_HAL_Driver/Src/stm32f4xx_hal_tim.c ****            (++) One-pulse mode output : HAL_TIM_OnePulse_MspInit()
  56:Drivers/STM32F4xx_HAL_Driver/Src/stm32f4xx_hal_tim.c ****            (++) Encoder mode output : HAL_TIM_Encoder_MspInit()
  57:Drivers/STM32F4xx_HAL_Driver/Src/stm32f4xx_hal_tim.c ****            
  58:Drivers/STM32F4xx_HAL_Driver/Src/stm32f4xx_hal_tim.c ****      (#) Initialize the TIM low level resources :
  59:Drivers/STM32F4xx_HAL_Driver/Src/stm32f4xx_hal_tim.c ****         (##) Enable the TIM interface clock using __TIMx_CLK_ENABLE(); 
  60:Drivers/STM32F4xx_HAL_Driver/Src/stm32f4xx_hal_tim.c ****         (##) TIM pins configuration
  61:Drivers/STM32F4xx_HAL_Driver/Src/stm32f4xx_hal_tim.c ****             (+++) Enable the clock for the TIM GPIOs using the following function:
  62:Drivers/STM32F4xx_HAL_Driver/Src/stm32f4xx_hal_tim.c ****                  __GPIOx_CLK_ENABLE();   
  63:Drivers/STM32F4xx_HAL_Driver/Src/stm32f4xx_hal_tim.c ****             (+++) Configure these TIM pins in Alternate function mode using HAL_GPIO_Init();  
  64:Drivers/STM32F4xx_HAL_Driver/Src/stm32f4xx_hal_tim.c **** 
  65:Drivers/STM32F4xx_HAL_Driver/Src/stm32f4xx_hal_tim.c ****      (#) The external Clock can be configured, if needed (the default clock is the 
  66:Drivers/STM32F4xx_HAL_Driver/Src/stm32f4xx_hal_tim.c ****          internal clock from the APBx), using the following function:
  67:Drivers/STM32F4xx_HAL_Driver/Src/stm32f4xx_hal_tim.c ****          HAL_TIM_ConfigClockSource, the clock configuration should be done before 
  68:Drivers/STM32F4xx_HAL_Driver/Src/stm32f4xx_hal_tim.c ****          any start function.
  69:Drivers/STM32F4xx_HAL_Driver/Src/stm32f4xx_hal_tim.c ****   
  70:Drivers/STM32F4xx_HAL_Driver/Src/stm32f4xx_hal_tim.c ****      (#) Configure the TIM in the desired functioning mode using one of the 
  71:Drivers/STM32F4xx_HAL_Driver/Src/stm32f4xx_hal_tim.c ****          initialization function of this driver:
  72:Drivers/STM32F4xx_HAL_Driver/Src/stm32f4xx_hal_tim.c ****          (++) HAL_TIM_Base_Init: to use the Timer to generate a simple time base
  73:Drivers/STM32F4xx_HAL_Driver/Src/stm32f4xx_hal_tim.c ****          (++) HAL_TIM_OC_Init and HAL_TIM_OC_ConfigChannel: to use the Timer to generate an 
  74:Drivers/STM32F4xx_HAL_Driver/Src/stm32f4xx_hal_tim.c ****               Output Compare signal.
  75:Drivers/STM32F4xx_HAL_Driver/Src/stm32f4xx_hal_tim.c ****          (++) HAL_TIM_PWM_Init and HAL_TIM_PWM_ConfigChannel: to use the Timer to generate a 
  76:Drivers/STM32F4xx_HAL_Driver/Src/stm32f4xx_hal_tim.c ****               PWM signal.
  77:Drivers/STM32F4xx_HAL_Driver/Src/stm32f4xx_hal_tim.c ****          (++) HAL_TIM_IC_Init and HAL_TIM_IC_ConfigChannel: to use the Timer to measure an 
  78:Drivers/STM32F4xx_HAL_Driver/Src/stm32f4xx_hal_tim.c ****               external signal.
  79:Drivers/STM32F4xx_HAL_Driver/Src/stm32f4xx_hal_tim.c ****          (++) HAL_TIM_OnePulse_Init and HAL_TIM_OnePulse_ConfigChannel: to use the Timer 
  80:Drivers/STM32F4xx_HAL_Driver/Src/stm32f4xx_hal_tim.c ****               in One Pulse Mode.
  81:Drivers/STM32F4xx_HAL_Driver/Src/stm32f4xx_hal_tim.c ****          (++) HAL_TIM_Encoder_Init: to use the Timer Encoder Interface.
  82:Drivers/STM32F4xx_HAL_Driver/Src/stm32f4xx_hal_tim.c ****          
  83:Drivers/STM32F4xx_HAL_Driver/Src/stm32f4xx_hal_tim.c ****      (#) Activate the TIM peripheral using one of the start functions depending from the feature us
  84:Drivers/STM32F4xx_HAL_Driver/Src/stm32f4xx_hal_tim.c ****            (++) Time Base : HAL_TIM_Base_Start(), HAL_TIM_Base_Start_DMA(), HAL_TIM_Base_Start_IT()
  85:Drivers/STM32F4xx_HAL_Driver/Src/stm32f4xx_hal_tim.c ****            (++) Input Capture :  HAL_TIM_IC_Start(), HAL_TIM_IC_Start_DMA(), HAL_TIM_IC_Start_IT()
  86:Drivers/STM32F4xx_HAL_Driver/Src/stm32f4xx_hal_tim.c ****            (++) Output Compare : HAL_TIM_OC_Start(), HAL_TIM_OC_Start_DMA(), HAL_TIM_OC_Start_IT()
  87:Drivers/STM32F4xx_HAL_Driver/Src/stm32f4xx_hal_tim.c ****            (++) PWM generation : HAL_TIM_PWM_Start(), HAL_TIM_PWM_Start_DMA(), HAL_TIM_PWM_Start_IT
  88:Drivers/STM32F4xx_HAL_Driver/Src/stm32f4xx_hal_tim.c ****            (++) One-pulse mode output : HAL_TIM_OnePulse_Start(), HAL_TIM_OnePulse_Start_IT()
ARM GAS  /tmp/ccvK2xU6.s 			page 3


  89:Drivers/STM32F4xx_HAL_Driver/Src/stm32f4xx_hal_tim.c ****            (++) Encoder mode output : HAL_TIM_Encoder_Start(), HAL_TIM_Encoder_Start_DMA(), HAL_TIM
  90:Drivers/STM32F4xx_HAL_Driver/Src/stm32f4xx_hal_tim.c **** 
  91:Drivers/STM32F4xx_HAL_Driver/Src/stm32f4xx_hal_tim.c ****      (#) The DMA Burst is managed with the two following functions:
  92:Drivers/STM32F4xx_HAL_Driver/Src/stm32f4xx_hal_tim.c ****          HAL_TIM_DMABurst_WriteStart()
  93:Drivers/STM32F4xx_HAL_Driver/Src/stm32f4xx_hal_tim.c ****          HAL_TIM_DMABurst_ReadStart()
  94:Drivers/STM32F4xx_HAL_Driver/Src/stm32f4xx_hal_tim.c ****   
  95:Drivers/STM32F4xx_HAL_Driver/Src/stm32f4xx_hal_tim.c ****   @endverbatim
  96:Drivers/STM32F4xx_HAL_Driver/Src/stm32f4xx_hal_tim.c ****   ******************************************************************************
  97:Drivers/STM32F4xx_HAL_Driver/Src/stm32f4xx_hal_tim.c ****   * @attention
  98:Drivers/STM32F4xx_HAL_Driver/Src/stm32f4xx_hal_tim.c ****   *
  99:Drivers/STM32F4xx_HAL_Driver/Src/stm32f4xx_hal_tim.c ****   * <h2><center>&copy; COPYRIGHT(c) 2017 STMicroelectronics</center></h2>
 100:Drivers/STM32F4xx_HAL_Driver/Src/stm32f4xx_hal_tim.c ****   *
 101:Drivers/STM32F4xx_HAL_Driver/Src/stm32f4xx_hal_tim.c ****   * Redistribution and use in source and binary forms, with or without modification,
 102:Drivers/STM32F4xx_HAL_Driver/Src/stm32f4xx_hal_tim.c ****   * are permitted provided that the following conditions are met:
 103:Drivers/STM32F4xx_HAL_Driver/Src/stm32f4xx_hal_tim.c ****   *   1. Redistributions of source code must retain the above copyright notice,
 104:Drivers/STM32F4xx_HAL_Driver/Src/stm32f4xx_hal_tim.c ****   *      this list of conditions and the following disclaimer.
 105:Drivers/STM32F4xx_HAL_Driver/Src/stm32f4xx_hal_tim.c ****   *   2. Redistributions in binary form must reproduce the above copyright notice,
 106:Drivers/STM32F4xx_HAL_Driver/Src/stm32f4xx_hal_tim.c ****   *      this list of conditions and the following disclaimer in the documentation
 107:Drivers/STM32F4xx_HAL_Driver/Src/stm32f4xx_hal_tim.c ****   *      and/or other materials provided with the distribution.
 108:Drivers/STM32F4xx_HAL_Driver/Src/stm32f4xx_hal_tim.c ****   *   3. Neither the name of STMicroelectronics nor the names of its contributors
 109:Drivers/STM32F4xx_HAL_Driver/Src/stm32f4xx_hal_tim.c ****   *      may be used to endorse or promote products derived from this software
 110:Drivers/STM32F4xx_HAL_Driver/Src/stm32f4xx_hal_tim.c ****   *      without specific prior written permission.
 111:Drivers/STM32F4xx_HAL_Driver/Src/stm32f4xx_hal_tim.c ****   *
 112:Drivers/STM32F4xx_HAL_Driver/Src/stm32f4xx_hal_tim.c ****   * THIS SOFTWARE IS PROVIDED BY THE COPYRIGHT HOLDERS AND CONTRIBUTORS "AS IS"
 113:Drivers/STM32F4xx_HAL_Driver/Src/stm32f4xx_hal_tim.c ****   * AND ANY EXPRESS OR IMPLIED WARRANTIES, INCLUDING, BUT NOT LIMITED TO, THE
 114:Drivers/STM32F4xx_HAL_Driver/Src/stm32f4xx_hal_tim.c ****   * IMPLIED WARRANTIES OF MERCHANTABILITY AND FITNESS FOR A PARTICULAR PURPOSE ARE
 115:Drivers/STM32F4xx_HAL_Driver/Src/stm32f4xx_hal_tim.c ****   * DISCLAIMED. IN NO EVENT SHALL THE COPYRIGHT HOLDER OR CONTRIBUTORS BE LIABLE
 116:Drivers/STM32F4xx_HAL_Driver/Src/stm32f4xx_hal_tim.c ****   * FOR ANY DIRECT, INDIRECT, INCIDENTAL, SPECIAL, EXEMPLARY, OR CONSEQUENTIAL
 117:Drivers/STM32F4xx_HAL_Driver/Src/stm32f4xx_hal_tim.c ****   * DAMAGES (INCLUDING, BUT NOT LIMITED TO, PROCUREMENT OF SUBSTITUTE GOODS OR
 118:Drivers/STM32F4xx_HAL_Driver/Src/stm32f4xx_hal_tim.c ****   * SERVICES; LOSS OF USE, DATA, OR PROFITS; OR BUSINESS INTERRUPTION) HOWEVER
 119:Drivers/STM32F4xx_HAL_Driver/Src/stm32f4xx_hal_tim.c ****   * CAUSED AND ON ANY THEORY OF LIABILITY, WHETHER IN CONTRACT, STRICT LIABILITY,
 120:Drivers/STM32F4xx_HAL_Driver/Src/stm32f4xx_hal_tim.c ****   * OR TORT (INCLUDING NEGLIGENCE OR OTHERWISE) ARISING IN ANY WAY OUT OF THE USE
 121:Drivers/STM32F4xx_HAL_Driver/Src/stm32f4xx_hal_tim.c ****   * OF THIS SOFTWARE, EVEN IF ADVISED OF THE POSSIBILITY OF SUCH DAMAGE.
 122:Drivers/STM32F4xx_HAL_Driver/Src/stm32f4xx_hal_tim.c ****   *
 123:Drivers/STM32F4xx_HAL_Driver/Src/stm32f4xx_hal_tim.c ****   ******************************************************************************
 124:Drivers/STM32F4xx_HAL_Driver/Src/stm32f4xx_hal_tim.c ****   */ 
 125:Drivers/STM32F4xx_HAL_Driver/Src/stm32f4xx_hal_tim.c **** 
 126:Drivers/STM32F4xx_HAL_Driver/Src/stm32f4xx_hal_tim.c **** /* Includes ------------------------------------------------------------------*/
 127:Drivers/STM32F4xx_HAL_Driver/Src/stm32f4xx_hal_tim.c **** #include "stm32f4xx_hal.h"
 128:Drivers/STM32F4xx_HAL_Driver/Src/stm32f4xx_hal_tim.c **** 
 129:Drivers/STM32F4xx_HAL_Driver/Src/stm32f4xx_hal_tim.c **** /** @addtogroup STM32F4xx_HAL_Driver
 130:Drivers/STM32F4xx_HAL_Driver/Src/stm32f4xx_hal_tim.c ****   * @{
 131:Drivers/STM32F4xx_HAL_Driver/Src/stm32f4xx_hal_tim.c ****   */
 132:Drivers/STM32F4xx_HAL_Driver/Src/stm32f4xx_hal_tim.c **** 
 133:Drivers/STM32F4xx_HAL_Driver/Src/stm32f4xx_hal_tim.c **** /** @defgroup TIM TIM
 134:Drivers/STM32F4xx_HAL_Driver/Src/stm32f4xx_hal_tim.c ****   * @brief TIM HAL module driver
 135:Drivers/STM32F4xx_HAL_Driver/Src/stm32f4xx_hal_tim.c ****   * @{
 136:Drivers/STM32F4xx_HAL_Driver/Src/stm32f4xx_hal_tim.c ****   */
 137:Drivers/STM32F4xx_HAL_Driver/Src/stm32f4xx_hal_tim.c **** 
 138:Drivers/STM32F4xx_HAL_Driver/Src/stm32f4xx_hal_tim.c **** #ifdef HAL_TIM_MODULE_ENABLED
 139:Drivers/STM32F4xx_HAL_Driver/Src/stm32f4xx_hal_tim.c **** 
 140:Drivers/STM32F4xx_HAL_Driver/Src/stm32f4xx_hal_tim.c **** /* Private typedef -----------------------------------------------------------*/
 141:Drivers/STM32F4xx_HAL_Driver/Src/stm32f4xx_hal_tim.c **** /* Private define ------------------------------------------------------------*/
 142:Drivers/STM32F4xx_HAL_Driver/Src/stm32f4xx_hal_tim.c **** /* Private macro -------------------------------------------------------------*/
 143:Drivers/STM32F4xx_HAL_Driver/Src/stm32f4xx_hal_tim.c **** /* Private variables ---------------------------------------------------------*/
 144:Drivers/STM32F4xx_HAL_Driver/Src/stm32f4xx_hal_tim.c **** /** @addtogroup TIM_Private_Functions
 145:Drivers/STM32F4xx_HAL_Driver/Src/stm32f4xx_hal_tim.c ****   * @{
ARM GAS  /tmp/ccvK2xU6.s 			page 4


 146:Drivers/STM32F4xx_HAL_Driver/Src/stm32f4xx_hal_tim.c ****   */
 147:Drivers/STM32F4xx_HAL_Driver/Src/stm32f4xx_hal_tim.c **** /* Private function prototypes -----------------------------------------------*/
 148:Drivers/STM32F4xx_HAL_Driver/Src/stm32f4xx_hal_tim.c **** static void TIM_OC1_SetConfig(TIM_TypeDef *TIMx, TIM_OC_InitTypeDef *OC_Config);
 149:Drivers/STM32F4xx_HAL_Driver/Src/stm32f4xx_hal_tim.c **** static void TIM_OC3_SetConfig(TIM_TypeDef *TIMx, TIM_OC_InitTypeDef *OC_Config);
 150:Drivers/STM32F4xx_HAL_Driver/Src/stm32f4xx_hal_tim.c **** static void TIM_OC4_SetConfig(TIM_TypeDef *TIMx, TIM_OC_InitTypeDef *OC_Config);
 151:Drivers/STM32F4xx_HAL_Driver/Src/stm32f4xx_hal_tim.c **** 
 152:Drivers/STM32F4xx_HAL_Driver/Src/stm32f4xx_hal_tim.c **** static void TIM_TI1_ConfigInputStage(TIM_TypeDef *TIMx, uint32_t TIM_ICPolarity, uint32_t TIM_ICFil
 153:Drivers/STM32F4xx_HAL_Driver/Src/stm32f4xx_hal_tim.c **** static void TIM_TI2_SetConfig(TIM_TypeDef *TIMx, uint32_t TIM_ICPolarity, uint32_t TIM_ICSelection,
 154:Drivers/STM32F4xx_HAL_Driver/Src/stm32f4xx_hal_tim.c ****                        uint32_t TIM_ICFilter);
 155:Drivers/STM32F4xx_HAL_Driver/Src/stm32f4xx_hal_tim.c **** static void TIM_TI2_ConfigInputStage(TIM_TypeDef *TIMx, uint32_t TIM_ICPolarity, uint32_t TIM_ICFil
 156:Drivers/STM32F4xx_HAL_Driver/Src/stm32f4xx_hal_tim.c **** static void TIM_TI3_SetConfig(TIM_TypeDef *TIMx, uint32_t TIM_ICPolarity, uint32_t TIM_ICSelection,
 157:Drivers/STM32F4xx_HAL_Driver/Src/stm32f4xx_hal_tim.c ****                        uint32_t TIM_ICFilter);
 158:Drivers/STM32F4xx_HAL_Driver/Src/stm32f4xx_hal_tim.c **** static void TIM_TI4_SetConfig(TIM_TypeDef *TIMx, uint32_t TIM_ICPolarity, uint32_t TIM_ICSelection,
 159:Drivers/STM32F4xx_HAL_Driver/Src/stm32f4xx_hal_tim.c ****                        uint32_t TIM_ICFilter);
 160:Drivers/STM32F4xx_HAL_Driver/Src/stm32f4xx_hal_tim.c **** 
 161:Drivers/STM32F4xx_HAL_Driver/Src/stm32f4xx_hal_tim.c **** static void TIM_ETR_SetConfig(TIM_TypeDef* TIMx, uint32_t TIM_ExtTRGPrescaler,
 162:Drivers/STM32F4xx_HAL_Driver/Src/stm32f4xx_hal_tim.c ****                        uint32_t TIM_ExtTRGPolarity, uint32_t ExtTRGFilter);
 163:Drivers/STM32F4xx_HAL_Driver/Src/stm32f4xx_hal_tim.c **** 
 164:Drivers/STM32F4xx_HAL_Driver/Src/stm32f4xx_hal_tim.c **** static void TIM_ITRx_SetConfig(TIM_TypeDef* TIMx, uint16_t TIM_ITRx);
 165:Drivers/STM32F4xx_HAL_Driver/Src/stm32f4xx_hal_tim.c **** static void TIM_DMAPeriodElapsedCplt(DMA_HandleTypeDef *hdma);
 166:Drivers/STM32F4xx_HAL_Driver/Src/stm32f4xx_hal_tim.c **** static void TIM_DMATriggerCplt(DMA_HandleTypeDef *hdma);
 167:Drivers/STM32F4xx_HAL_Driver/Src/stm32f4xx_hal_tim.c **** static void TIM_SlaveTimer_SetConfig(TIM_HandleTypeDef *htim,
 168:Drivers/STM32F4xx_HAL_Driver/Src/stm32f4xx_hal_tim.c ****                                      TIM_SlaveConfigTypeDef * sSlaveConfig);
 169:Drivers/STM32F4xx_HAL_Driver/Src/stm32f4xx_hal_tim.c **** /**
 170:Drivers/STM32F4xx_HAL_Driver/Src/stm32f4xx_hal_tim.c ****   * @}
 171:Drivers/STM32F4xx_HAL_Driver/Src/stm32f4xx_hal_tim.c ****   */
 172:Drivers/STM32F4xx_HAL_Driver/Src/stm32f4xx_hal_tim.c ****   
 173:Drivers/STM32F4xx_HAL_Driver/Src/stm32f4xx_hal_tim.c **** /* Exported functions --------------------------------------------------------*/
 174:Drivers/STM32F4xx_HAL_Driver/Src/stm32f4xx_hal_tim.c **** /** @defgroup TIM_Exported_Functions TIM Exported Functions
 175:Drivers/STM32F4xx_HAL_Driver/Src/stm32f4xx_hal_tim.c ****   * @{
 176:Drivers/STM32F4xx_HAL_Driver/Src/stm32f4xx_hal_tim.c ****   */
 177:Drivers/STM32F4xx_HAL_Driver/Src/stm32f4xx_hal_tim.c **** 
 178:Drivers/STM32F4xx_HAL_Driver/Src/stm32f4xx_hal_tim.c **** /** @defgroup TIM_Exported_Functions_Group1 Time Base functions 
 179:Drivers/STM32F4xx_HAL_Driver/Src/stm32f4xx_hal_tim.c ****  *  @brief    Time Base functions 
 180:Drivers/STM32F4xx_HAL_Driver/Src/stm32f4xx_hal_tim.c ****  *
 181:Drivers/STM32F4xx_HAL_Driver/Src/stm32f4xx_hal_tim.c **** @verbatim    
 182:Drivers/STM32F4xx_HAL_Driver/Src/stm32f4xx_hal_tim.c ****   ==============================================================================
 183:Drivers/STM32F4xx_HAL_Driver/Src/stm32f4xx_hal_tim.c ****               ##### Time Base functions #####
 184:Drivers/STM32F4xx_HAL_Driver/Src/stm32f4xx_hal_tim.c ****   ==============================================================================
 185:Drivers/STM32F4xx_HAL_Driver/Src/stm32f4xx_hal_tim.c ****   [..]  
 186:Drivers/STM32F4xx_HAL_Driver/Src/stm32f4xx_hal_tim.c ****     This section provides functions allowing to:
 187:Drivers/STM32F4xx_HAL_Driver/Src/stm32f4xx_hal_tim.c ****     (+) Initialize and configure the TIM base. 
 188:Drivers/STM32F4xx_HAL_Driver/Src/stm32f4xx_hal_tim.c ****     (+) De-initialize the TIM base.
 189:Drivers/STM32F4xx_HAL_Driver/Src/stm32f4xx_hal_tim.c ****     (+) Start the Time Base.
 190:Drivers/STM32F4xx_HAL_Driver/Src/stm32f4xx_hal_tim.c ****     (+) Stop the Time Base.
 191:Drivers/STM32F4xx_HAL_Driver/Src/stm32f4xx_hal_tim.c ****     (+) Start the Time Base and enable interrupt.
 192:Drivers/STM32F4xx_HAL_Driver/Src/stm32f4xx_hal_tim.c ****     (+) Stop the Time Base and disable interrupt.
 193:Drivers/STM32F4xx_HAL_Driver/Src/stm32f4xx_hal_tim.c ****     (+) Start the Time Base and enable DMA transfer.
 194:Drivers/STM32F4xx_HAL_Driver/Src/stm32f4xx_hal_tim.c ****     (+) Stop the Time Base and disable DMA transfer.
 195:Drivers/STM32F4xx_HAL_Driver/Src/stm32f4xx_hal_tim.c ****  
 196:Drivers/STM32F4xx_HAL_Driver/Src/stm32f4xx_hal_tim.c **** @endverbatim
 197:Drivers/STM32F4xx_HAL_Driver/Src/stm32f4xx_hal_tim.c ****   * @{
 198:Drivers/STM32F4xx_HAL_Driver/Src/stm32f4xx_hal_tim.c ****   */
 199:Drivers/STM32F4xx_HAL_Driver/Src/stm32f4xx_hal_tim.c **** /**
 200:Drivers/STM32F4xx_HAL_Driver/Src/stm32f4xx_hal_tim.c ****   * @brief  Initializes the TIM Time base Unit according to the specified
 201:Drivers/STM32F4xx_HAL_Driver/Src/stm32f4xx_hal_tim.c ****   *         parameters in the TIM_HandleTypeDef and create the associated handle.
 202:Drivers/STM32F4xx_HAL_Driver/Src/stm32f4xx_hal_tim.c ****   * @param  htim pointer to a TIM_HandleTypeDef structure that contains
ARM GAS  /tmp/ccvK2xU6.s 			page 5


 203:Drivers/STM32F4xx_HAL_Driver/Src/stm32f4xx_hal_tim.c ****   *                the configuration information for TIM module.
 204:Drivers/STM32F4xx_HAL_Driver/Src/stm32f4xx_hal_tim.c ****   * @retval HAL status
 205:Drivers/STM32F4xx_HAL_Driver/Src/stm32f4xx_hal_tim.c ****   */
 206:Drivers/STM32F4xx_HAL_Driver/Src/stm32f4xx_hal_tim.c **** HAL_StatusTypeDef HAL_TIM_Base_Init(TIM_HandleTypeDef *htim)
 207:Drivers/STM32F4xx_HAL_Driver/Src/stm32f4xx_hal_tim.c **** { 
  28              		.loc 1 207 0
  29              		.cfi_startproc
  30              		@ args = 0, pretend = 0, frame = 8
  31              		@ frame_needed = 1, uses_anonymous_args = 0
  32 0000 80B5     		push	{r7, lr}
  33              	.LCFI0:
  34              		.cfi_def_cfa_offset 8
  35              		.cfi_offset 7, -8
  36              		.cfi_offset 14, -4
  37 0002 82B0     		sub	sp, sp, #8
  38              	.LCFI1:
  39              		.cfi_def_cfa_offset 16
  40 0004 00AF     		add	r7, sp, #0
  41              	.LCFI2:
  42              		.cfi_def_cfa_register 7
  43 0006 7860     		str	r0, [r7, #4]
 208:Drivers/STM32F4xx_HAL_Driver/Src/stm32f4xx_hal_tim.c ****   /* Check the TIM handle allocation */
 209:Drivers/STM32F4xx_HAL_Driver/Src/stm32f4xx_hal_tim.c ****   if(htim == NULL)
  44              		.loc 1 209 0
  45 0008 7B68     		ldr	r3, [r7, #4]
  46 000a 002B     		cmp	r3, #0
  47 000c 01D1     		bne	.L2
 210:Drivers/STM32F4xx_HAL_Driver/Src/stm32f4xx_hal_tim.c ****   {
 211:Drivers/STM32F4xx_HAL_Driver/Src/stm32f4xx_hal_tim.c ****     return HAL_ERROR;
  48              		.loc 1 211 0
  49 000e 0123     		movs	r3, #1
  50 0010 1DE0     		b	.L3
  51              	.L2:
 212:Drivers/STM32F4xx_HAL_Driver/Src/stm32f4xx_hal_tim.c ****   }
 213:Drivers/STM32F4xx_HAL_Driver/Src/stm32f4xx_hal_tim.c ****   
 214:Drivers/STM32F4xx_HAL_Driver/Src/stm32f4xx_hal_tim.c ****   /* Check the parameters */
 215:Drivers/STM32F4xx_HAL_Driver/Src/stm32f4xx_hal_tim.c ****   assert_param(IS_TIM_INSTANCE(htim->Instance)); 
 216:Drivers/STM32F4xx_HAL_Driver/Src/stm32f4xx_hal_tim.c ****   assert_param(IS_TIM_COUNTER_MODE(htim->Init.CounterMode));
 217:Drivers/STM32F4xx_HAL_Driver/Src/stm32f4xx_hal_tim.c ****   assert_param(IS_TIM_CLOCKDIVISION_DIV(htim->Init.ClockDivision));
 218:Drivers/STM32F4xx_HAL_Driver/Src/stm32f4xx_hal_tim.c ****   
 219:Drivers/STM32F4xx_HAL_Driver/Src/stm32f4xx_hal_tim.c ****   if(htim->State == HAL_TIM_STATE_RESET)
  52              		.loc 1 219 0
  53 0012 7B68     		ldr	r3, [r7, #4]
  54 0014 93F83930 		ldrb	r3, [r3, #57]
  55 0018 DBB2     		uxtb	r3, r3
  56 001a 002B     		cmp	r3, #0
  57 001c 06D1     		bne	.L4
 220:Drivers/STM32F4xx_HAL_Driver/Src/stm32f4xx_hal_tim.c ****   {  
 221:Drivers/STM32F4xx_HAL_Driver/Src/stm32f4xx_hal_tim.c ****     /* Allocate lock resource and initialize it */
 222:Drivers/STM32F4xx_HAL_Driver/Src/stm32f4xx_hal_tim.c ****     htim->Lock = HAL_UNLOCKED;
  58              		.loc 1 222 0
  59 001e 7B68     		ldr	r3, [r7, #4]
  60 0020 0022     		movs	r2, #0
  61 0022 83F83820 		strb	r2, [r3, #56]
 223:Drivers/STM32F4xx_HAL_Driver/Src/stm32f4xx_hal_tim.c ****     /* Init the low level hardware : GPIO, CLOCK, NVIC */
 224:Drivers/STM32F4xx_HAL_Driver/Src/stm32f4xx_hal_tim.c ****     HAL_TIM_Base_MspInit(htim);
  62              		.loc 1 224 0
ARM GAS  /tmp/ccvK2xU6.s 			page 6


  63 0026 7868     		ldr	r0, [r7, #4]
  64 0028 FFF7FEFF 		bl	HAL_TIM_Base_MspInit
  65              	.L4:
 225:Drivers/STM32F4xx_HAL_Driver/Src/stm32f4xx_hal_tim.c ****   }
 226:Drivers/STM32F4xx_HAL_Driver/Src/stm32f4xx_hal_tim.c ****   
 227:Drivers/STM32F4xx_HAL_Driver/Src/stm32f4xx_hal_tim.c ****   /* Set the TIM state */
 228:Drivers/STM32F4xx_HAL_Driver/Src/stm32f4xx_hal_tim.c ****   htim->State= HAL_TIM_STATE_BUSY;
  66              		.loc 1 228 0
  67 002c 7B68     		ldr	r3, [r7, #4]
  68 002e 0222     		movs	r2, #2
  69 0030 83F83920 		strb	r2, [r3, #57]
 229:Drivers/STM32F4xx_HAL_Driver/Src/stm32f4xx_hal_tim.c ****   
 230:Drivers/STM32F4xx_HAL_Driver/Src/stm32f4xx_hal_tim.c ****   /* Set the Time Base configuration */
 231:Drivers/STM32F4xx_HAL_Driver/Src/stm32f4xx_hal_tim.c ****   TIM_Base_SetConfig(htim->Instance, &htim->Init); 
  70              		.loc 1 231 0
  71 0034 7B68     		ldr	r3, [r7, #4]
  72 0036 1A68     		ldr	r2, [r3]
  73 0038 7B68     		ldr	r3, [r7, #4]
  74 003a 0433     		adds	r3, r3, #4
  75 003c 1946     		mov	r1, r3
  76 003e 1046     		mov	r0, r2
  77 0040 FFF7FEFF 		bl	TIM_Base_SetConfig
 232:Drivers/STM32F4xx_HAL_Driver/Src/stm32f4xx_hal_tim.c ****   
 233:Drivers/STM32F4xx_HAL_Driver/Src/stm32f4xx_hal_tim.c ****   /* Initialize the TIM state*/
 234:Drivers/STM32F4xx_HAL_Driver/Src/stm32f4xx_hal_tim.c ****   htim->State= HAL_TIM_STATE_READY;
  78              		.loc 1 234 0
  79 0044 7B68     		ldr	r3, [r7, #4]
  80 0046 0122     		movs	r2, #1
  81 0048 83F83920 		strb	r2, [r3, #57]
 235:Drivers/STM32F4xx_HAL_Driver/Src/stm32f4xx_hal_tim.c ****   
 236:Drivers/STM32F4xx_HAL_Driver/Src/stm32f4xx_hal_tim.c ****   return HAL_OK;
  82              		.loc 1 236 0
  83 004c 0023     		movs	r3, #0
  84              	.L3:
 237:Drivers/STM32F4xx_HAL_Driver/Src/stm32f4xx_hal_tim.c **** }
  85              		.loc 1 237 0
  86 004e 1846     		mov	r0, r3
  87 0050 0837     		adds	r7, r7, #8
  88              	.LCFI3:
  89              		.cfi_def_cfa_offset 8
  90 0052 BD46     		mov	sp, r7
  91              	.LCFI4:
  92              		.cfi_def_cfa_register 13
  93              		@ sp needed
  94 0054 80BD     		pop	{r7, pc}
  95              		.cfi_endproc
  96              	.LFE124:
  98              		.section	.text.HAL_TIM_Base_DeInit,"ax",%progbits
  99              		.align	1
 100              		.global	HAL_TIM_Base_DeInit
 101              		.syntax unified
 102              		.thumb
 103              		.thumb_func
 104              		.fpu fpv4-sp-d16
 106              	HAL_TIM_Base_DeInit:
 107              	.LFB125:
 238:Drivers/STM32F4xx_HAL_Driver/Src/stm32f4xx_hal_tim.c **** 
ARM GAS  /tmp/ccvK2xU6.s 			page 7


 239:Drivers/STM32F4xx_HAL_Driver/Src/stm32f4xx_hal_tim.c **** /**
 240:Drivers/STM32F4xx_HAL_Driver/Src/stm32f4xx_hal_tim.c ****   * @brief  DeInitializes the TIM Base peripheral 
 241:Drivers/STM32F4xx_HAL_Driver/Src/stm32f4xx_hal_tim.c ****   * @param  htim pointer to a TIM_HandleTypeDef structure that contains
 242:Drivers/STM32F4xx_HAL_Driver/Src/stm32f4xx_hal_tim.c ****   *                the configuration information for TIM module.
 243:Drivers/STM32F4xx_HAL_Driver/Src/stm32f4xx_hal_tim.c ****   * @retval HAL status
 244:Drivers/STM32F4xx_HAL_Driver/Src/stm32f4xx_hal_tim.c ****   */
 245:Drivers/STM32F4xx_HAL_Driver/Src/stm32f4xx_hal_tim.c **** HAL_StatusTypeDef HAL_TIM_Base_DeInit(TIM_HandleTypeDef *htim)
 246:Drivers/STM32F4xx_HAL_Driver/Src/stm32f4xx_hal_tim.c **** {  
 108              		.loc 1 246 0
 109              		.cfi_startproc
 110              		@ args = 0, pretend = 0, frame = 8
 111              		@ frame_needed = 1, uses_anonymous_args = 0
 112 0000 80B5     		push	{r7, lr}
 113              	.LCFI5:
 114              		.cfi_def_cfa_offset 8
 115              		.cfi_offset 7, -8
 116              		.cfi_offset 14, -4
 117 0002 82B0     		sub	sp, sp, #8
 118              	.LCFI6:
 119              		.cfi_def_cfa_offset 16
 120 0004 00AF     		add	r7, sp, #0
 121              	.LCFI7:
 122              		.cfi_def_cfa_register 7
 123 0006 7860     		str	r0, [r7, #4]
 247:Drivers/STM32F4xx_HAL_Driver/Src/stm32f4xx_hal_tim.c ****   /* Check the parameters */
 248:Drivers/STM32F4xx_HAL_Driver/Src/stm32f4xx_hal_tim.c ****   assert_param(IS_TIM_INSTANCE(htim->Instance));
 249:Drivers/STM32F4xx_HAL_Driver/Src/stm32f4xx_hal_tim.c **** 
 250:Drivers/STM32F4xx_HAL_Driver/Src/stm32f4xx_hal_tim.c ****   htim->State = HAL_TIM_STATE_BUSY;
 124              		.loc 1 250 0
 125 0008 7B68     		ldr	r3, [r7, #4]
 126 000a 0222     		movs	r2, #2
 127 000c 83F83920 		strb	r2, [r3, #57]
 251:Drivers/STM32F4xx_HAL_Driver/Src/stm32f4xx_hal_tim.c ****    
 252:Drivers/STM32F4xx_HAL_Driver/Src/stm32f4xx_hal_tim.c ****   /* Disable the TIM Peripheral Clock */
 253:Drivers/STM32F4xx_HAL_Driver/Src/stm32f4xx_hal_tim.c ****   __HAL_TIM_DISABLE(htim);
 128              		.loc 1 253 0
 129 0010 7B68     		ldr	r3, [r7, #4]
 130 0012 1B68     		ldr	r3, [r3]
 131 0014 1A6A     		ldr	r2, [r3, #32]
 132 0016 41F21113 		movw	r3, #4369
 133 001a 1340     		ands	r3, r3, r2
 134 001c 002B     		cmp	r3, #0
 135 001e 0FD1     		bne	.L6
 136              		.loc 1 253 0 is_stmt 0 discriminator 1
 137 0020 7B68     		ldr	r3, [r7, #4]
 138 0022 1B68     		ldr	r3, [r3]
 139 0024 1A6A     		ldr	r2, [r3, #32]
 140 0026 40F24443 		movw	r3, #1092
 141 002a 1340     		ands	r3, r3, r2
 142 002c 002B     		cmp	r3, #0
 143 002e 07D1     		bne	.L6
 144              		.loc 1 253 0 discriminator 2
 145 0030 7B68     		ldr	r3, [r7, #4]
 146 0032 1B68     		ldr	r3, [r3]
 147 0034 7A68     		ldr	r2, [r7, #4]
 148 0036 1268     		ldr	r2, [r2]
 149 0038 1268     		ldr	r2, [r2]
ARM GAS  /tmp/ccvK2xU6.s 			page 8


 150 003a 22F00102 		bic	r2, r2, #1
 151 003e 1A60     		str	r2, [r3]
 152              	.L6:
 254:Drivers/STM32F4xx_HAL_Driver/Src/stm32f4xx_hal_tim.c ****     
 255:Drivers/STM32F4xx_HAL_Driver/Src/stm32f4xx_hal_tim.c ****   /* DeInit the low level hardware: GPIO, CLOCK, NVIC */
 256:Drivers/STM32F4xx_HAL_Driver/Src/stm32f4xx_hal_tim.c ****   HAL_TIM_Base_MspDeInit(htim);
 153              		.loc 1 256 0 is_stmt 1
 154 0040 7868     		ldr	r0, [r7, #4]
 155 0042 FFF7FEFF 		bl	HAL_TIM_Base_MspDeInit
 257:Drivers/STM32F4xx_HAL_Driver/Src/stm32f4xx_hal_tim.c ****   
 258:Drivers/STM32F4xx_HAL_Driver/Src/stm32f4xx_hal_tim.c ****   /* Change TIM state */  
 259:Drivers/STM32F4xx_HAL_Driver/Src/stm32f4xx_hal_tim.c ****   htim->State = HAL_TIM_STATE_RESET; 
 156              		.loc 1 259 0
 157 0046 7B68     		ldr	r3, [r7, #4]
 158 0048 0022     		movs	r2, #0
 159 004a 83F83920 		strb	r2, [r3, #57]
 260:Drivers/STM32F4xx_HAL_Driver/Src/stm32f4xx_hal_tim.c ****   
 261:Drivers/STM32F4xx_HAL_Driver/Src/stm32f4xx_hal_tim.c ****   /* Release Lock */
 262:Drivers/STM32F4xx_HAL_Driver/Src/stm32f4xx_hal_tim.c ****   __HAL_UNLOCK(htim);
 160              		.loc 1 262 0
 161 004e 7B68     		ldr	r3, [r7, #4]
 162 0050 0022     		movs	r2, #0
 163 0052 83F83820 		strb	r2, [r3, #56]
 263:Drivers/STM32F4xx_HAL_Driver/Src/stm32f4xx_hal_tim.c **** 
 264:Drivers/STM32F4xx_HAL_Driver/Src/stm32f4xx_hal_tim.c ****   return HAL_OK;
 164              		.loc 1 264 0
 165 0056 0023     		movs	r3, #0
 265:Drivers/STM32F4xx_HAL_Driver/Src/stm32f4xx_hal_tim.c **** }
 166              		.loc 1 265 0
 167 0058 1846     		mov	r0, r3
 168 005a 0837     		adds	r7, r7, #8
 169              	.LCFI8:
 170              		.cfi_def_cfa_offset 8
 171 005c BD46     		mov	sp, r7
 172              	.LCFI9:
 173              		.cfi_def_cfa_register 13
 174              		@ sp needed
 175 005e 80BD     		pop	{r7, pc}
 176              		.cfi_endproc
 177              	.LFE125:
 179              		.section	.text.HAL_TIM_Base_MspInit,"ax",%progbits
 180              		.align	1
 181              		.weak	HAL_TIM_Base_MspInit
 182              		.syntax unified
 183              		.thumb
 184              		.thumb_func
 185              		.fpu fpv4-sp-d16
 187              	HAL_TIM_Base_MspInit:
 188              	.LFB126:
 266:Drivers/STM32F4xx_HAL_Driver/Src/stm32f4xx_hal_tim.c **** 
 267:Drivers/STM32F4xx_HAL_Driver/Src/stm32f4xx_hal_tim.c **** /**
 268:Drivers/STM32F4xx_HAL_Driver/Src/stm32f4xx_hal_tim.c ****   * @brief  Initializes the TIM Base MSP.
 269:Drivers/STM32F4xx_HAL_Driver/Src/stm32f4xx_hal_tim.c ****   * @param  htim pointer to a TIM_HandleTypeDef structure that contains
 270:Drivers/STM32F4xx_HAL_Driver/Src/stm32f4xx_hal_tim.c ****   *                the configuration information for TIM module.
 271:Drivers/STM32F4xx_HAL_Driver/Src/stm32f4xx_hal_tim.c ****   * @retval None
 272:Drivers/STM32F4xx_HAL_Driver/Src/stm32f4xx_hal_tim.c ****   */
 273:Drivers/STM32F4xx_HAL_Driver/Src/stm32f4xx_hal_tim.c **** __weak void HAL_TIM_Base_MspInit(TIM_HandleTypeDef *htim)
ARM GAS  /tmp/ccvK2xU6.s 			page 9


 274:Drivers/STM32F4xx_HAL_Driver/Src/stm32f4xx_hal_tim.c **** {
 189              		.loc 1 274 0
 190              		.cfi_startproc
 191              		@ args = 0, pretend = 0, frame = 8
 192              		@ frame_needed = 1, uses_anonymous_args = 0
 193              		@ link register save eliminated.
 194 0000 80B4     		push	{r7}
 195              	.LCFI10:
 196              		.cfi_def_cfa_offset 4
 197              		.cfi_offset 7, -4
 198 0002 83B0     		sub	sp, sp, #12
 199              	.LCFI11:
 200              		.cfi_def_cfa_offset 16
 201 0004 00AF     		add	r7, sp, #0
 202              	.LCFI12:
 203              		.cfi_def_cfa_register 7
 204 0006 7860     		str	r0, [r7, #4]
 275:Drivers/STM32F4xx_HAL_Driver/Src/stm32f4xx_hal_tim.c ****   /* Prevent unused argument(s) compilation warning */
 276:Drivers/STM32F4xx_HAL_Driver/Src/stm32f4xx_hal_tim.c ****   UNUSED(htim);
 277:Drivers/STM32F4xx_HAL_Driver/Src/stm32f4xx_hal_tim.c ****   /* NOTE : This function Should not be modified, when the callback is needed,
 278:Drivers/STM32F4xx_HAL_Driver/Src/stm32f4xx_hal_tim.c ****             the HAL_TIM_Base_MspInit could be implemented in the user file
 279:Drivers/STM32F4xx_HAL_Driver/Src/stm32f4xx_hal_tim.c ****    */
 280:Drivers/STM32F4xx_HAL_Driver/Src/stm32f4xx_hal_tim.c **** }
 205              		.loc 1 280 0
 206 0008 00BF     		nop
 207 000a 0C37     		adds	r7, r7, #12
 208              	.LCFI13:
 209              		.cfi_def_cfa_offset 4
 210 000c BD46     		mov	sp, r7
 211              	.LCFI14:
 212              		.cfi_def_cfa_register 13
 213              		@ sp needed
 214 000e 5DF8047B 		ldr	r7, [sp], #4
 215              	.LCFI15:
 216              		.cfi_restore 7
 217              		.cfi_def_cfa_offset 0
 218 0012 7047     		bx	lr
 219              		.cfi_endproc
 220              	.LFE126:
 222              		.section	.text.HAL_TIM_Base_MspDeInit,"ax",%progbits
 223              		.align	1
 224              		.weak	HAL_TIM_Base_MspDeInit
 225              		.syntax unified
 226              		.thumb
 227              		.thumb_func
 228              		.fpu fpv4-sp-d16
 230              	HAL_TIM_Base_MspDeInit:
 231              	.LFB127:
 281:Drivers/STM32F4xx_HAL_Driver/Src/stm32f4xx_hal_tim.c **** 
 282:Drivers/STM32F4xx_HAL_Driver/Src/stm32f4xx_hal_tim.c **** /**
 283:Drivers/STM32F4xx_HAL_Driver/Src/stm32f4xx_hal_tim.c ****   * @brief  DeInitializes TIM Base MSP.
 284:Drivers/STM32F4xx_HAL_Driver/Src/stm32f4xx_hal_tim.c ****   * @param  htim pointer to a TIM_HandleTypeDef structure that contains
 285:Drivers/STM32F4xx_HAL_Driver/Src/stm32f4xx_hal_tim.c ****   *                the configuration information for TIM module.
 286:Drivers/STM32F4xx_HAL_Driver/Src/stm32f4xx_hal_tim.c ****   * @retval None
 287:Drivers/STM32F4xx_HAL_Driver/Src/stm32f4xx_hal_tim.c ****   */
 288:Drivers/STM32F4xx_HAL_Driver/Src/stm32f4xx_hal_tim.c **** __weak void HAL_TIM_Base_MspDeInit(TIM_HandleTypeDef *htim)
 289:Drivers/STM32F4xx_HAL_Driver/Src/stm32f4xx_hal_tim.c **** {
ARM GAS  /tmp/ccvK2xU6.s 			page 10


 232              		.loc 1 289 0
 233              		.cfi_startproc
 234              		@ args = 0, pretend = 0, frame = 8
 235              		@ frame_needed = 1, uses_anonymous_args = 0
 236              		@ link register save eliminated.
 237 0000 80B4     		push	{r7}
 238              	.LCFI16:
 239              		.cfi_def_cfa_offset 4
 240              		.cfi_offset 7, -4
 241 0002 83B0     		sub	sp, sp, #12
 242              	.LCFI17:
 243              		.cfi_def_cfa_offset 16
 244 0004 00AF     		add	r7, sp, #0
 245              	.LCFI18:
 246              		.cfi_def_cfa_register 7
 247 0006 7860     		str	r0, [r7, #4]
 290:Drivers/STM32F4xx_HAL_Driver/Src/stm32f4xx_hal_tim.c ****   /* Prevent unused argument(s) compilation warning */
 291:Drivers/STM32F4xx_HAL_Driver/Src/stm32f4xx_hal_tim.c ****   UNUSED(htim);
 292:Drivers/STM32F4xx_HAL_Driver/Src/stm32f4xx_hal_tim.c ****   /* NOTE : This function Should not be modified, when the callback is needed,
 293:Drivers/STM32F4xx_HAL_Driver/Src/stm32f4xx_hal_tim.c ****             the HAL_TIM_Base_MspDeInit could be implemented in the user file
 294:Drivers/STM32F4xx_HAL_Driver/Src/stm32f4xx_hal_tim.c ****    */
 295:Drivers/STM32F4xx_HAL_Driver/Src/stm32f4xx_hal_tim.c **** }
 248              		.loc 1 295 0
 249 0008 00BF     		nop
 250 000a 0C37     		adds	r7, r7, #12
 251              	.LCFI19:
 252              		.cfi_def_cfa_offset 4
 253 000c BD46     		mov	sp, r7
 254              	.LCFI20:
 255              		.cfi_def_cfa_register 13
 256              		@ sp needed
 257 000e 5DF8047B 		ldr	r7, [sp], #4
 258              	.LCFI21:
 259              		.cfi_restore 7
 260              		.cfi_def_cfa_offset 0
 261 0012 7047     		bx	lr
 262              		.cfi_endproc
 263              	.LFE127:
 265              		.section	.text.HAL_TIM_Base_Start,"ax",%progbits
 266              		.align	1
 267              		.global	HAL_TIM_Base_Start
 268              		.syntax unified
 269              		.thumb
 270              		.thumb_func
 271              		.fpu fpv4-sp-d16
 273              	HAL_TIM_Base_Start:
 274              	.LFB128:
 296:Drivers/STM32F4xx_HAL_Driver/Src/stm32f4xx_hal_tim.c **** 
 297:Drivers/STM32F4xx_HAL_Driver/Src/stm32f4xx_hal_tim.c **** /**
 298:Drivers/STM32F4xx_HAL_Driver/Src/stm32f4xx_hal_tim.c ****   * @brief  Starts the TIM Base generation.
 299:Drivers/STM32F4xx_HAL_Driver/Src/stm32f4xx_hal_tim.c ****   * @param  htim pointer to a TIM_HandleTypeDef structure that contains
 300:Drivers/STM32F4xx_HAL_Driver/Src/stm32f4xx_hal_tim.c ****   *                the configuration information for TIM module.
 301:Drivers/STM32F4xx_HAL_Driver/Src/stm32f4xx_hal_tim.c ****   * @retval HAL status
 302:Drivers/STM32F4xx_HAL_Driver/Src/stm32f4xx_hal_tim.c ****   */
 303:Drivers/STM32F4xx_HAL_Driver/Src/stm32f4xx_hal_tim.c **** HAL_StatusTypeDef HAL_TIM_Base_Start(TIM_HandleTypeDef *htim)
 304:Drivers/STM32F4xx_HAL_Driver/Src/stm32f4xx_hal_tim.c **** {
 275              		.loc 1 304 0
ARM GAS  /tmp/ccvK2xU6.s 			page 11


 276              		.cfi_startproc
 277              		@ args = 0, pretend = 0, frame = 8
 278              		@ frame_needed = 1, uses_anonymous_args = 0
 279              		@ link register save eliminated.
 280 0000 80B4     		push	{r7}
 281              	.LCFI22:
 282              		.cfi_def_cfa_offset 4
 283              		.cfi_offset 7, -4
 284 0002 83B0     		sub	sp, sp, #12
 285              	.LCFI23:
 286              		.cfi_def_cfa_offset 16
 287 0004 00AF     		add	r7, sp, #0
 288              	.LCFI24:
 289              		.cfi_def_cfa_register 7
 290 0006 7860     		str	r0, [r7, #4]
 305:Drivers/STM32F4xx_HAL_Driver/Src/stm32f4xx_hal_tim.c ****   /* Check the parameters */
 306:Drivers/STM32F4xx_HAL_Driver/Src/stm32f4xx_hal_tim.c ****   assert_param(IS_TIM_INSTANCE(htim->Instance));
 307:Drivers/STM32F4xx_HAL_Driver/Src/stm32f4xx_hal_tim.c ****   
 308:Drivers/STM32F4xx_HAL_Driver/Src/stm32f4xx_hal_tim.c ****   /* Set the TIM state */
 309:Drivers/STM32F4xx_HAL_Driver/Src/stm32f4xx_hal_tim.c ****   htim->State= HAL_TIM_STATE_BUSY;
 291              		.loc 1 309 0
 292 0008 7B68     		ldr	r3, [r7, #4]
 293 000a 0222     		movs	r2, #2
 294 000c 83F83920 		strb	r2, [r3, #57]
 310:Drivers/STM32F4xx_HAL_Driver/Src/stm32f4xx_hal_tim.c ****   
 311:Drivers/STM32F4xx_HAL_Driver/Src/stm32f4xx_hal_tim.c ****   /* Enable the Peripheral */
 312:Drivers/STM32F4xx_HAL_Driver/Src/stm32f4xx_hal_tim.c ****   __HAL_TIM_ENABLE(htim);
 295              		.loc 1 312 0
 296 0010 7B68     		ldr	r3, [r7, #4]
 297 0012 1B68     		ldr	r3, [r3]
 298 0014 7A68     		ldr	r2, [r7, #4]
 299 0016 1268     		ldr	r2, [r2]
 300 0018 1268     		ldr	r2, [r2]
 301 001a 42F00102 		orr	r2, r2, #1
 302 001e 1A60     		str	r2, [r3]
 313:Drivers/STM32F4xx_HAL_Driver/Src/stm32f4xx_hal_tim.c ****   
 314:Drivers/STM32F4xx_HAL_Driver/Src/stm32f4xx_hal_tim.c ****   /* Change the TIM state*/
 315:Drivers/STM32F4xx_HAL_Driver/Src/stm32f4xx_hal_tim.c ****   htim->State= HAL_TIM_STATE_READY;
 303              		.loc 1 315 0
 304 0020 7B68     		ldr	r3, [r7, #4]
 305 0022 0122     		movs	r2, #1
 306 0024 83F83920 		strb	r2, [r3, #57]
 316:Drivers/STM32F4xx_HAL_Driver/Src/stm32f4xx_hal_tim.c ****   
 317:Drivers/STM32F4xx_HAL_Driver/Src/stm32f4xx_hal_tim.c ****   /* Return function status */
 318:Drivers/STM32F4xx_HAL_Driver/Src/stm32f4xx_hal_tim.c ****   return HAL_OK;
 307              		.loc 1 318 0
 308 0028 0023     		movs	r3, #0
 319:Drivers/STM32F4xx_HAL_Driver/Src/stm32f4xx_hal_tim.c **** }
 309              		.loc 1 319 0
 310 002a 1846     		mov	r0, r3
 311 002c 0C37     		adds	r7, r7, #12
 312              	.LCFI25:
 313              		.cfi_def_cfa_offset 4
 314 002e BD46     		mov	sp, r7
 315              	.LCFI26:
 316              		.cfi_def_cfa_register 13
 317              		@ sp needed
ARM GAS  /tmp/ccvK2xU6.s 			page 12


 318 0030 5DF8047B 		ldr	r7, [sp], #4
 319              	.LCFI27:
 320              		.cfi_restore 7
 321              		.cfi_def_cfa_offset 0
 322 0034 7047     		bx	lr
 323              		.cfi_endproc
 324              	.LFE128:
 326              		.section	.text.HAL_TIM_Base_Stop,"ax",%progbits
 327              		.align	1
 328              		.global	HAL_TIM_Base_Stop
 329              		.syntax unified
 330              		.thumb
 331              		.thumb_func
 332              		.fpu fpv4-sp-d16
 334              	HAL_TIM_Base_Stop:
 335              	.LFB129:
 320:Drivers/STM32F4xx_HAL_Driver/Src/stm32f4xx_hal_tim.c **** 
 321:Drivers/STM32F4xx_HAL_Driver/Src/stm32f4xx_hal_tim.c **** /**
 322:Drivers/STM32F4xx_HAL_Driver/Src/stm32f4xx_hal_tim.c ****   * @brief  Stops the TIM Base generation.
 323:Drivers/STM32F4xx_HAL_Driver/Src/stm32f4xx_hal_tim.c ****   * @param  htim pointer to a TIM_HandleTypeDef structure that contains
 324:Drivers/STM32F4xx_HAL_Driver/Src/stm32f4xx_hal_tim.c ****   *                the configuration information for TIM module.
 325:Drivers/STM32F4xx_HAL_Driver/Src/stm32f4xx_hal_tim.c ****   * @retval HAL status
 326:Drivers/STM32F4xx_HAL_Driver/Src/stm32f4xx_hal_tim.c ****   */
 327:Drivers/STM32F4xx_HAL_Driver/Src/stm32f4xx_hal_tim.c **** HAL_StatusTypeDef HAL_TIM_Base_Stop(TIM_HandleTypeDef *htim)
 328:Drivers/STM32F4xx_HAL_Driver/Src/stm32f4xx_hal_tim.c **** {
 336              		.loc 1 328 0
 337              		.cfi_startproc
 338              		@ args = 0, pretend = 0, frame = 8
 339              		@ frame_needed = 1, uses_anonymous_args = 0
 340              		@ link register save eliminated.
 341 0000 80B4     		push	{r7}
 342              	.LCFI28:
 343              		.cfi_def_cfa_offset 4
 344              		.cfi_offset 7, -4
 345 0002 83B0     		sub	sp, sp, #12
 346              	.LCFI29:
 347              		.cfi_def_cfa_offset 16
 348 0004 00AF     		add	r7, sp, #0
 349              	.LCFI30:
 350              		.cfi_def_cfa_register 7
 351 0006 7860     		str	r0, [r7, #4]
 329:Drivers/STM32F4xx_HAL_Driver/Src/stm32f4xx_hal_tim.c ****   /* Check the parameters */
 330:Drivers/STM32F4xx_HAL_Driver/Src/stm32f4xx_hal_tim.c ****   assert_param(IS_TIM_INSTANCE(htim->Instance));
 331:Drivers/STM32F4xx_HAL_Driver/Src/stm32f4xx_hal_tim.c ****   
 332:Drivers/STM32F4xx_HAL_Driver/Src/stm32f4xx_hal_tim.c ****   /* Set the TIM state */
 333:Drivers/STM32F4xx_HAL_Driver/Src/stm32f4xx_hal_tim.c ****   htim->State= HAL_TIM_STATE_BUSY;
 352              		.loc 1 333 0
 353 0008 7B68     		ldr	r3, [r7, #4]
 354 000a 0222     		movs	r2, #2
 355 000c 83F83920 		strb	r2, [r3, #57]
 334:Drivers/STM32F4xx_HAL_Driver/Src/stm32f4xx_hal_tim.c ****   
 335:Drivers/STM32F4xx_HAL_Driver/Src/stm32f4xx_hal_tim.c ****   /* Disable the Peripheral */
 336:Drivers/STM32F4xx_HAL_Driver/Src/stm32f4xx_hal_tim.c ****   __HAL_TIM_DISABLE(htim);
 356              		.loc 1 336 0
 357 0010 7B68     		ldr	r3, [r7, #4]
 358 0012 1B68     		ldr	r3, [r3]
 359 0014 1A6A     		ldr	r2, [r3, #32]
ARM GAS  /tmp/ccvK2xU6.s 			page 13


 360 0016 41F21113 		movw	r3, #4369
 361 001a 1340     		ands	r3, r3, r2
 362 001c 002B     		cmp	r3, #0
 363 001e 0FD1     		bne	.L13
 364              		.loc 1 336 0 is_stmt 0 discriminator 1
 365 0020 7B68     		ldr	r3, [r7, #4]
 366 0022 1B68     		ldr	r3, [r3]
 367 0024 1A6A     		ldr	r2, [r3, #32]
 368 0026 40F24443 		movw	r3, #1092
 369 002a 1340     		ands	r3, r3, r2
 370 002c 002B     		cmp	r3, #0
 371 002e 07D1     		bne	.L13
 372              		.loc 1 336 0 discriminator 2
 373 0030 7B68     		ldr	r3, [r7, #4]
 374 0032 1B68     		ldr	r3, [r3]
 375 0034 7A68     		ldr	r2, [r7, #4]
 376 0036 1268     		ldr	r2, [r2]
 377 0038 1268     		ldr	r2, [r2]
 378 003a 22F00102 		bic	r2, r2, #1
 379 003e 1A60     		str	r2, [r3]
 380              	.L13:
 337:Drivers/STM32F4xx_HAL_Driver/Src/stm32f4xx_hal_tim.c ****   
 338:Drivers/STM32F4xx_HAL_Driver/Src/stm32f4xx_hal_tim.c ****   /* Change the TIM state*/
 339:Drivers/STM32F4xx_HAL_Driver/Src/stm32f4xx_hal_tim.c ****   htim->State= HAL_TIM_STATE_READY;
 381              		.loc 1 339 0 is_stmt 1
 382 0040 7B68     		ldr	r3, [r7, #4]
 383 0042 0122     		movs	r2, #1
 384 0044 83F83920 		strb	r2, [r3, #57]
 340:Drivers/STM32F4xx_HAL_Driver/Src/stm32f4xx_hal_tim.c ****   
 341:Drivers/STM32F4xx_HAL_Driver/Src/stm32f4xx_hal_tim.c ****   /* Return function status */
 342:Drivers/STM32F4xx_HAL_Driver/Src/stm32f4xx_hal_tim.c ****   return HAL_OK;
 385              		.loc 1 342 0
 386 0048 0023     		movs	r3, #0
 343:Drivers/STM32F4xx_HAL_Driver/Src/stm32f4xx_hal_tim.c **** }
 387              		.loc 1 343 0
 388 004a 1846     		mov	r0, r3
 389 004c 0C37     		adds	r7, r7, #12
 390              	.LCFI31:
 391              		.cfi_def_cfa_offset 4
 392 004e BD46     		mov	sp, r7
 393              	.LCFI32:
 394              		.cfi_def_cfa_register 13
 395              		@ sp needed
 396 0050 5DF8047B 		ldr	r7, [sp], #4
 397              	.LCFI33:
 398              		.cfi_restore 7
 399              		.cfi_def_cfa_offset 0
 400 0054 7047     		bx	lr
 401              		.cfi_endproc
 402              	.LFE129:
 404              		.section	.text.HAL_TIM_Base_Start_IT,"ax",%progbits
 405              		.align	1
 406              		.global	HAL_TIM_Base_Start_IT
 407              		.syntax unified
 408              		.thumb
 409              		.thumb_func
 410              		.fpu fpv4-sp-d16
ARM GAS  /tmp/ccvK2xU6.s 			page 14


 412              	HAL_TIM_Base_Start_IT:
 413              	.LFB130:
 344:Drivers/STM32F4xx_HAL_Driver/Src/stm32f4xx_hal_tim.c **** 
 345:Drivers/STM32F4xx_HAL_Driver/Src/stm32f4xx_hal_tim.c **** /**
 346:Drivers/STM32F4xx_HAL_Driver/Src/stm32f4xx_hal_tim.c ****   * @brief  Starts the TIM Base generation in interrupt mode.
 347:Drivers/STM32F4xx_HAL_Driver/Src/stm32f4xx_hal_tim.c ****   * @param  htim pointer to a TIM_HandleTypeDef structure that contains
 348:Drivers/STM32F4xx_HAL_Driver/Src/stm32f4xx_hal_tim.c ****   *                the configuration information for TIM module.
 349:Drivers/STM32F4xx_HAL_Driver/Src/stm32f4xx_hal_tim.c ****   * @retval HAL status
 350:Drivers/STM32F4xx_HAL_Driver/Src/stm32f4xx_hal_tim.c ****   */
 351:Drivers/STM32F4xx_HAL_Driver/Src/stm32f4xx_hal_tim.c **** HAL_StatusTypeDef HAL_TIM_Base_Start_IT(TIM_HandleTypeDef *htim)
 352:Drivers/STM32F4xx_HAL_Driver/Src/stm32f4xx_hal_tim.c **** {
 414              		.loc 1 352 0
 415              		.cfi_startproc
 416              		@ args = 0, pretend = 0, frame = 8
 417              		@ frame_needed = 1, uses_anonymous_args = 0
 418              		@ link register save eliminated.
 419 0000 80B4     		push	{r7}
 420              	.LCFI34:
 421              		.cfi_def_cfa_offset 4
 422              		.cfi_offset 7, -4
 423 0002 83B0     		sub	sp, sp, #12
 424              	.LCFI35:
 425              		.cfi_def_cfa_offset 16
 426 0004 00AF     		add	r7, sp, #0
 427              	.LCFI36:
 428              		.cfi_def_cfa_register 7
 429 0006 7860     		str	r0, [r7, #4]
 353:Drivers/STM32F4xx_HAL_Driver/Src/stm32f4xx_hal_tim.c ****   /* Check the parameters */
 354:Drivers/STM32F4xx_HAL_Driver/Src/stm32f4xx_hal_tim.c ****   assert_param(IS_TIM_INSTANCE(htim->Instance));
 355:Drivers/STM32F4xx_HAL_Driver/Src/stm32f4xx_hal_tim.c ****   
 356:Drivers/STM32F4xx_HAL_Driver/Src/stm32f4xx_hal_tim.c ****   /* Enable the TIM Update interrupt */
 357:Drivers/STM32F4xx_HAL_Driver/Src/stm32f4xx_hal_tim.c ****   __HAL_TIM_ENABLE_IT(htim, TIM_IT_UPDATE);
 430              		.loc 1 357 0
 431 0008 7B68     		ldr	r3, [r7, #4]
 432 000a 1B68     		ldr	r3, [r3]
 433 000c 7A68     		ldr	r2, [r7, #4]
 434 000e 1268     		ldr	r2, [r2]
 435 0010 D268     		ldr	r2, [r2, #12]
 436 0012 42F00102 		orr	r2, r2, #1
 437 0016 DA60     		str	r2, [r3, #12]
 358:Drivers/STM32F4xx_HAL_Driver/Src/stm32f4xx_hal_tim.c ****       
 359:Drivers/STM32F4xx_HAL_Driver/Src/stm32f4xx_hal_tim.c ****   /* Enable the Peripheral */
 360:Drivers/STM32F4xx_HAL_Driver/Src/stm32f4xx_hal_tim.c ****   __HAL_TIM_ENABLE(htim);
 438              		.loc 1 360 0
 439 0018 7B68     		ldr	r3, [r7, #4]
 440 001a 1B68     		ldr	r3, [r3]
 441 001c 7A68     		ldr	r2, [r7, #4]
 442 001e 1268     		ldr	r2, [r2]
 443 0020 1268     		ldr	r2, [r2]
 444 0022 42F00102 		orr	r2, r2, #1
 445 0026 1A60     		str	r2, [r3]
 361:Drivers/STM32F4xx_HAL_Driver/Src/stm32f4xx_hal_tim.c ****       
 362:Drivers/STM32F4xx_HAL_Driver/Src/stm32f4xx_hal_tim.c ****   /* Return function status */
 363:Drivers/STM32F4xx_HAL_Driver/Src/stm32f4xx_hal_tim.c ****   return HAL_OK;
 446              		.loc 1 363 0
 447 0028 0023     		movs	r3, #0
 364:Drivers/STM32F4xx_HAL_Driver/Src/stm32f4xx_hal_tim.c **** }
ARM GAS  /tmp/ccvK2xU6.s 			page 15


 448              		.loc 1 364 0
 449 002a 1846     		mov	r0, r3
 450 002c 0C37     		adds	r7, r7, #12
 451              	.LCFI37:
 452              		.cfi_def_cfa_offset 4
 453 002e BD46     		mov	sp, r7
 454              	.LCFI38:
 455              		.cfi_def_cfa_register 13
 456              		@ sp needed
 457 0030 5DF8047B 		ldr	r7, [sp], #4
 458              	.LCFI39:
 459              		.cfi_restore 7
 460              		.cfi_def_cfa_offset 0
 461 0034 7047     		bx	lr
 462              		.cfi_endproc
 463              	.LFE130:
 465              		.section	.text.HAL_TIM_Base_Stop_IT,"ax",%progbits
 466              		.align	1
 467              		.global	HAL_TIM_Base_Stop_IT
 468              		.syntax unified
 469              		.thumb
 470              		.thumb_func
 471              		.fpu fpv4-sp-d16
 473              	HAL_TIM_Base_Stop_IT:
 474              	.LFB131:
 365:Drivers/STM32F4xx_HAL_Driver/Src/stm32f4xx_hal_tim.c **** 
 366:Drivers/STM32F4xx_HAL_Driver/Src/stm32f4xx_hal_tim.c **** /**
 367:Drivers/STM32F4xx_HAL_Driver/Src/stm32f4xx_hal_tim.c ****   * @brief  Stops the TIM Base generation in interrupt mode.
 368:Drivers/STM32F4xx_HAL_Driver/Src/stm32f4xx_hal_tim.c ****   * @param  htim pointer to a TIM_HandleTypeDef structure that contains
 369:Drivers/STM32F4xx_HAL_Driver/Src/stm32f4xx_hal_tim.c ****   *                the configuration information for TIM module.
 370:Drivers/STM32F4xx_HAL_Driver/Src/stm32f4xx_hal_tim.c ****   * @retval HAL status
 371:Drivers/STM32F4xx_HAL_Driver/Src/stm32f4xx_hal_tim.c ****   */
 372:Drivers/STM32F4xx_HAL_Driver/Src/stm32f4xx_hal_tim.c **** HAL_StatusTypeDef HAL_TIM_Base_Stop_IT(TIM_HandleTypeDef *htim)
 373:Drivers/STM32F4xx_HAL_Driver/Src/stm32f4xx_hal_tim.c **** {
 475              		.loc 1 373 0
 476              		.cfi_startproc
 477              		@ args = 0, pretend = 0, frame = 8
 478              		@ frame_needed = 1, uses_anonymous_args = 0
 479              		@ link register save eliminated.
 480 0000 80B4     		push	{r7}
 481              	.LCFI40:
 482              		.cfi_def_cfa_offset 4
 483              		.cfi_offset 7, -4
 484 0002 83B0     		sub	sp, sp, #12
 485              	.LCFI41:
 486              		.cfi_def_cfa_offset 16
 487 0004 00AF     		add	r7, sp, #0
 488              	.LCFI42:
 489              		.cfi_def_cfa_register 7
 490 0006 7860     		str	r0, [r7, #4]
 374:Drivers/STM32F4xx_HAL_Driver/Src/stm32f4xx_hal_tim.c ****   /* Check the parameters */
 375:Drivers/STM32F4xx_HAL_Driver/Src/stm32f4xx_hal_tim.c ****   assert_param(IS_TIM_INSTANCE(htim->Instance));
 376:Drivers/STM32F4xx_HAL_Driver/Src/stm32f4xx_hal_tim.c ****   /* Disable the TIM Update interrupt */
 377:Drivers/STM32F4xx_HAL_Driver/Src/stm32f4xx_hal_tim.c ****   __HAL_TIM_DISABLE_IT(htim, TIM_IT_UPDATE);
 491              		.loc 1 377 0
 492 0008 7B68     		ldr	r3, [r7, #4]
 493 000a 1B68     		ldr	r3, [r3]
ARM GAS  /tmp/ccvK2xU6.s 			page 16


 494 000c 7A68     		ldr	r2, [r7, #4]
 495 000e 1268     		ldr	r2, [r2]
 496 0010 D268     		ldr	r2, [r2, #12]
 497 0012 22F00102 		bic	r2, r2, #1
 498 0016 DA60     		str	r2, [r3, #12]
 378:Drivers/STM32F4xx_HAL_Driver/Src/stm32f4xx_hal_tim.c ****       
 379:Drivers/STM32F4xx_HAL_Driver/Src/stm32f4xx_hal_tim.c ****   /* Disable the Peripheral */
 380:Drivers/STM32F4xx_HAL_Driver/Src/stm32f4xx_hal_tim.c ****   __HAL_TIM_DISABLE(htim);
 499              		.loc 1 380 0
 500 0018 7B68     		ldr	r3, [r7, #4]
 501 001a 1B68     		ldr	r3, [r3]
 502 001c 1A6A     		ldr	r2, [r3, #32]
 503 001e 41F21113 		movw	r3, #4369
 504 0022 1340     		ands	r3, r3, r2
 505 0024 002B     		cmp	r3, #0
 506 0026 0FD1     		bne	.L18
 507              		.loc 1 380 0 is_stmt 0 discriminator 1
 508 0028 7B68     		ldr	r3, [r7, #4]
 509 002a 1B68     		ldr	r3, [r3]
 510 002c 1A6A     		ldr	r2, [r3, #32]
 511 002e 40F24443 		movw	r3, #1092
 512 0032 1340     		ands	r3, r3, r2
 513 0034 002B     		cmp	r3, #0
 514 0036 07D1     		bne	.L18
 515              		.loc 1 380 0 discriminator 2
 516 0038 7B68     		ldr	r3, [r7, #4]
 517 003a 1B68     		ldr	r3, [r3]
 518 003c 7A68     		ldr	r2, [r7, #4]
 519 003e 1268     		ldr	r2, [r2]
 520 0040 1268     		ldr	r2, [r2]
 521 0042 22F00102 		bic	r2, r2, #1
 522 0046 1A60     		str	r2, [r3]
 523              	.L18:
 381:Drivers/STM32F4xx_HAL_Driver/Src/stm32f4xx_hal_tim.c ****     
 382:Drivers/STM32F4xx_HAL_Driver/Src/stm32f4xx_hal_tim.c ****   /* Return function status */
 383:Drivers/STM32F4xx_HAL_Driver/Src/stm32f4xx_hal_tim.c ****   return HAL_OK;
 524              		.loc 1 383 0 is_stmt 1
 525 0048 0023     		movs	r3, #0
 384:Drivers/STM32F4xx_HAL_Driver/Src/stm32f4xx_hal_tim.c **** }
 526              		.loc 1 384 0
 527 004a 1846     		mov	r0, r3
 528 004c 0C37     		adds	r7, r7, #12
 529              	.LCFI43:
 530              		.cfi_def_cfa_offset 4
 531 004e BD46     		mov	sp, r7
 532              	.LCFI44:
 533              		.cfi_def_cfa_register 13
 534              		@ sp needed
 535 0050 5DF8047B 		ldr	r7, [sp], #4
 536              	.LCFI45:
 537              		.cfi_restore 7
 538              		.cfi_def_cfa_offset 0
 539 0054 7047     		bx	lr
 540              		.cfi_endproc
 541              	.LFE131:
 543              		.section	.text.HAL_TIM_Base_Start_DMA,"ax",%progbits
 544              		.align	1
ARM GAS  /tmp/ccvK2xU6.s 			page 17


 545              		.global	HAL_TIM_Base_Start_DMA
 546              		.syntax unified
 547              		.thumb
 548              		.thumb_func
 549              		.fpu fpv4-sp-d16
 551              	HAL_TIM_Base_Start_DMA:
 552              	.LFB132:
 385:Drivers/STM32F4xx_HAL_Driver/Src/stm32f4xx_hal_tim.c **** 
 386:Drivers/STM32F4xx_HAL_Driver/Src/stm32f4xx_hal_tim.c **** /**
 387:Drivers/STM32F4xx_HAL_Driver/Src/stm32f4xx_hal_tim.c ****   * @brief  Starts the TIM Base generation in DMA mode.
 388:Drivers/STM32F4xx_HAL_Driver/Src/stm32f4xx_hal_tim.c ****   * @param  htim pointer to a TIM_HandleTypeDef structure that contains
 389:Drivers/STM32F4xx_HAL_Driver/Src/stm32f4xx_hal_tim.c ****   *                the configuration information for TIM module.
 390:Drivers/STM32F4xx_HAL_Driver/Src/stm32f4xx_hal_tim.c ****   * @param  pData The source Buffer address.
 391:Drivers/STM32F4xx_HAL_Driver/Src/stm32f4xx_hal_tim.c ****   * @param  Length The length of data to be transferred from memory to peripheral.
 392:Drivers/STM32F4xx_HAL_Driver/Src/stm32f4xx_hal_tim.c ****   * @retval HAL status
 393:Drivers/STM32F4xx_HAL_Driver/Src/stm32f4xx_hal_tim.c ****   */
 394:Drivers/STM32F4xx_HAL_Driver/Src/stm32f4xx_hal_tim.c **** HAL_StatusTypeDef HAL_TIM_Base_Start_DMA(TIM_HandleTypeDef *htim, uint32_t *pData, uint16_t Length)
 395:Drivers/STM32F4xx_HAL_Driver/Src/stm32f4xx_hal_tim.c **** {
 553              		.loc 1 395 0
 554              		.cfi_startproc
 555              		@ args = 0, pretend = 0, frame = 16
 556              		@ frame_needed = 1, uses_anonymous_args = 0
 557 0000 80B5     		push	{r7, lr}
 558              	.LCFI46:
 559              		.cfi_def_cfa_offset 8
 560              		.cfi_offset 7, -8
 561              		.cfi_offset 14, -4
 562 0002 84B0     		sub	sp, sp, #16
 563              	.LCFI47:
 564              		.cfi_def_cfa_offset 24
 565 0004 00AF     		add	r7, sp, #0
 566              	.LCFI48:
 567              		.cfi_def_cfa_register 7
 568 0006 F860     		str	r0, [r7, #12]
 569 0008 B960     		str	r1, [r7, #8]
 570 000a 1346     		mov	r3, r2
 571 000c FB80     		strh	r3, [r7, #6]	@ movhi
 396:Drivers/STM32F4xx_HAL_Driver/Src/stm32f4xx_hal_tim.c ****   /* Check the parameters */
 397:Drivers/STM32F4xx_HAL_Driver/Src/stm32f4xx_hal_tim.c ****   assert_param(IS_TIM_DMA_INSTANCE(htim->Instance)); 
 398:Drivers/STM32F4xx_HAL_Driver/Src/stm32f4xx_hal_tim.c ****   
 399:Drivers/STM32F4xx_HAL_Driver/Src/stm32f4xx_hal_tim.c ****   if((htim->State == HAL_TIM_STATE_BUSY))
 572              		.loc 1 399 0
 573 000e FB68     		ldr	r3, [r7, #12]
 574 0010 93F83930 		ldrb	r3, [r3, #57]
 575 0014 DBB2     		uxtb	r3, r3
 576 0016 022B     		cmp	r3, #2
 577 0018 01D1     		bne	.L21
 400:Drivers/STM32F4xx_HAL_Driver/Src/stm32f4xx_hal_tim.c ****   {
 401:Drivers/STM32F4xx_HAL_Driver/Src/stm32f4xx_hal_tim.c ****      return HAL_BUSY;
 578              		.loc 1 401 0
 579 001a 0223     		movs	r3, #2
 580 001c 34E0     		b	.L22
 581              	.L21:
 402:Drivers/STM32F4xx_HAL_Driver/Src/stm32f4xx_hal_tim.c ****   }
 403:Drivers/STM32F4xx_HAL_Driver/Src/stm32f4xx_hal_tim.c ****   else if((htim->State == HAL_TIM_STATE_READY))
 582              		.loc 1 403 0
 583 001e FB68     		ldr	r3, [r7, #12]
ARM GAS  /tmp/ccvK2xU6.s 			page 18


 584 0020 93F83930 		ldrb	r3, [r3, #57]
 585 0024 DBB2     		uxtb	r3, r3
 586 0026 012B     		cmp	r3, #1
 587 0028 0BD1     		bne	.L23
 404:Drivers/STM32F4xx_HAL_Driver/Src/stm32f4xx_hal_tim.c ****   {
 405:Drivers/STM32F4xx_HAL_Driver/Src/stm32f4xx_hal_tim.c ****     if((pData == 0U) && (Length > 0)) 
 588              		.loc 1 405 0
 589 002a BB68     		ldr	r3, [r7, #8]
 590 002c 002B     		cmp	r3, #0
 591 002e 04D1     		bne	.L24
 592              		.loc 1 405 0 is_stmt 0 discriminator 1
 593 0030 FB88     		ldrh	r3, [r7, #6]
 594 0032 002B     		cmp	r3, #0
 595 0034 01D0     		beq	.L24
 406:Drivers/STM32F4xx_HAL_Driver/Src/stm32f4xx_hal_tim.c ****     {
 407:Drivers/STM32F4xx_HAL_Driver/Src/stm32f4xx_hal_tim.c ****       return HAL_ERROR;                                    
 596              		.loc 1 407 0 is_stmt 1
 597 0036 0123     		movs	r3, #1
 598 0038 26E0     		b	.L22
 599              	.L24:
 408:Drivers/STM32F4xx_HAL_Driver/Src/stm32f4xx_hal_tim.c ****     }
 409:Drivers/STM32F4xx_HAL_Driver/Src/stm32f4xx_hal_tim.c ****     else
 410:Drivers/STM32F4xx_HAL_Driver/Src/stm32f4xx_hal_tim.c ****     {
 411:Drivers/STM32F4xx_HAL_Driver/Src/stm32f4xx_hal_tim.c ****       htim->State = HAL_TIM_STATE_BUSY;
 600              		.loc 1 411 0
 601 003a FB68     		ldr	r3, [r7, #12]
 602 003c 0222     		movs	r2, #2
 603 003e 83F83920 		strb	r2, [r3, #57]
 604              	.L23:
 412:Drivers/STM32F4xx_HAL_Driver/Src/stm32f4xx_hal_tim.c ****     }
 413:Drivers/STM32F4xx_HAL_Driver/Src/stm32f4xx_hal_tim.c ****   }  
 414:Drivers/STM32F4xx_HAL_Driver/Src/stm32f4xx_hal_tim.c ****   /* Set the DMA Period elapsed callback */
 415:Drivers/STM32F4xx_HAL_Driver/Src/stm32f4xx_hal_tim.c ****   htim->hdma[TIM_DMA_ID_UPDATE]->XferCpltCallback = TIM_DMAPeriodElapsedCplt;
 605              		.loc 1 415 0
 606 0042 FB68     		ldr	r3, [r7, #12]
 607 0044 DB69     		ldr	r3, [r3, #28]
 608 0046 124A     		ldr	r2, .L25
 609 0048 DA63     		str	r2, [r3, #60]
 416:Drivers/STM32F4xx_HAL_Driver/Src/stm32f4xx_hal_tim.c ****      
 417:Drivers/STM32F4xx_HAL_Driver/Src/stm32f4xx_hal_tim.c ****   /* Set the DMA error callback */
 418:Drivers/STM32F4xx_HAL_Driver/Src/stm32f4xx_hal_tim.c ****   htim->hdma[TIM_DMA_ID_UPDATE]->XferErrorCallback = TIM_DMAError ;
 610              		.loc 1 418 0
 611 004a FB68     		ldr	r3, [r7, #12]
 612 004c DB69     		ldr	r3, [r3, #28]
 613 004e 114A     		ldr	r2, .L25+4
 614 0050 DA64     		str	r2, [r3, #76]
 419:Drivers/STM32F4xx_HAL_Driver/Src/stm32f4xx_hal_tim.c ****   
 420:Drivers/STM32F4xx_HAL_Driver/Src/stm32f4xx_hal_tim.c ****   /* Enable the DMA Stream */
 421:Drivers/STM32F4xx_HAL_Driver/Src/stm32f4xx_hal_tim.c ****   HAL_DMA_Start_IT(htim->hdma[TIM_DMA_ID_UPDATE], (uint32_t)pData, (uint32_t)&htim->Instance->ARR, 
 615              		.loc 1 421 0
 616 0052 FB68     		ldr	r3, [r7, #12]
 617 0054 D869     		ldr	r0, [r3, #28]
 618 0056 B968     		ldr	r1, [r7, #8]
 619 0058 FB68     		ldr	r3, [r7, #12]
 620 005a 1B68     		ldr	r3, [r3]
 621 005c 2C33     		adds	r3, r3, #44
 622 005e 1A46     		mov	r2, r3
ARM GAS  /tmp/ccvK2xU6.s 			page 19


 623 0060 FB88     		ldrh	r3, [r7, #6]
 624 0062 FFF7FEFF 		bl	HAL_DMA_Start_IT
 422:Drivers/STM32F4xx_HAL_Driver/Src/stm32f4xx_hal_tim.c ****   
 423:Drivers/STM32F4xx_HAL_Driver/Src/stm32f4xx_hal_tim.c ****   /* Enable the TIM Update DMA request */
 424:Drivers/STM32F4xx_HAL_Driver/Src/stm32f4xx_hal_tim.c ****   __HAL_TIM_ENABLE_DMA(htim, TIM_DMA_UPDATE);
 625              		.loc 1 424 0
 626 0066 FB68     		ldr	r3, [r7, #12]
 627 0068 1B68     		ldr	r3, [r3]
 628 006a FA68     		ldr	r2, [r7, #12]
 629 006c 1268     		ldr	r2, [r2]
 630 006e D268     		ldr	r2, [r2, #12]
 631 0070 42F48072 		orr	r2, r2, #256
 632 0074 DA60     		str	r2, [r3, #12]
 425:Drivers/STM32F4xx_HAL_Driver/Src/stm32f4xx_hal_tim.c **** 
 426:Drivers/STM32F4xx_HAL_Driver/Src/stm32f4xx_hal_tim.c ****   /* Enable the Peripheral */
 427:Drivers/STM32F4xx_HAL_Driver/Src/stm32f4xx_hal_tim.c ****   __HAL_TIM_ENABLE(htim);  
 633              		.loc 1 427 0
 634 0076 FB68     		ldr	r3, [r7, #12]
 635 0078 1B68     		ldr	r3, [r3]
 636 007a FA68     		ldr	r2, [r7, #12]
 637 007c 1268     		ldr	r2, [r2]
 638 007e 1268     		ldr	r2, [r2]
 639 0080 42F00102 		orr	r2, r2, #1
 640 0084 1A60     		str	r2, [r3]
 428:Drivers/STM32F4xx_HAL_Driver/Src/stm32f4xx_hal_tim.c ****   
 429:Drivers/STM32F4xx_HAL_Driver/Src/stm32f4xx_hal_tim.c ****   /* Return function status */
 430:Drivers/STM32F4xx_HAL_Driver/Src/stm32f4xx_hal_tim.c ****   return HAL_OK;
 641              		.loc 1 430 0
 642 0086 0023     		movs	r3, #0
 643              	.L22:
 431:Drivers/STM32F4xx_HAL_Driver/Src/stm32f4xx_hal_tim.c **** }
 644              		.loc 1 431 0
 645 0088 1846     		mov	r0, r3
 646 008a 1037     		adds	r7, r7, #16
 647              	.LCFI49:
 648              		.cfi_def_cfa_offset 8
 649 008c BD46     		mov	sp, r7
 650              	.LCFI50:
 651              		.cfi_def_cfa_register 13
 652              		@ sp needed
 653 008e 80BD     		pop	{r7, pc}
 654              	.L26:
 655              		.align	2
 656              	.L25:
 657 0090 00000000 		.word	TIM_DMAPeriodElapsedCplt
 658 0094 00000000 		.word	TIM_DMAError
 659              		.cfi_endproc
 660              	.LFE132:
 662              		.section	.text.HAL_TIM_Base_Stop_DMA,"ax",%progbits
 663              		.align	1
 664              		.global	HAL_TIM_Base_Stop_DMA
 665              		.syntax unified
 666              		.thumb
 667              		.thumb_func
 668              		.fpu fpv4-sp-d16
 670              	HAL_TIM_Base_Stop_DMA:
 671              	.LFB133:
ARM GAS  /tmp/ccvK2xU6.s 			page 20


 432:Drivers/STM32F4xx_HAL_Driver/Src/stm32f4xx_hal_tim.c **** 
 433:Drivers/STM32F4xx_HAL_Driver/Src/stm32f4xx_hal_tim.c **** /**
 434:Drivers/STM32F4xx_HAL_Driver/Src/stm32f4xx_hal_tim.c ****   * @brief  Stops the TIM Base generation in DMA mode.
 435:Drivers/STM32F4xx_HAL_Driver/Src/stm32f4xx_hal_tim.c ****   * @param  htim pointer to a TIM_HandleTypeDef structure that contains
 436:Drivers/STM32F4xx_HAL_Driver/Src/stm32f4xx_hal_tim.c ****   *                the configuration information for TIM module.
 437:Drivers/STM32F4xx_HAL_Driver/Src/stm32f4xx_hal_tim.c ****   * @retval HAL status
 438:Drivers/STM32F4xx_HAL_Driver/Src/stm32f4xx_hal_tim.c ****   */
 439:Drivers/STM32F4xx_HAL_Driver/Src/stm32f4xx_hal_tim.c **** HAL_StatusTypeDef HAL_TIM_Base_Stop_DMA(TIM_HandleTypeDef *htim)
 440:Drivers/STM32F4xx_HAL_Driver/Src/stm32f4xx_hal_tim.c **** {
 672              		.loc 1 440 0
 673              		.cfi_startproc
 674              		@ args = 0, pretend = 0, frame = 8
 675              		@ frame_needed = 1, uses_anonymous_args = 0
 676              		@ link register save eliminated.
 677 0000 80B4     		push	{r7}
 678              	.LCFI51:
 679              		.cfi_def_cfa_offset 4
 680              		.cfi_offset 7, -4
 681 0002 83B0     		sub	sp, sp, #12
 682              	.LCFI52:
 683              		.cfi_def_cfa_offset 16
 684 0004 00AF     		add	r7, sp, #0
 685              	.LCFI53:
 686              		.cfi_def_cfa_register 7
 687 0006 7860     		str	r0, [r7, #4]
 441:Drivers/STM32F4xx_HAL_Driver/Src/stm32f4xx_hal_tim.c ****   /* Check the parameters */
 442:Drivers/STM32F4xx_HAL_Driver/Src/stm32f4xx_hal_tim.c ****   assert_param(IS_TIM_DMA_INSTANCE(htim->Instance));
 443:Drivers/STM32F4xx_HAL_Driver/Src/stm32f4xx_hal_tim.c ****   
 444:Drivers/STM32F4xx_HAL_Driver/Src/stm32f4xx_hal_tim.c ****   /* Disable the TIM Update DMA request */
 445:Drivers/STM32F4xx_HAL_Driver/Src/stm32f4xx_hal_tim.c ****   __HAL_TIM_DISABLE_DMA(htim, TIM_DMA_UPDATE);
 688              		.loc 1 445 0
 689 0008 7B68     		ldr	r3, [r7, #4]
 690 000a 1B68     		ldr	r3, [r3]
 691 000c 7A68     		ldr	r2, [r7, #4]
 692 000e 1268     		ldr	r2, [r2]
 693 0010 D268     		ldr	r2, [r2, #12]
 694 0012 22F48072 		bic	r2, r2, #256
 695 0016 DA60     		str	r2, [r3, #12]
 446:Drivers/STM32F4xx_HAL_Driver/Src/stm32f4xx_hal_tim.c ****       
 447:Drivers/STM32F4xx_HAL_Driver/Src/stm32f4xx_hal_tim.c ****   /* Disable the Peripheral */
 448:Drivers/STM32F4xx_HAL_Driver/Src/stm32f4xx_hal_tim.c ****   __HAL_TIM_DISABLE(htim);
 696              		.loc 1 448 0
 697 0018 7B68     		ldr	r3, [r7, #4]
 698 001a 1B68     		ldr	r3, [r3]
 699 001c 1A6A     		ldr	r2, [r3, #32]
 700 001e 41F21113 		movw	r3, #4369
 701 0022 1340     		ands	r3, r3, r2
 702 0024 002B     		cmp	r3, #0
 703 0026 0FD1     		bne	.L28
 704              		.loc 1 448 0 is_stmt 0 discriminator 1
 705 0028 7B68     		ldr	r3, [r7, #4]
 706 002a 1B68     		ldr	r3, [r3]
 707 002c 1A6A     		ldr	r2, [r3, #32]
 708 002e 40F24443 		movw	r3, #1092
 709 0032 1340     		ands	r3, r3, r2
 710 0034 002B     		cmp	r3, #0
 711 0036 07D1     		bne	.L28
ARM GAS  /tmp/ccvK2xU6.s 			page 21


 712              		.loc 1 448 0 discriminator 2
 713 0038 7B68     		ldr	r3, [r7, #4]
 714 003a 1B68     		ldr	r3, [r3]
 715 003c 7A68     		ldr	r2, [r7, #4]
 716 003e 1268     		ldr	r2, [r2]
 717 0040 1268     		ldr	r2, [r2]
 718 0042 22F00102 		bic	r2, r2, #1
 719 0046 1A60     		str	r2, [r3]
 720              	.L28:
 449:Drivers/STM32F4xx_HAL_Driver/Src/stm32f4xx_hal_tim.c ****     
 450:Drivers/STM32F4xx_HAL_Driver/Src/stm32f4xx_hal_tim.c ****   /* Change the htim state */
 451:Drivers/STM32F4xx_HAL_Driver/Src/stm32f4xx_hal_tim.c ****   htim->State = HAL_TIM_STATE_READY;
 721              		.loc 1 451 0 is_stmt 1
 722 0048 7B68     		ldr	r3, [r7, #4]
 723 004a 0122     		movs	r2, #1
 724 004c 83F83920 		strb	r2, [r3, #57]
 452:Drivers/STM32F4xx_HAL_Driver/Src/stm32f4xx_hal_tim.c ****       
 453:Drivers/STM32F4xx_HAL_Driver/Src/stm32f4xx_hal_tim.c ****   /* Return function status */
 454:Drivers/STM32F4xx_HAL_Driver/Src/stm32f4xx_hal_tim.c ****   return HAL_OK;
 725              		.loc 1 454 0
 726 0050 0023     		movs	r3, #0
 455:Drivers/STM32F4xx_HAL_Driver/Src/stm32f4xx_hal_tim.c **** }
 727              		.loc 1 455 0
 728 0052 1846     		mov	r0, r3
 729 0054 0C37     		adds	r7, r7, #12
 730              	.LCFI54:
 731              		.cfi_def_cfa_offset 4
 732 0056 BD46     		mov	sp, r7
 733              	.LCFI55:
 734              		.cfi_def_cfa_register 13
 735              		@ sp needed
 736 0058 5DF8047B 		ldr	r7, [sp], #4
 737              	.LCFI56:
 738              		.cfi_restore 7
 739              		.cfi_def_cfa_offset 0
 740 005c 7047     		bx	lr
 741              		.cfi_endproc
 742              	.LFE133:
 744              		.section	.text.HAL_TIM_OC_Init,"ax",%progbits
 745              		.align	1
 746              		.global	HAL_TIM_OC_Init
 747              		.syntax unified
 748              		.thumb
 749              		.thumb_func
 750              		.fpu fpv4-sp-d16
 752              	HAL_TIM_OC_Init:
 753              	.LFB134:
 456:Drivers/STM32F4xx_HAL_Driver/Src/stm32f4xx_hal_tim.c **** /**
 457:Drivers/STM32F4xx_HAL_Driver/Src/stm32f4xx_hal_tim.c ****   * @}
 458:Drivers/STM32F4xx_HAL_Driver/Src/stm32f4xx_hal_tim.c ****   */
 459:Drivers/STM32F4xx_HAL_Driver/Src/stm32f4xx_hal_tim.c ****   
 460:Drivers/STM32F4xx_HAL_Driver/Src/stm32f4xx_hal_tim.c **** /** @defgroup TIM_Exported_Functions_Group2 Time Output Compare functions 
 461:Drivers/STM32F4xx_HAL_Driver/Src/stm32f4xx_hal_tim.c ****  *  @brief    Time Output Compare functions 
 462:Drivers/STM32F4xx_HAL_Driver/Src/stm32f4xx_hal_tim.c ****  *
 463:Drivers/STM32F4xx_HAL_Driver/Src/stm32f4xx_hal_tim.c **** @verbatim    
 464:Drivers/STM32F4xx_HAL_Driver/Src/stm32f4xx_hal_tim.c ****   ==============================================================================
 465:Drivers/STM32F4xx_HAL_Driver/Src/stm32f4xx_hal_tim.c ****                   ##### Time Output Compare functions #####
ARM GAS  /tmp/ccvK2xU6.s 			page 22


 466:Drivers/STM32F4xx_HAL_Driver/Src/stm32f4xx_hal_tim.c ****   ==============================================================================
 467:Drivers/STM32F4xx_HAL_Driver/Src/stm32f4xx_hal_tim.c ****   [..]
 468:Drivers/STM32F4xx_HAL_Driver/Src/stm32f4xx_hal_tim.c ****     This section provides functions allowing to:
 469:Drivers/STM32F4xx_HAL_Driver/Src/stm32f4xx_hal_tim.c ****     (+) Initialize and configure the TIM Output Compare. 
 470:Drivers/STM32F4xx_HAL_Driver/Src/stm32f4xx_hal_tim.c ****     (+) De-initialize the TIM Output Compare.
 471:Drivers/STM32F4xx_HAL_Driver/Src/stm32f4xx_hal_tim.c ****     (+) Start the Time Output Compare.
 472:Drivers/STM32F4xx_HAL_Driver/Src/stm32f4xx_hal_tim.c ****     (+) Stop the Time Output Compare.
 473:Drivers/STM32F4xx_HAL_Driver/Src/stm32f4xx_hal_tim.c ****     (+) Start the Time Output Compare and enable interrupt.
 474:Drivers/STM32F4xx_HAL_Driver/Src/stm32f4xx_hal_tim.c ****     (+) Stop the Time Output Compare and disable interrupt.
 475:Drivers/STM32F4xx_HAL_Driver/Src/stm32f4xx_hal_tim.c ****     (+) Start the Time Output Compare and enable DMA transfer.
 476:Drivers/STM32F4xx_HAL_Driver/Src/stm32f4xx_hal_tim.c ****     (+) Stop the Time Output Compare and disable DMA transfer.
 477:Drivers/STM32F4xx_HAL_Driver/Src/stm32f4xx_hal_tim.c ****  
 478:Drivers/STM32F4xx_HAL_Driver/Src/stm32f4xx_hal_tim.c **** @endverbatim
 479:Drivers/STM32F4xx_HAL_Driver/Src/stm32f4xx_hal_tim.c ****   * @{
 480:Drivers/STM32F4xx_HAL_Driver/Src/stm32f4xx_hal_tim.c ****   */
 481:Drivers/STM32F4xx_HAL_Driver/Src/stm32f4xx_hal_tim.c **** /**
 482:Drivers/STM32F4xx_HAL_Driver/Src/stm32f4xx_hal_tim.c ****   * @brief  Initializes the TIM Output Compare according to the specified
 483:Drivers/STM32F4xx_HAL_Driver/Src/stm32f4xx_hal_tim.c ****   *         parameters in the TIM_HandleTypeDef and create the associated handle.
 484:Drivers/STM32F4xx_HAL_Driver/Src/stm32f4xx_hal_tim.c ****   * @param  htim pointer to a TIM_HandleTypeDef structure that contains
 485:Drivers/STM32F4xx_HAL_Driver/Src/stm32f4xx_hal_tim.c ****   *                the configuration information for TIM module.
 486:Drivers/STM32F4xx_HAL_Driver/Src/stm32f4xx_hal_tim.c ****   * @retval HAL status
 487:Drivers/STM32F4xx_HAL_Driver/Src/stm32f4xx_hal_tim.c ****   */
 488:Drivers/STM32F4xx_HAL_Driver/Src/stm32f4xx_hal_tim.c **** HAL_StatusTypeDef HAL_TIM_OC_Init(TIM_HandleTypeDef* htim)
 489:Drivers/STM32F4xx_HAL_Driver/Src/stm32f4xx_hal_tim.c **** {
 754              		.loc 1 489 0
 755              		.cfi_startproc
 756              		@ args = 0, pretend = 0, frame = 8
 757              		@ frame_needed = 1, uses_anonymous_args = 0
 758 0000 80B5     		push	{r7, lr}
 759              	.LCFI57:
 760              		.cfi_def_cfa_offset 8
 761              		.cfi_offset 7, -8
 762              		.cfi_offset 14, -4
 763 0002 82B0     		sub	sp, sp, #8
 764              	.LCFI58:
 765              		.cfi_def_cfa_offset 16
 766 0004 00AF     		add	r7, sp, #0
 767              	.LCFI59:
 768              		.cfi_def_cfa_register 7
 769 0006 7860     		str	r0, [r7, #4]
 490:Drivers/STM32F4xx_HAL_Driver/Src/stm32f4xx_hal_tim.c ****   /* Check the TIM handle allocation */
 491:Drivers/STM32F4xx_HAL_Driver/Src/stm32f4xx_hal_tim.c ****   if(htim == NULL)
 770              		.loc 1 491 0
 771 0008 7B68     		ldr	r3, [r7, #4]
 772 000a 002B     		cmp	r3, #0
 773 000c 01D1     		bne	.L31
 492:Drivers/STM32F4xx_HAL_Driver/Src/stm32f4xx_hal_tim.c ****   {
 493:Drivers/STM32F4xx_HAL_Driver/Src/stm32f4xx_hal_tim.c ****     return HAL_ERROR;
 774              		.loc 1 493 0
 775 000e 0123     		movs	r3, #1
 776 0010 1DE0     		b	.L32
 777              	.L31:
 494:Drivers/STM32F4xx_HAL_Driver/Src/stm32f4xx_hal_tim.c ****   }
 495:Drivers/STM32F4xx_HAL_Driver/Src/stm32f4xx_hal_tim.c **** 
 496:Drivers/STM32F4xx_HAL_Driver/Src/stm32f4xx_hal_tim.c ****   /* Check the parameters */
 497:Drivers/STM32F4xx_HAL_Driver/Src/stm32f4xx_hal_tim.c ****   assert_param(IS_TIM_INSTANCE(htim->Instance));
 498:Drivers/STM32F4xx_HAL_Driver/Src/stm32f4xx_hal_tim.c ****   assert_param(IS_TIM_COUNTER_MODE(htim->Init.CounterMode));
ARM GAS  /tmp/ccvK2xU6.s 			page 23


 499:Drivers/STM32F4xx_HAL_Driver/Src/stm32f4xx_hal_tim.c ****   assert_param(IS_TIM_CLOCKDIVISION_DIV(htim->Init.ClockDivision));
 500:Drivers/STM32F4xx_HAL_Driver/Src/stm32f4xx_hal_tim.c ****  
 501:Drivers/STM32F4xx_HAL_Driver/Src/stm32f4xx_hal_tim.c ****   if(htim->State == HAL_TIM_STATE_RESET)
 778              		.loc 1 501 0
 779 0012 7B68     		ldr	r3, [r7, #4]
 780 0014 93F83930 		ldrb	r3, [r3, #57]
 781 0018 DBB2     		uxtb	r3, r3
 782 001a 002B     		cmp	r3, #0
 783 001c 06D1     		bne	.L33
 502:Drivers/STM32F4xx_HAL_Driver/Src/stm32f4xx_hal_tim.c ****   { 
 503:Drivers/STM32F4xx_HAL_Driver/Src/stm32f4xx_hal_tim.c ****     /* Allocate lock resource and initialize it */
 504:Drivers/STM32F4xx_HAL_Driver/Src/stm32f4xx_hal_tim.c ****     htim->Lock = HAL_UNLOCKED;
 784              		.loc 1 504 0
 785 001e 7B68     		ldr	r3, [r7, #4]
 786 0020 0022     		movs	r2, #0
 787 0022 83F83820 		strb	r2, [r3, #56]
 505:Drivers/STM32F4xx_HAL_Driver/Src/stm32f4xx_hal_tim.c ****     /* Init the low level hardware : GPIO, CLOCK, NVIC and DMA */
 506:Drivers/STM32F4xx_HAL_Driver/Src/stm32f4xx_hal_tim.c ****     HAL_TIM_OC_MspInit(htim);
 788              		.loc 1 506 0
 789 0026 7868     		ldr	r0, [r7, #4]
 790 0028 FFF7FEFF 		bl	HAL_TIM_OC_MspInit
 791              	.L33:
 507:Drivers/STM32F4xx_HAL_Driver/Src/stm32f4xx_hal_tim.c ****   }
 508:Drivers/STM32F4xx_HAL_Driver/Src/stm32f4xx_hal_tim.c ****   
 509:Drivers/STM32F4xx_HAL_Driver/Src/stm32f4xx_hal_tim.c ****   /* Set the TIM state */
 510:Drivers/STM32F4xx_HAL_Driver/Src/stm32f4xx_hal_tim.c ****   htim->State= HAL_TIM_STATE_BUSY;
 792              		.loc 1 510 0
 793 002c 7B68     		ldr	r3, [r7, #4]
 794 002e 0222     		movs	r2, #2
 795 0030 83F83920 		strb	r2, [r3, #57]
 511:Drivers/STM32F4xx_HAL_Driver/Src/stm32f4xx_hal_tim.c ****   
 512:Drivers/STM32F4xx_HAL_Driver/Src/stm32f4xx_hal_tim.c ****   /* Init the base time for the Output Compare */  
 513:Drivers/STM32F4xx_HAL_Driver/Src/stm32f4xx_hal_tim.c ****   TIM_Base_SetConfig(htim->Instance,  &htim->Init); 
 796              		.loc 1 513 0
 797 0034 7B68     		ldr	r3, [r7, #4]
 798 0036 1A68     		ldr	r2, [r3]
 799 0038 7B68     		ldr	r3, [r7, #4]
 800 003a 0433     		adds	r3, r3, #4
 801 003c 1946     		mov	r1, r3
 802 003e 1046     		mov	r0, r2
 803 0040 FFF7FEFF 		bl	TIM_Base_SetConfig
 514:Drivers/STM32F4xx_HAL_Driver/Src/stm32f4xx_hal_tim.c ****   
 515:Drivers/STM32F4xx_HAL_Driver/Src/stm32f4xx_hal_tim.c ****   /* Initialize the TIM state*/
 516:Drivers/STM32F4xx_HAL_Driver/Src/stm32f4xx_hal_tim.c ****   htim->State= HAL_TIM_STATE_READY;
 804              		.loc 1 516 0
 805 0044 7B68     		ldr	r3, [r7, #4]
 806 0046 0122     		movs	r2, #1
 807 0048 83F83920 		strb	r2, [r3, #57]
 517:Drivers/STM32F4xx_HAL_Driver/Src/stm32f4xx_hal_tim.c ****   
 518:Drivers/STM32F4xx_HAL_Driver/Src/stm32f4xx_hal_tim.c ****   return HAL_OK;
 808              		.loc 1 518 0
 809 004c 0023     		movs	r3, #0
 810              	.L32:
 519:Drivers/STM32F4xx_HAL_Driver/Src/stm32f4xx_hal_tim.c **** }
 811              		.loc 1 519 0
 812 004e 1846     		mov	r0, r3
 813 0050 0837     		adds	r7, r7, #8
ARM GAS  /tmp/ccvK2xU6.s 			page 24


 814              	.LCFI60:
 815              		.cfi_def_cfa_offset 8
 816 0052 BD46     		mov	sp, r7
 817              	.LCFI61:
 818              		.cfi_def_cfa_register 13
 819              		@ sp needed
 820 0054 80BD     		pop	{r7, pc}
 821              		.cfi_endproc
 822              	.LFE134:
 824              		.section	.text.HAL_TIM_OC_DeInit,"ax",%progbits
 825              		.align	1
 826              		.global	HAL_TIM_OC_DeInit
 827              		.syntax unified
 828              		.thumb
 829              		.thumb_func
 830              		.fpu fpv4-sp-d16
 832              	HAL_TIM_OC_DeInit:
 833              	.LFB135:
 520:Drivers/STM32F4xx_HAL_Driver/Src/stm32f4xx_hal_tim.c **** 
 521:Drivers/STM32F4xx_HAL_Driver/Src/stm32f4xx_hal_tim.c **** /**
 522:Drivers/STM32F4xx_HAL_Driver/Src/stm32f4xx_hal_tim.c ****   * @brief  DeInitializes the TIM peripheral 
 523:Drivers/STM32F4xx_HAL_Driver/Src/stm32f4xx_hal_tim.c ****   * @param  htim pointer to a TIM_HandleTypeDef structure that contains
 524:Drivers/STM32F4xx_HAL_Driver/Src/stm32f4xx_hal_tim.c ****   *                the configuration information for TIM module.
 525:Drivers/STM32F4xx_HAL_Driver/Src/stm32f4xx_hal_tim.c ****   * @retval HAL status
 526:Drivers/STM32F4xx_HAL_Driver/Src/stm32f4xx_hal_tim.c ****   */
 527:Drivers/STM32F4xx_HAL_Driver/Src/stm32f4xx_hal_tim.c **** HAL_StatusTypeDef HAL_TIM_OC_DeInit(TIM_HandleTypeDef *htim)
 528:Drivers/STM32F4xx_HAL_Driver/Src/stm32f4xx_hal_tim.c **** {
 834              		.loc 1 528 0
 835              		.cfi_startproc
 836              		@ args = 0, pretend = 0, frame = 8
 837              		@ frame_needed = 1, uses_anonymous_args = 0
 838 0000 80B5     		push	{r7, lr}
 839              	.LCFI62:
 840              		.cfi_def_cfa_offset 8
 841              		.cfi_offset 7, -8
 842              		.cfi_offset 14, -4
 843 0002 82B0     		sub	sp, sp, #8
 844              	.LCFI63:
 845              		.cfi_def_cfa_offset 16
 846 0004 00AF     		add	r7, sp, #0
 847              	.LCFI64:
 848              		.cfi_def_cfa_register 7
 849 0006 7860     		str	r0, [r7, #4]
 529:Drivers/STM32F4xx_HAL_Driver/Src/stm32f4xx_hal_tim.c ****   /* Check the parameters */
 530:Drivers/STM32F4xx_HAL_Driver/Src/stm32f4xx_hal_tim.c ****   assert_param(IS_TIM_INSTANCE(htim->Instance));
 531:Drivers/STM32F4xx_HAL_Driver/Src/stm32f4xx_hal_tim.c ****   
 532:Drivers/STM32F4xx_HAL_Driver/Src/stm32f4xx_hal_tim.c ****    htim->State = HAL_TIM_STATE_BUSY;
 850              		.loc 1 532 0
 851 0008 7B68     		ldr	r3, [r7, #4]
 852 000a 0222     		movs	r2, #2
 853 000c 83F83920 		strb	r2, [r3, #57]
 533:Drivers/STM32F4xx_HAL_Driver/Src/stm32f4xx_hal_tim.c ****    
 534:Drivers/STM32F4xx_HAL_Driver/Src/stm32f4xx_hal_tim.c ****   /* Disable the TIM Peripheral Clock */
 535:Drivers/STM32F4xx_HAL_Driver/Src/stm32f4xx_hal_tim.c ****   __HAL_TIM_DISABLE(htim);
 854              		.loc 1 535 0
 855 0010 7B68     		ldr	r3, [r7, #4]
 856 0012 1B68     		ldr	r3, [r3]
ARM GAS  /tmp/ccvK2xU6.s 			page 25


 857 0014 1A6A     		ldr	r2, [r3, #32]
 858 0016 41F21113 		movw	r3, #4369
 859 001a 1340     		ands	r3, r3, r2
 860 001c 002B     		cmp	r3, #0
 861 001e 0FD1     		bne	.L35
 862              		.loc 1 535 0 is_stmt 0 discriminator 1
 863 0020 7B68     		ldr	r3, [r7, #4]
 864 0022 1B68     		ldr	r3, [r3]
 865 0024 1A6A     		ldr	r2, [r3, #32]
 866 0026 40F24443 		movw	r3, #1092
 867 002a 1340     		ands	r3, r3, r2
 868 002c 002B     		cmp	r3, #0
 869 002e 07D1     		bne	.L35
 870              		.loc 1 535 0 discriminator 2
 871 0030 7B68     		ldr	r3, [r7, #4]
 872 0032 1B68     		ldr	r3, [r3]
 873 0034 7A68     		ldr	r2, [r7, #4]
 874 0036 1268     		ldr	r2, [r2]
 875 0038 1268     		ldr	r2, [r2]
 876 003a 22F00102 		bic	r2, r2, #1
 877 003e 1A60     		str	r2, [r3]
 878              	.L35:
 536:Drivers/STM32F4xx_HAL_Driver/Src/stm32f4xx_hal_tim.c ****   
 537:Drivers/STM32F4xx_HAL_Driver/Src/stm32f4xx_hal_tim.c ****   /* DeInit the low level hardware: GPIO, CLOCK, NVIC and DMA */
 538:Drivers/STM32F4xx_HAL_Driver/Src/stm32f4xx_hal_tim.c ****   HAL_TIM_OC_MspDeInit(htim);
 879              		.loc 1 538 0 is_stmt 1
 880 0040 7868     		ldr	r0, [r7, #4]
 881 0042 FFF7FEFF 		bl	HAL_TIM_OC_MspDeInit
 539:Drivers/STM32F4xx_HAL_Driver/Src/stm32f4xx_hal_tim.c ****     
 540:Drivers/STM32F4xx_HAL_Driver/Src/stm32f4xx_hal_tim.c ****   /* Change TIM state */  
 541:Drivers/STM32F4xx_HAL_Driver/Src/stm32f4xx_hal_tim.c ****   htim->State = HAL_TIM_STATE_RESET; 
 882              		.loc 1 541 0
 883 0046 7B68     		ldr	r3, [r7, #4]
 884 0048 0022     		movs	r2, #0
 885 004a 83F83920 		strb	r2, [r3, #57]
 542:Drivers/STM32F4xx_HAL_Driver/Src/stm32f4xx_hal_tim.c **** 
 543:Drivers/STM32F4xx_HAL_Driver/Src/stm32f4xx_hal_tim.c ****   /* Release Lock */
 544:Drivers/STM32F4xx_HAL_Driver/Src/stm32f4xx_hal_tim.c ****   __HAL_UNLOCK(htim);
 886              		.loc 1 544 0
 887 004e 7B68     		ldr	r3, [r7, #4]
 888 0050 0022     		movs	r2, #0
 889 0052 83F83820 		strb	r2, [r3, #56]
 545:Drivers/STM32F4xx_HAL_Driver/Src/stm32f4xx_hal_tim.c **** 
 546:Drivers/STM32F4xx_HAL_Driver/Src/stm32f4xx_hal_tim.c ****   return HAL_OK;
 890              		.loc 1 546 0
 891 0056 0023     		movs	r3, #0
 547:Drivers/STM32F4xx_HAL_Driver/Src/stm32f4xx_hal_tim.c **** }
 892              		.loc 1 547 0
 893 0058 1846     		mov	r0, r3
 894 005a 0837     		adds	r7, r7, #8
 895              	.LCFI65:
 896              		.cfi_def_cfa_offset 8
 897 005c BD46     		mov	sp, r7
 898              	.LCFI66:
 899              		.cfi_def_cfa_register 13
 900              		@ sp needed
 901 005e 80BD     		pop	{r7, pc}
ARM GAS  /tmp/ccvK2xU6.s 			page 26


 902              		.cfi_endproc
 903              	.LFE135:
 905              		.section	.text.HAL_TIM_OC_MspInit,"ax",%progbits
 906              		.align	1
 907              		.weak	HAL_TIM_OC_MspInit
 908              		.syntax unified
 909              		.thumb
 910              		.thumb_func
 911              		.fpu fpv4-sp-d16
 913              	HAL_TIM_OC_MspInit:
 914              	.LFB136:
 548:Drivers/STM32F4xx_HAL_Driver/Src/stm32f4xx_hal_tim.c **** 
 549:Drivers/STM32F4xx_HAL_Driver/Src/stm32f4xx_hal_tim.c **** /**
 550:Drivers/STM32F4xx_HAL_Driver/Src/stm32f4xx_hal_tim.c ****   * @brief  Initializes the TIM Output Compare MSP.
 551:Drivers/STM32F4xx_HAL_Driver/Src/stm32f4xx_hal_tim.c ****   * @param  htim pointer to a TIM_HandleTypeDef structure that contains
 552:Drivers/STM32F4xx_HAL_Driver/Src/stm32f4xx_hal_tim.c ****   *                the configuration information for TIM module.
 553:Drivers/STM32F4xx_HAL_Driver/Src/stm32f4xx_hal_tim.c ****   * @retval None
 554:Drivers/STM32F4xx_HAL_Driver/Src/stm32f4xx_hal_tim.c ****   */
 555:Drivers/STM32F4xx_HAL_Driver/Src/stm32f4xx_hal_tim.c **** __weak void HAL_TIM_OC_MspInit(TIM_HandleTypeDef *htim)
 556:Drivers/STM32F4xx_HAL_Driver/Src/stm32f4xx_hal_tim.c **** {
 915              		.loc 1 556 0
 916              		.cfi_startproc
 917              		@ args = 0, pretend = 0, frame = 8
 918              		@ frame_needed = 1, uses_anonymous_args = 0
 919              		@ link register save eliminated.
 920 0000 80B4     		push	{r7}
 921              	.LCFI67:
 922              		.cfi_def_cfa_offset 4
 923              		.cfi_offset 7, -4
 924 0002 83B0     		sub	sp, sp, #12
 925              	.LCFI68:
 926              		.cfi_def_cfa_offset 16
 927 0004 00AF     		add	r7, sp, #0
 928              	.LCFI69:
 929              		.cfi_def_cfa_register 7
 930 0006 7860     		str	r0, [r7, #4]
 557:Drivers/STM32F4xx_HAL_Driver/Src/stm32f4xx_hal_tim.c ****   /* Prevent unused argument(s) compilation warning */
 558:Drivers/STM32F4xx_HAL_Driver/Src/stm32f4xx_hal_tim.c ****   UNUSED(htim);
 559:Drivers/STM32F4xx_HAL_Driver/Src/stm32f4xx_hal_tim.c ****   /* NOTE : This function Should not be modified, when the callback is needed,
 560:Drivers/STM32F4xx_HAL_Driver/Src/stm32f4xx_hal_tim.c ****             the HAL_TIM_OC_MspInit could be implemented in the user file
 561:Drivers/STM32F4xx_HAL_Driver/Src/stm32f4xx_hal_tim.c ****    */
 562:Drivers/STM32F4xx_HAL_Driver/Src/stm32f4xx_hal_tim.c **** }
 931              		.loc 1 562 0
 932 0008 00BF     		nop
 933 000a 0C37     		adds	r7, r7, #12
 934              	.LCFI70:
 935              		.cfi_def_cfa_offset 4
 936 000c BD46     		mov	sp, r7
 937              	.LCFI71:
 938              		.cfi_def_cfa_register 13
 939              		@ sp needed
 940 000e 5DF8047B 		ldr	r7, [sp], #4
 941              	.LCFI72:
 942              		.cfi_restore 7
 943              		.cfi_def_cfa_offset 0
 944 0012 7047     		bx	lr
 945              		.cfi_endproc
ARM GAS  /tmp/ccvK2xU6.s 			page 27


 946              	.LFE136:
 948              		.section	.text.HAL_TIM_OC_MspDeInit,"ax",%progbits
 949              		.align	1
 950              		.weak	HAL_TIM_OC_MspDeInit
 951              		.syntax unified
 952              		.thumb
 953              		.thumb_func
 954              		.fpu fpv4-sp-d16
 956              	HAL_TIM_OC_MspDeInit:
 957              	.LFB137:
 563:Drivers/STM32F4xx_HAL_Driver/Src/stm32f4xx_hal_tim.c **** 
 564:Drivers/STM32F4xx_HAL_Driver/Src/stm32f4xx_hal_tim.c **** /**
 565:Drivers/STM32F4xx_HAL_Driver/Src/stm32f4xx_hal_tim.c ****   * @brief  DeInitializes TIM Output Compare MSP.
 566:Drivers/STM32F4xx_HAL_Driver/Src/stm32f4xx_hal_tim.c ****   * @param  htim pointer to a TIM_HandleTypeDef structure that contains
 567:Drivers/STM32F4xx_HAL_Driver/Src/stm32f4xx_hal_tim.c ****   *                the configuration information for TIM module.
 568:Drivers/STM32F4xx_HAL_Driver/Src/stm32f4xx_hal_tim.c ****   * @retval None
 569:Drivers/STM32F4xx_HAL_Driver/Src/stm32f4xx_hal_tim.c ****   */
 570:Drivers/STM32F4xx_HAL_Driver/Src/stm32f4xx_hal_tim.c **** __weak void HAL_TIM_OC_MspDeInit(TIM_HandleTypeDef *htim)
 571:Drivers/STM32F4xx_HAL_Driver/Src/stm32f4xx_hal_tim.c **** {
 958              		.loc 1 571 0
 959              		.cfi_startproc
 960              		@ args = 0, pretend = 0, frame = 8
 961              		@ frame_needed = 1, uses_anonymous_args = 0
 962              		@ link register save eliminated.
 963 0000 80B4     		push	{r7}
 964              	.LCFI73:
 965              		.cfi_def_cfa_offset 4
 966              		.cfi_offset 7, -4
 967 0002 83B0     		sub	sp, sp, #12
 968              	.LCFI74:
 969              		.cfi_def_cfa_offset 16
 970 0004 00AF     		add	r7, sp, #0
 971              	.LCFI75:
 972              		.cfi_def_cfa_register 7
 973 0006 7860     		str	r0, [r7, #4]
 572:Drivers/STM32F4xx_HAL_Driver/Src/stm32f4xx_hal_tim.c ****   /* Prevent unused argument(s) compilation warning */
 573:Drivers/STM32F4xx_HAL_Driver/Src/stm32f4xx_hal_tim.c ****   UNUSED(htim);
 574:Drivers/STM32F4xx_HAL_Driver/Src/stm32f4xx_hal_tim.c ****   /* NOTE : This function Should not be modified, when the callback is needed,
 575:Drivers/STM32F4xx_HAL_Driver/Src/stm32f4xx_hal_tim.c ****             the HAL_TIM_OC_MspDeInit could be implemented in the user file
 576:Drivers/STM32F4xx_HAL_Driver/Src/stm32f4xx_hal_tim.c ****    */
 577:Drivers/STM32F4xx_HAL_Driver/Src/stm32f4xx_hal_tim.c **** }
 974              		.loc 1 577 0
 975 0008 00BF     		nop
 976 000a 0C37     		adds	r7, r7, #12
 977              	.LCFI76:
 978              		.cfi_def_cfa_offset 4
 979 000c BD46     		mov	sp, r7
 980              	.LCFI77:
 981              		.cfi_def_cfa_register 13
 982              		@ sp needed
 983 000e 5DF8047B 		ldr	r7, [sp], #4
 984              	.LCFI78:
 985              		.cfi_restore 7
 986              		.cfi_def_cfa_offset 0
 987 0012 7047     		bx	lr
 988              		.cfi_endproc
 989              	.LFE137:
ARM GAS  /tmp/ccvK2xU6.s 			page 28


 991              		.section	.text.HAL_TIM_OC_Start,"ax",%progbits
 992              		.align	1
 993              		.global	HAL_TIM_OC_Start
 994              		.syntax unified
 995              		.thumb
 996              		.thumb_func
 997              		.fpu fpv4-sp-d16
 999              	HAL_TIM_OC_Start:
 1000              	.LFB138:
 578:Drivers/STM32F4xx_HAL_Driver/Src/stm32f4xx_hal_tim.c **** 
 579:Drivers/STM32F4xx_HAL_Driver/Src/stm32f4xx_hal_tim.c **** /**
 580:Drivers/STM32F4xx_HAL_Driver/Src/stm32f4xx_hal_tim.c ****   * @brief  Starts the TIM Output Compare signal generation.
 581:Drivers/STM32F4xx_HAL_Driver/Src/stm32f4xx_hal_tim.c ****   * @param  htim pointer to a TIM_HandleTypeDef structure that contains
 582:Drivers/STM32F4xx_HAL_Driver/Src/stm32f4xx_hal_tim.c ****   *                the configuration information for TIM module.  
 583:Drivers/STM32F4xx_HAL_Driver/Src/stm32f4xx_hal_tim.c ****   * @param  Channel TIM Channel to be enabled.
 584:Drivers/STM32F4xx_HAL_Driver/Src/stm32f4xx_hal_tim.c ****   *          This parameter can be one of the following values:
 585:Drivers/STM32F4xx_HAL_Driver/Src/stm32f4xx_hal_tim.c ****   *            @arg TIM_CHANNEL_1: TIM Channel 1 selected
 586:Drivers/STM32F4xx_HAL_Driver/Src/stm32f4xx_hal_tim.c ****   *            @arg TIM_CHANNEL_2: TIM Channel 2 selected
 587:Drivers/STM32F4xx_HAL_Driver/Src/stm32f4xx_hal_tim.c ****   *            @arg TIM_CHANNEL_3: TIM Channel 3 selected
 588:Drivers/STM32F4xx_HAL_Driver/Src/stm32f4xx_hal_tim.c ****   *            @arg TIM_CHANNEL_4: TIM Channel 4 selected   
 589:Drivers/STM32F4xx_HAL_Driver/Src/stm32f4xx_hal_tim.c ****   * @retval HAL status
 590:Drivers/STM32F4xx_HAL_Driver/Src/stm32f4xx_hal_tim.c ****   */
 591:Drivers/STM32F4xx_HAL_Driver/Src/stm32f4xx_hal_tim.c **** HAL_StatusTypeDef HAL_TIM_OC_Start(TIM_HandleTypeDef *htim, uint32_t Channel)
 592:Drivers/STM32F4xx_HAL_Driver/Src/stm32f4xx_hal_tim.c **** {
 1001              		.loc 1 592 0
 1002              		.cfi_startproc
 1003              		@ args = 0, pretend = 0, frame = 8
 1004              		@ frame_needed = 1, uses_anonymous_args = 0
 1005 0000 80B5     		push	{r7, lr}
 1006              	.LCFI79:
 1007              		.cfi_def_cfa_offset 8
 1008              		.cfi_offset 7, -8
 1009              		.cfi_offset 14, -4
 1010 0002 82B0     		sub	sp, sp, #8
 1011              	.LCFI80:
 1012              		.cfi_def_cfa_offset 16
 1013 0004 00AF     		add	r7, sp, #0
 1014              	.LCFI81:
 1015              		.cfi_def_cfa_register 7
 1016 0006 7860     		str	r0, [r7, #4]
 1017 0008 3960     		str	r1, [r7]
 593:Drivers/STM32F4xx_HAL_Driver/Src/stm32f4xx_hal_tim.c ****   /* Check the parameters */
 594:Drivers/STM32F4xx_HAL_Driver/Src/stm32f4xx_hal_tim.c ****   assert_param(IS_TIM_CCX_INSTANCE(htim->Instance, Channel));
 595:Drivers/STM32F4xx_HAL_Driver/Src/stm32f4xx_hal_tim.c ****   
 596:Drivers/STM32F4xx_HAL_Driver/Src/stm32f4xx_hal_tim.c ****   /* Enable the Output compare channel */
 597:Drivers/STM32F4xx_HAL_Driver/Src/stm32f4xx_hal_tim.c ****   TIM_CCxChannelCmd(htim->Instance, Channel, TIM_CCx_ENABLE);
 1018              		.loc 1 597 0
 1019 000a 7B68     		ldr	r3, [r7, #4]
 1020 000c 1B68     		ldr	r3, [r3]
 1021 000e 0122     		movs	r2, #1
 1022 0010 3968     		ldr	r1, [r7]
 1023 0012 1846     		mov	r0, r3
 1024 0014 FFF7FEFF 		bl	TIM_CCxChannelCmd
 598:Drivers/STM32F4xx_HAL_Driver/Src/stm32f4xx_hal_tim.c ****   
 599:Drivers/STM32F4xx_HAL_Driver/Src/stm32f4xx_hal_tim.c ****   if(IS_TIM_ADVANCED_INSTANCE(htim->Instance) != RESET)  
 1025              		.loc 1 599 0
 1026 0018 7B68     		ldr	r3, [r7, #4]
ARM GAS  /tmp/ccvK2xU6.s 			page 29


 1027 001a 1B68     		ldr	r3, [r3]
 1028 001c 104A     		ldr	r2, .L45
 1029 001e 9342     		cmp	r3, r2
 1030 0020 04D0     		beq	.L40
 1031              		.loc 1 599 0 is_stmt 0 discriminator 2
 1032 0022 7B68     		ldr	r3, [r7, #4]
 1033 0024 1B68     		ldr	r3, [r3]
 1034 0026 0F4A     		ldr	r2, .L45+4
 1035 0028 9342     		cmp	r3, r2
 1036 002a 01D1     		bne	.L41
 1037              	.L40:
 1038              		.loc 1 599 0 discriminator 3
 1039 002c 0123     		movs	r3, #1
 1040 002e 00E0     		b	.L42
 1041              	.L41:
 1042              		.loc 1 599 0 discriminator 4
 1043 0030 0023     		movs	r3, #0
 1044              	.L42:
 1045              		.loc 1 599 0 discriminator 6
 1046 0032 002B     		cmp	r3, #0
 1047 0034 07D0     		beq	.L43
 600:Drivers/STM32F4xx_HAL_Driver/Src/stm32f4xx_hal_tim.c ****   {
 601:Drivers/STM32F4xx_HAL_Driver/Src/stm32f4xx_hal_tim.c ****     /* Enable the main output */
 602:Drivers/STM32F4xx_HAL_Driver/Src/stm32f4xx_hal_tim.c ****     __HAL_TIM_MOE_ENABLE(htim);
 1048              		.loc 1 602 0 is_stmt 1
 1049 0036 7B68     		ldr	r3, [r7, #4]
 1050 0038 1B68     		ldr	r3, [r3]
 1051 003a 7A68     		ldr	r2, [r7, #4]
 1052 003c 1268     		ldr	r2, [r2]
 1053 003e 526C     		ldr	r2, [r2, #68]
 1054 0040 42F40042 		orr	r2, r2, #32768
 1055 0044 5A64     		str	r2, [r3, #68]
 1056              	.L43:
 603:Drivers/STM32F4xx_HAL_Driver/Src/stm32f4xx_hal_tim.c ****   }
 604:Drivers/STM32F4xx_HAL_Driver/Src/stm32f4xx_hal_tim.c ****   
 605:Drivers/STM32F4xx_HAL_Driver/Src/stm32f4xx_hal_tim.c ****   /* Enable the Peripheral */
 606:Drivers/STM32F4xx_HAL_Driver/Src/stm32f4xx_hal_tim.c ****   __HAL_TIM_ENABLE(htim); 
 1057              		.loc 1 606 0
 1058 0046 7B68     		ldr	r3, [r7, #4]
 1059 0048 1B68     		ldr	r3, [r3]
 1060 004a 7A68     		ldr	r2, [r7, #4]
 1061 004c 1268     		ldr	r2, [r2]
 1062 004e 1268     		ldr	r2, [r2]
 1063 0050 42F00102 		orr	r2, r2, #1
 1064 0054 1A60     		str	r2, [r3]
 607:Drivers/STM32F4xx_HAL_Driver/Src/stm32f4xx_hal_tim.c ****   
 608:Drivers/STM32F4xx_HAL_Driver/Src/stm32f4xx_hal_tim.c ****   /* Return function status */
 609:Drivers/STM32F4xx_HAL_Driver/Src/stm32f4xx_hal_tim.c ****   return HAL_OK;
 1065              		.loc 1 609 0
 1066 0056 0023     		movs	r3, #0
 610:Drivers/STM32F4xx_HAL_Driver/Src/stm32f4xx_hal_tim.c **** }
 1067              		.loc 1 610 0
 1068 0058 1846     		mov	r0, r3
 1069 005a 0837     		adds	r7, r7, #8
 1070              	.LCFI82:
 1071              		.cfi_def_cfa_offset 8
 1072 005c BD46     		mov	sp, r7
ARM GAS  /tmp/ccvK2xU6.s 			page 30


 1073              	.LCFI83:
 1074              		.cfi_def_cfa_register 13
 1075              		@ sp needed
 1076 005e 80BD     		pop	{r7, pc}
 1077              	.L46:
 1078              		.align	2
 1079              	.L45:
 1080 0060 00000140 		.word	1073807360
 1081 0064 00040140 		.word	1073808384
 1082              		.cfi_endproc
 1083              	.LFE138:
 1085              		.section	.text.HAL_TIM_OC_Stop,"ax",%progbits
 1086              		.align	1
 1087              		.global	HAL_TIM_OC_Stop
 1088              		.syntax unified
 1089              		.thumb
 1090              		.thumb_func
 1091              		.fpu fpv4-sp-d16
 1093              	HAL_TIM_OC_Stop:
 1094              	.LFB139:
 611:Drivers/STM32F4xx_HAL_Driver/Src/stm32f4xx_hal_tim.c **** 
 612:Drivers/STM32F4xx_HAL_Driver/Src/stm32f4xx_hal_tim.c **** /**
 613:Drivers/STM32F4xx_HAL_Driver/Src/stm32f4xx_hal_tim.c ****   * @brief  Stops the TIM Output Compare signal generation.
 614:Drivers/STM32F4xx_HAL_Driver/Src/stm32f4xx_hal_tim.c ****   * @param  htim pointer to a TIM_HandleTypeDef structure that contains
 615:Drivers/STM32F4xx_HAL_Driver/Src/stm32f4xx_hal_tim.c ****   *                the configuration information for TIM module.
 616:Drivers/STM32F4xx_HAL_Driver/Src/stm32f4xx_hal_tim.c ****   * @param  Channel TIM Channel to be disabled.
 617:Drivers/STM32F4xx_HAL_Driver/Src/stm32f4xx_hal_tim.c ****   *          This parameter can be one of the following values:
 618:Drivers/STM32F4xx_HAL_Driver/Src/stm32f4xx_hal_tim.c ****   *            @arg TIM_CHANNEL_1: TIM Channel 1 selected
 619:Drivers/STM32F4xx_HAL_Driver/Src/stm32f4xx_hal_tim.c ****   *            @arg TIM_CHANNEL_2: TIM Channel 2 selected
 620:Drivers/STM32F4xx_HAL_Driver/Src/stm32f4xx_hal_tim.c ****   *            @arg TIM_CHANNEL_3: TIM Channel 3 selected
 621:Drivers/STM32F4xx_HAL_Driver/Src/stm32f4xx_hal_tim.c ****   *            @arg TIM_CHANNEL_4: TIM Channel 4 selected
 622:Drivers/STM32F4xx_HAL_Driver/Src/stm32f4xx_hal_tim.c ****   * @retval HAL status
 623:Drivers/STM32F4xx_HAL_Driver/Src/stm32f4xx_hal_tim.c ****   */
 624:Drivers/STM32F4xx_HAL_Driver/Src/stm32f4xx_hal_tim.c **** HAL_StatusTypeDef HAL_TIM_OC_Stop(TIM_HandleTypeDef *htim, uint32_t Channel)
 625:Drivers/STM32F4xx_HAL_Driver/Src/stm32f4xx_hal_tim.c **** {
 1095              		.loc 1 625 0
 1096              		.cfi_startproc
 1097              		@ args = 0, pretend = 0, frame = 8
 1098              		@ frame_needed = 1, uses_anonymous_args = 0
 1099 0000 80B5     		push	{r7, lr}
 1100              	.LCFI84:
 1101              		.cfi_def_cfa_offset 8
 1102              		.cfi_offset 7, -8
 1103              		.cfi_offset 14, -4
 1104 0002 82B0     		sub	sp, sp, #8
 1105              	.LCFI85:
 1106              		.cfi_def_cfa_offset 16
 1107 0004 00AF     		add	r7, sp, #0
 1108              	.LCFI86:
 1109              		.cfi_def_cfa_register 7
 1110 0006 7860     		str	r0, [r7, #4]
 1111 0008 3960     		str	r1, [r7]
 626:Drivers/STM32F4xx_HAL_Driver/Src/stm32f4xx_hal_tim.c ****   /* Check the parameters */
 627:Drivers/STM32F4xx_HAL_Driver/Src/stm32f4xx_hal_tim.c ****   assert_param(IS_TIM_CCX_INSTANCE(htim->Instance, Channel));
 628:Drivers/STM32F4xx_HAL_Driver/Src/stm32f4xx_hal_tim.c ****   
 629:Drivers/STM32F4xx_HAL_Driver/Src/stm32f4xx_hal_tim.c ****   /* Disable the Output compare channel */
 630:Drivers/STM32F4xx_HAL_Driver/Src/stm32f4xx_hal_tim.c ****   TIM_CCxChannelCmd(htim->Instance, Channel, TIM_CCx_DISABLE);
ARM GAS  /tmp/ccvK2xU6.s 			page 31


 1112              		.loc 1 630 0
 1113 000a 7B68     		ldr	r3, [r7, #4]
 1114 000c 1B68     		ldr	r3, [r3]
 1115 000e 0022     		movs	r2, #0
 1116 0010 3968     		ldr	r1, [r7]
 1117 0012 1846     		mov	r0, r3
 1118 0014 FFF7FEFF 		bl	TIM_CCxChannelCmd
 631:Drivers/STM32F4xx_HAL_Driver/Src/stm32f4xx_hal_tim.c ****   
 632:Drivers/STM32F4xx_HAL_Driver/Src/stm32f4xx_hal_tim.c ****   if(IS_TIM_ADVANCED_INSTANCE(htim->Instance) != RESET)  
 1119              		.loc 1 632 0
 1120 0018 7B68     		ldr	r3, [r7, #4]
 1121 001a 1B68     		ldr	r3, [r3]
 1122 001c 204A     		ldr	r2, .L54
 1123 001e 9342     		cmp	r3, r2
 1124 0020 04D0     		beq	.L48
 1125              		.loc 1 632 0 is_stmt 0 discriminator 2
 1126 0022 7B68     		ldr	r3, [r7, #4]
 1127 0024 1B68     		ldr	r3, [r3]
 1128 0026 1F4A     		ldr	r2, .L54+4
 1129 0028 9342     		cmp	r3, r2
 1130 002a 01D1     		bne	.L49
 1131              	.L48:
 1132              		.loc 1 632 0 discriminator 3
 1133 002c 0123     		movs	r3, #1
 1134 002e 00E0     		b	.L50
 1135              	.L49:
 1136              		.loc 1 632 0 discriminator 4
 1137 0030 0023     		movs	r3, #0
 1138              	.L50:
 1139              		.loc 1 632 0 discriminator 6
 1140 0032 002B     		cmp	r3, #0
 1141 0034 17D0     		beq	.L51
 633:Drivers/STM32F4xx_HAL_Driver/Src/stm32f4xx_hal_tim.c ****   {
 634:Drivers/STM32F4xx_HAL_Driver/Src/stm32f4xx_hal_tim.c ****     /* Disable the Main Output */
 635:Drivers/STM32F4xx_HAL_Driver/Src/stm32f4xx_hal_tim.c ****     __HAL_TIM_MOE_DISABLE(htim);
 1142              		.loc 1 635 0 is_stmt 1
 1143 0036 7B68     		ldr	r3, [r7, #4]
 1144 0038 1B68     		ldr	r3, [r3]
 1145 003a 1A6A     		ldr	r2, [r3, #32]
 1146 003c 41F21113 		movw	r3, #4369
 1147 0040 1340     		ands	r3, r3, r2
 1148 0042 002B     		cmp	r3, #0
 1149 0044 0FD1     		bne	.L51
 1150              		.loc 1 635 0 is_stmt 0 discriminator 1
 1151 0046 7B68     		ldr	r3, [r7, #4]
 1152 0048 1B68     		ldr	r3, [r3]
 1153 004a 1A6A     		ldr	r2, [r3, #32]
 1154 004c 40F24443 		movw	r3, #1092
 1155 0050 1340     		ands	r3, r3, r2
 1156 0052 002B     		cmp	r3, #0
 1157 0054 07D1     		bne	.L51
 1158              		.loc 1 635 0 discriminator 2
 1159 0056 7B68     		ldr	r3, [r7, #4]
 1160 0058 1B68     		ldr	r3, [r3]
 1161 005a 7A68     		ldr	r2, [r7, #4]
 1162 005c 1268     		ldr	r2, [r2]
 1163 005e 526C     		ldr	r2, [r2, #68]
ARM GAS  /tmp/ccvK2xU6.s 			page 32


 1164 0060 22F40042 		bic	r2, r2, #32768
 1165 0064 5A64     		str	r2, [r3, #68]
 1166              	.L51:
 636:Drivers/STM32F4xx_HAL_Driver/Src/stm32f4xx_hal_tim.c ****   }  
 637:Drivers/STM32F4xx_HAL_Driver/Src/stm32f4xx_hal_tim.c ****   
 638:Drivers/STM32F4xx_HAL_Driver/Src/stm32f4xx_hal_tim.c ****   /* Disable the Peripheral */
 639:Drivers/STM32F4xx_HAL_Driver/Src/stm32f4xx_hal_tim.c ****   __HAL_TIM_DISABLE(htim);  
 1167              		.loc 1 639 0 is_stmt 1
 1168 0066 7B68     		ldr	r3, [r7, #4]
 1169 0068 1B68     		ldr	r3, [r3]
 1170 006a 1A6A     		ldr	r2, [r3, #32]
 1171 006c 41F21113 		movw	r3, #4369
 1172 0070 1340     		ands	r3, r3, r2
 1173 0072 002B     		cmp	r3, #0
 1174 0074 0FD1     		bne	.L52
 1175              		.loc 1 639 0 is_stmt 0 discriminator 1
 1176 0076 7B68     		ldr	r3, [r7, #4]
 1177 0078 1B68     		ldr	r3, [r3]
 1178 007a 1A6A     		ldr	r2, [r3, #32]
 1179 007c 40F24443 		movw	r3, #1092
 1180 0080 1340     		ands	r3, r3, r2
 1181 0082 002B     		cmp	r3, #0
 1182 0084 07D1     		bne	.L52
 1183              		.loc 1 639 0 discriminator 2
 1184 0086 7B68     		ldr	r3, [r7, #4]
 1185 0088 1B68     		ldr	r3, [r3]
 1186 008a 7A68     		ldr	r2, [r7, #4]
 1187 008c 1268     		ldr	r2, [r2]
 1188 008e 1268     		ldr	r2, [r2]
 1189 0090 22F00102 		bic	r2, r2, #1
 1190 0094 1A60     		str	r2, [r3]
 1191              	.L52:
 640:Drivers/STM32F4xx_HAL_Driver/Src/stm32f4xx_hal_tim.c ****   
 641:Drivers/STM32F4xx_HAL_Driver/Src/stm32f4xx_hal_tim.c ****   /* Return function status */
 642:Drivers/STM32F4xx_HAL_Driver/Src/stm32f4xx_hal_tim.c ****   return HAL_OK;
 1192              		.loc 1 642 0 is_stmt 1
 1193 0096 0023     		movs	r3, #0
 643:Drivers/STM32F4xx_HAL_Driver/Src/stm32f4xx_hal_tim.c **** }  
 1194              		.loc 1 643 0
 1195 0098 1846     		mov	r0, r3
 1196 009a 0837     		adds	r7, r7, #8
 1197              	.LCFI87:
 1198              		.cfi_def_cfa_offset 8
 1199 009c BD46     		mov	sp, r7
 1200              	.LCFI88:
 1201              		.cfi_def_cfa_register 13
 1202              		@ sp needed
 1203 009e 80BD     		pop	{r7, pc}
 1204              	.L55:
 1205              		.align	2
 1206              	.L54:
 1207 00a0 00000140 		.word	1073807360
 1208 00a4 00040140 		.word	1073808384
 1209              		.cfi_endproc
 1210              	.LFE139:
 1212              		.section	.text.HAL_TIM_OC_Start_IT,"ax",%progbits
 1213              		.align	1
ARM GAS  /tmp/ccvK2xU6.s 			page 33


 1214              		.global	HAL_TIM_OC_Start_IT
 1215              		.syntax unified
 1216              		.thumb
 1217              		.thumb_func
 1218              		.fpu fpv4-sp-d16
 1220              	HAL_TIM_OC_Start_IT:
 1221              	.LFB140:
 644:Drivers/STM32F4xx_HAL_Driver/Src/stm32f4xx_hal_tim.c **** 
 645:Drivers/STM32F4xx_HAL_Driver/Src/stm32f4xx_hal_tim.c **** /**
 646:Drivers/STM32F4xx_HAL_Driver/Src/stm32f4xx_hal_tim.c ****   * @brief  Starts the TIM Output Compare signal generation in interrupt mode.
 647:Drivers/STM32F4xx_HAL_Driver/Src/stm32f4xx_hal_tim.c ****   * @param  htim pointer to a TIM_HandleTypeDef structure that contains
 648:Drivers/STM32F4xx_HAL_Driver/Src/stm32f4xx_hal_tim.c ****   *                the configuration information for TIM module.
 649:Drivers/STM32F4xx_HAL_Driver/Src/stm32f4xx_hal_tim.c ****   * @param  Channel TIM Channel to be enabled.
 650:Drivers/STM32F4xx_HAL_Driver/Src/stm32f4xx_hal_tim.c ****   *          This parameter can be one of the following values:
 651:Drivers/STM32F4xx_HAL_Driver/Src/stm32f4xx_hal_tim.c ****   *            @arg TIM_CHANNEL_1: TIM Channel 1 selected
 652:Drivers/STM32F4xx_HAL_Driver/Src/stm32f4xx_hal_tim.c ****   *            @arg TIM_CHANNEL_2: TIM Channel 2 selected
 653:Drivers/STM32F4xx_HAL_Driver/Src/stm32f4xx_hal_tim.c ****   *            @arg TIM_CHANNEL_3: TIM Channel 3 selected
 654:Drivers/STM32F4xx_HAL_Driver/Src/stm32f4xx_hal_tim.c ****   *            @arg TIM_CHANNEL_4: TIM Channel 4 selected
 655:Drivers/STM32F4xx_HAL_Driver/Src/stm32f4xx_hal_tim.c ****   * @retval HAL status
 656:Drivers/STM32F4xx_HAL_Driver/Src/stm32f4xx_hal_tim.c ****   */
 657:Drivers/STM32F4xx_HAL_Driver/Src/stm32f4xx_hal_tim.c **** HAL_StatusTypeDef HAL_TIM_OC_Start_IT(TIM_HandleTypeDef *htim, uint32_t Channel)
 658:Drivers/STM32F4xx_HAL_Driver/Src/stm32f4xx_hal_tim.c **** {
 1222              		.loc 1 658 0
 1223              		.cfi_startproc
 1224              		@ args = 0, pretend = 0, frame = 8
 1225              		@ frame_needed = 1, uses_anonymous_args = 0
 1226 0000 80B5     		push	{r7, lr}
 1227              	.LCFI89:
 1228              		.cfi_def_cfa_offset 8
 1229              		.cfi_offset 7, -8
 1230              		.cfi_offset 14, -4
 1231 0002 82B0     		sub	sp, sp, #8
 1232              	.LCFI90:
 1233              		.cfi_def_cfa_offset 16
 1234 0004 00AF     		add	r7, sp, #0
 1235              	.LCFI91:
 1236              		.cfi_def_cfa_register 7
 1237 0006 7860     		str	r0, [r7, #4]
 1238 0008 3960     		str	r1, [r7]
 659:Drivers/STM32F4xx_HAL_Driver/Src/stm32f4xx_hal_tim.c ****   /* Check the parameters */
 660:Drivers/STM32F4xx_HAL_Driver/Src/stm32f4xx_hal_tim.c ****   assert_param(IS_TIM_CCX_INSTANCE(htim->Instance, Channel));
 661:Drivers/STM32F4xx_HAL_Driver/Src/stm32f4xx_hal_tim.c ****   
 662:Drivers/STM32F4xx_HAL_Driver/Src/stm32f4xx_hal_tim.c ****   switch (Channel)
 1239              		.loc 1 662 0
 1240 000a 3B68     		ldr	r3, [r7]
 1241 000c 0C2B     		cmp	r3, #12
 1242 000e 41D8     		bhi	.L69
 1243 0010 01A2     		adr	r2, .L59
 1244 0012 52F823F0 		ldr	pc, [r2, r3, lsl #2]
 1245 0016 00BF     		.p2align 2
 1246              	.L59:
 1247 0018 4D000000 		.word	.L58+1
 1248 001c 95000000 		.word	.L69+1
 1249 0020 95000000 		.word	.L69+1
 1250 0024 95000000 		.word	.L69+1
 1251 0028 5F000000 		.word	.L60+1
 1252 002c 95000000 		.word	.L69+1
ARM GAS  /tmp/ccvK2xU6.s 			page 34


 1253 0030 95000000 		.word	.L69+1
 1254 0034 95000000 		.word	.L69+1
 1255 0038 71000000 		.word	.L61+1
 1256 003c 95000000 		.word	.L69+1
 1257 0040 95000000 		.word	.L69+1
 1258 0044 95000000 		.word	.L69+1
 1259 0048 83000000 		.word	.L62+1
 1260              		.p2align 1
 1261              	.L58:
 663:Drivers/STM32F4xx_HAL_Driver/Src/stm32f4xx_hal_tim.c ****   {
 664:Drivers/STM32F4xx_HAL_Driver/Src/stm32f4xx_hal_tim.c ****     case TIM_CHANNEL_1:
 665:Drivers/STM32F4xx_HAL_Driver/Src/stm32f4xx_hal_tim.c ****     {       
 666:Drivers/STM32F4xx_HAL_Driver/Src/stm32f4xx_hal_tim.c ****       /* Enable the TIM Capture/Compare 1 interrupt */
 667:Drivers/STM32F4xx_HAL_Driver/Src/stm32f4xx_hal_tim.c ****       __HAL_TIM_ENABLE_IT(htim, TIM_IT_CC1);
 1262              		.loc 1 667 0
 1263 004c 7B68     		ldr	r3, [r7, #4]
 1264 004e 1B68     		ldr	r3, [r3]
 1265 0050 7A68     		ldr	r2, [r7, #4]
 1266 0052 1268     		ldr	r2, [r2]
 1267 0054 D268     		ldr	r2, [r2, #12]
 1268 0056 42F00202 		orr	r2, r2, #2
 1269 005a DA60     		str	r2, [r3, #12]
 668:Drivers/STM32F4xx_HAL_Driver/Src/stm32f4xx_hal_tim.c ****     }
 669:Drivers/STM32F4xx_HAL_Driver/Src/stm32f4xx_hal_tim.c ****     break;
 1270              		.loc 1 669 0
 1271 005c 1BE0     		b	.L63
 1272              	.L60:
 670:Drivers/STM32F4xx_HAL_Driver/Src/stm32f4xx_hal_tim.c ****     
 671:Drivers/STM32F4xx_HAL_Driver/Src/stm32f4xx_hal_tim.c ****     case TIM_CHANNEL_2:
 672:Drivers/STM32F4xx_HAL_Driver/Src/stm32f4xx_hal_tim.c ****     {
 673:Drivers/STM32F4xx_HAL_Driver/Src/stm32f4xx_hal_tim.c ****       /* Enable the TIM Capture/Compare 2 interrupt */
 674:Drivers/STM32F4xx_HAL_Driver/Src/stm32f4xx_hal_tim.c ****       __HAL_TIM_ENABLE_IT(htim, TIM_IT_CC2);
 1273              		.loc 1 674 0
 1274 005e 7B68     		ldr	r3, [r7, #4]
 1275 0060 1B68     		ldr	r3, [r3]
 1276 0062 7A68     		ldr	r2, [r7, #4]
 1277 0064 1268     		ldr	r2, [r2]
 1278 0066 D268     		ldr	r2, [r2, #12]
 1279 0068 42F00402 		orr	r2, r2, #4
 1280 006c DA60     		str	r2, [r3, #12]
 675:Drivers/STM32F4xx_HAL_Driver/Src/stm32f4xx_hal_tim.c ****     }
 676:Drivers/STM32F4xx_HAL_Driver/Src/stm32f4xx_hal_tim.c ****     break;
 1281              		.loc 1 676 0
 1282 006e 12E0     		b	.L63
 1283              	.L61:
 677:Drivers/STM32F4xx_HAL_Driver/Src/stm32f4xx_hal_tim.c ****     
 678:Drivers/STM32F4xx_HAL_Driver/Src/stm32f4xx_hal_tim.c ****     case TIM_CHANNEL_3:
 679:Drivers/STM32F4xx_HAL_Driver/Src/stm32f4xx_hal_tim.c ****     {
 680:Drivers/STM32F4xx_HAL_Driver/Src/stm32f4xx_hal_tim.c ****       /* Enable the TIM Capture/Compare 3 interrupt */
 681:Drivers/STM32F4xx_HAL_Driver/Src/stm32f4xx_hal_tim.c ****       __HAL_TIM_ENABLE_IT(htim, TIM_IT_CC3);
 1284              		.loc 1 681 0
 1285 0070 7B68     		ldr	r3, [r7, #4]
 1286 0072 1B68     		ldr	r3, [r3]
 1287 0074 7A68     		ldr	r2, [r7, #4]
 1288 0076 1268     		ldr	r2, [r2]
 1289 0078 D268     		ldr	r2, [r2, #12]
 1290 007a 42F00802 		orr	r2, r2, #8
ARM GAS  /tmp/ccvK2xU6.s 			page 35


 1291 007e DA60     		str	r2, [r3, #12]
 682:Drivers/STM32F4xx_HAL_Driver/Src/stm32f4xx_hal_tim.c ****     }
 683:Drivers/STM32F4xx_HAL_Driver/Src/stm32f4xx_hal_tim.c ****     break;
 1292              		.loc 1 683 0
 1293 0080 09E0     		b	.L63
 1294              	.L62:
 684:Drivers/STM32F4xx_HAL_Driver/Src/stm32f4xx_hal_tim.c ****     
 685:Drivers/STM32F4xx_HAL_Driver/Src/stm32f4xx_hal_tim.c ****     case TIM_CHANNEL_4:
 686:Drivers/STM32F4xx_HAL_Driver/Src/stm32f4xx_hal_tim.c ****     {
 687:Drivers/STM32F4xx_HAL_Driver/Src/stm32f4xx_hal_tim.c ****       /* Enable the TIM Capture/Compare 4 interrupt */
 688:Drivers/STM32F4xx_HAL_Driver/Src/stm32f4xx_hal_tim.c ****       __HAL_TIM_ENABLE_IT(htim, TIM_IT_CC4);
 1295              		.loc 1 688 0
 1296 0082 7B68     		ldr	r3, [r7, #4]
 1297 0084 1B68     		ldr	r3, [r3]
 1298 0086 7A68     		ldr	r2, [r7, #4]
 1299 0088 1268     		ldr	r2, [r2]
 1300 008a D268     		ldr	r2, [r2, #12]
 1301 008c 42F01002 		orr	r2, r2, #16
 1302 0090 DA60     		str	r2, [r3, #12]
 689:Drivers/STM32F4xx_HAL_Driver/Src/stm32f4xx_hal_tim.c ****     }
 690:Drivers/STM32F4xx_HAL_Driver/Src/stm32f4xx_hal_tim.c ****     break;
 1303              		.loc 1 690 0
 1304 0092 00E0     		b	.L63
 1305              	.L69:
 691:Drivers/STM32F4xx_HAL_Driver/Src/stm32f4xx_hal_tim.c ****     
 692:Drivers/STM32F4xx_HAL_Driver/Src/stm32f4xx_hal_tim.c ****     default:
 693:Drivers/STM32F4xx_HAL_Driver/Src/stm32f4xx_hal_tim.c ****     break;
 1306              		.loc 1 693 0
 1307 0094 00BF     		nop
 1308              	.L63:
 694:Drivers/STM32F4xx_HAL_Driver/Src/stm32f4xx_hal_tim.c ****   } 
 695:Drivers/STM32F4xx_HAL_Driver/Src/stm32f4xx_hal_tim.c **** 
 696:Drivers/STM32F4xx_HAL_Driver/Src/stm32f4xx_hal_tim.c ****   /* Enable the Output compare channel */
 697:Drivers/STM32F4xx_HAL_Driver/Src/stm32f4xx_hal_tim.c ****   TIM_CCxChannelCmd(htim->Instance, Channel, TIM_CCx_ENABLE);
 1309              		.loc 1 697 0
 1310 0096 7B68     		ldr	r3, [r7, #4]
 1311 0098 1B68     		ldr	r3, [r3]
 1312 009a 0122     		movs	r2, #1
 1313 009c 3968     		ldr	r1, [r7]
 1314 009e 1846     		mov	r0, r3
 1315 00a0 FFF7FEFF 		bl	TIM_CCxChannelCmd
 698:Drivers/STM32F4xx_HAL_Driver/Src/stm32f4xx_hal_tim.c ****   
 699:Drivers/STM32F4xx_HAL_Driver/Src/stm32f4xx_hal_tim.c ****   if(IS_TIM_ADVANCED_INSTANCE(htim->Instance) != RESET)  
 1316              		.loc 1 699 0
 1317 00a4 7B68     		ldr	r3, [r7, #4]
 1318 00a6 1B68     		ldr	r3, [r3]
 1319 00a8 104A     		ldr	r2, .L70
 1320 00aa 9342     		cmp	r3, r2
 1321 00ac 04D0     		beq	.L64
 1322              		.loc 1 699 0 is_stmt 0 discriminator 2
 1323 00ae 7B68     		ldr	r3, [r7, #4]
 1324 00b0 1B68     		ldr	r3, [r3]
 1325 00b2 0F4A     		ldr	r2, .L70+4
 1326 00b4 9342     		cmp	r3, r2
 1327 00b6 01D1     		bne	.L65
 1328              	.L64:
 1329              		.loc 1 699 0 discriminator 3
ARM GAS  /tmp/ccvK2xU6.s 			page 36


 1330 00b8 0123     		movs	r3, #1
 1331 00ba 00E0     		b	.L66
 1332              	.L65:
 1333              		.loc 1 699 0 discriminator 4
 1334 00bc 0023     		movs	r3, #0
 1335              	.L66:
 1336              		.loc 1 699 0 discriminator 6
 1337 00be 002B     		cmp	r3, #0
 1338 00c0 07D0     		beq	.L67
 700:Drivers/STM32F4xx_HAL_Driver/Src/stm32f4xx_hal_tim.c ****   {
 701:Drivers/STM32F4xx_HAL_Driver/Src/stm32f4xx_hal_tim.c ****     /* Enable the main output */
 702:Drivers/STM32F4xx_HAL_Driver/Src/stm32f4xx_hal_tim.c ****     __HAL_TIM_MOE_ENABLE(htim);
 1339              		.loc 1 702 0 is_stmt 1
 1340 00c2 7B68     		ldr	r3, [r7, #4]
 1341 00c4 1B68     		ldr	r3, [r3]
 1342 00c6 7A68     		ldr	r2, [r7, #4]
 1343 00c8 1268     		ldr	r2, [r2]
 1344 00ca 526C     		ldr	r2, [r2, #68]
 1345 00cc 42F40042 		orr	r2, r2, #32768
 1346 00d0 5A64     		str	r2, [r3, #68]
 1347              	.L67:
 703:Drivers/STM32F4xx_HAL_Driver/Src/stm32f4xx_hal_tim.c ****   }
 704:Drivers/STM32F4xx_HAL_Driver/Src/stm32f4xx_hal_tim.c **** 
 705:Drivers/STM32F4xx_HAL_Driver/Src/stm32f4xx_hal_tim.c ****   /* Enable the Peripheral */
 706:Drivers/STM32F4xx_HAL_Driver/Src/stm32f4xx_hal_tim.c ****   __HAL_TIM_ENABLE(htim);
 1348              		.loc 1 706 0
 1349 00d2 7B68     		ldr	r3, [r7, #4]
 1350 00d4 1B68     		ldr	r3, [r3]
 1351 00d6 7A68     		ldr	r2, [r7, #4]
 1352 00d8 1268     		ldr	r2, [r2]
 1353 00da 1268     		ldr	r2, [r2]
 1354 00dc 42F00102 		orr	r2, r2, #1
 1355 00e0 1A60     		str	r2, [r3]
 707:Drivers/STM32F4xx_HAL_Driver/Src/stm32f4xx_hal_tim.c ****   
 708:Drivers/STM32F4xx_HAL_Driver/Src/stm32f4xx_hal_tim.c ****   /* Return function status */
 709:Drivers/STM32F4xx_HAL_Driver/Src/stm32f4xx_hal_tim.c ****   return HAL_OK;
 1356              		.loc 1 709 0
 1357 00e2 0023     		movs	r3, #0
 710:Drivers/STM32F4xx_HAL_Driver/Src/stm32f4xx_hal_tim.c **** }
 1358              		.loc 1 710 0
 1359 00e4 1846     		mov	r0, r3
 1360 00e6 0837     		adds	r7, r7, #8
 1361              	.LCFI92:
 1362              		.cfi_def_cfa_offset 8
 1363 00e8 BD46     		mov	sp, r7
 1364              	.LCFI93:
 1365              		.cfi_def_cfa_register 13
 1366              		@ sp needed
 1367 00ea 80BD     		pop	{r7, pc}
 1368              	.L71:
 1369              		.align	2
 1370              	.L70:
 1371 00ec 00000140 		.word	1073807360
 1372 00f0 00040140 		.word	1073808384
 1373              		.cfi_endproc
 1374              	.LFE140:
 1376              		.section	.text.HAL_TIM_OC_Stop_IT,"ax",%progbits
ARM GAS  /tmp/ccvK2xU6.s 			page 37


 1377              		.align	1
 1378              		.global	HAL_TIM_OC_Stop_IT
 1379              		.syntax unified
 1380              		.thumb
 1381              		.thumb_func
 1382              		.fpu fpv4-sp-d16
 1384              	HAL_TIM_OC_Stop_IT:
 1385              	.LFB141:
 711:Drivers/STM32F4xx_HAL_Driver/Src/stm32f4xx_hal_tim.c **** 
 712:Drivers/STM32F4xx_HAL_Driver/Src/stm32f4xx_hal_tim.c **** /**
 713:Drivers/STM32F4xx_HAL_Driver/Src/stm32f4xx_hal_tim.c ****   * @brief  Stops the TIM Output Compare signal generation in interrupt mode.
 714:Drivers/STM32F4xx_HAL_Driver/Src/stm32f4xx_hal_tim.c ****   * @param  htim pointer to a TIM_HandleTypeDef structure that contains
 715:Drivers/STM32F4xx_HAL_Driver/Src/stm32f4xx_hal_tim.c ****   *                the configuration information for TIM module.
 716:Drivers/STM32F4xx_HAL_Driver/Src/stm32f4xx_hal_tim.c ****   * @param  Channel TIM Channel to be disabled.
 717:Drivers/STM32F4xx_HAL_Driver/Src/stm32f4xx_hal_tim.c ****   *          This parameter can be one of the following values:
 718:Drivers/STM32F4xx_HAL_Driver/Src/stm32f4xx_hal_tim.c ****   *            @arg TIM_CHANNEL_1: TIM Channel 1 selected
 719:Drivers/STM32F4xx_HAL_Driver/Src/stm32f4xx_hal_tim.c ****   *            @arg TIM_CHANNEL_2: TIM Channel 2 selected
 720:Drivers/STM32F4xx_HAL_Driver/Src/stm32f4xx_hal_tim.c ****   *            @arg TIM_CHANNEL_3: TIM Channel 3 selected
 721:Drivers/STM32F4xx_HAL_Driver/Src/stm32f4xx_hal_tim.c ****   *            @arg TIM_CHANNEL_4: TIM Channel 4 selected
 722:Drivers/STM32F4xx_HAL_Driver/Src/stm32f4xx_hal_tim.c ****   * @retval HAL status
 723:Drivers/STM32F4xx_HAL_Driver/Src/stm32f4xx_hal_tim.c ****   */
 724:Drivers/STM32F4xx_HAL_Driver/Src/stm32f4xx_hal_tim.c **** HAL_StatusTypeDef HAL_TIM_OC_Stop_IT(TIM_HandleTypeDef *htim, uint32_t Channel)
 725:Drivers/STM32F4xx_HAL_Driver/Src/stm32f4xx_hal_tim.c **** {
 1386              		.loc 1 725 0
 1387              		.cfi_startproc
 1388              		@ args = 0, pretend = 0, frame = 8
 1389              		@ frame_needed = 1, uses_anonymous_args = 0
 1390 0000 80B5     		push	{r7, lr}
 1391              	.LCFI94:
 1392              		.cfi_def_cfa_offset 8
 1393              		.cfi_offset 7, -8
 1394              		.cfi_offset 14, -4
 1395 0002 82B0     		sub	sp, sp, #8
 1396              	.LCFI95:
 1397              		.cfi_def_cfa_offset 16
 1398 0004 00AF     		add	r7, sp, #0
 1399              	.LCFI96:
 1400              		.cfi_def_cfa_register 7
 1401 0006 7860     		str	r0, [r7, #4]
 1402 0008 3960     		str	r1, [r7]
 726:Drivers/STM32F4xx_HAL_Driver/Src/stm32f4xx_hal_tim.c ****   /* Check the parameters */
 727:Drivers/STM32F4xx_HAL_Driver/Src/stm32f4xx_hal_tim.c ****   assert_param(IS_TIM_CCX_INSTANCE(htim->Instance, Channel));
 728:Drivers/STM32F4xx_HAL_Driver/Src/stm32f4xx_hal_tim.c ****   
 729:Drivers/STM32F4xx_HAL_Driver/Src/stm32f4xx_hal_tim.c ****   switch (Channel)
 1403              		.loc 1 729 0
 1404 000a 3B68     		ldr	r3, [r7]
 1405 000c 0C2B     		cmp	r3, #12
 1406 000e 41D8     		bhi	.L86
 1407 0010 01A2     		adr	r2, .L75
 1408 0012 52F823F0 		ldr	pc, [r2, r3, lsl #2]
 1409 0016 00BF     		.p2align 2
 1410              	.L75:
 1411 0018 4D000000 		.word	.L74+1
 1412 001c 95000000 		.word	.L86+1
 1413 0020 95000000 		.word	.L86+1
 1414 0024 95000000 		.word	.L86+1
 1415 0028 5F000000 		.word	.L76+1
ARM GAS  /tmp/ccvK2xU6.s 			page 38


 1416 002c 95000000 		.word	.L86+1
 1417 0030 95000000 		.word	.L86+1
 1418 0034 95000000 		.word	.L86+1
 1419 0038 71000000 		.word	.L77+1
 1420 003c 95000000 		.word	.L86+1
 1421 0040 95000000 		.word	.L86+1
 1422 0044 95000000 		.word	.L86+1
 1423 0048 83000000 		.word	.L78+1
 1424              		.p2align 1
 1425              	.L74:
 730:Drivers/STM32F4xx_HAL_Driver/Src/stm32f4xx_hal_tim.c ****   {
 731:Drivers/STM32F4xx_HAL_Driver/Src/stm32f4xx_hal_tim.c ****     case TIM_CHANNEL_1:
 732:Drivers/STM32F4xx_HAL_Driver/Src/stm32f4xx_hal_tim.c ****     {       
 733:Drivers/STM32F4xx_HAL_Driver/Src/stm32f4xx_hal_tim.c ****       /* Disable the TIM Capture/Compare 1 interrupt */
 734:Drivers/STM32F4xx_HAL_Driver/Src/stm32f4xx_hal_tim.c ****       __HAL_TIM_DISABLE_IT(htim, TIM_IT_CC1);
 1426              		.loc 1 734 0
 1427 004c 7B68     		ldr	r3, [r7, #4]
 1428 004e 1B68     		ldr	r3, [r3]
 1429 0050 7A68     		ldr	r2, [r7, #4]
 1430 0052 1268     		ldr	r2, [r2]
 1431 0054 D268     		ldr	r2, [r2, #12]
 1432 0056 22F00202 		bic	r2, r2, #2
 1433 005a DA60     		str	r2, [r3, #12]
 735:Drivers/STM32F4xx_HAL_Driver/Src/stm32f4xx_hal_tim.c ****     }
 736:Drivers/STM32F4xx_HAL_Driver/Src/stm32f4xx_hal_tim.c ****     break;
 1434              		.loc 1 736 0
 1435 005c 1BE0     		b	.L79
 1436              	.L76:
 737:Drivers/STM32F4xx_HAL_Driver/Src/stm32f4xx_hal_tim.c ****     
 738:Drivers/STM32F4xx_HAL_Driver/Src/stm32f4xx_hal_tim.c ****     case TIM_CHANNEL_2:
 739:Drivers/STM32F4xx_HAL_Driver/Src/stm32f4xx_hal_tim.c ****     {
 740:Drivers/STM32F4xx_HAL_Driver/Src/stm32f4xx_hal_tim.c ****       /* Disable the TIM Capture/Compare 2 interrupt */
 741:Drivers/STM32F4xx_HAL_Driver/Src/stm32f4xx_hal_tim.c ****       __HAL_TIM_DISABLE_IT(htim, TIM_IT_CC2);
 1437              		.loc 1 741 0
 1438 005e 7B68     		ldr	r3, [r7, #4]
 1439 0060 1B68     		ldr	r3, [r3]
 1440 0062 7A68     		ldr	r2, [r7, #4]
 1441 0064 1268     		ldr	r2, [r2]
 1442 0066 D268     		ldr	r2, [r2, #12]
 1443 0068 22F00402 		bic	r2, r2, #4
 1444 006c DA60     		str	r2, [r3, #12]
 742:Drivers/STM32F4xx_HAL_Driver/Src/stm32f4xx_hal_tim.c ****     }
 743:Drivers/STM32F4xx_HAL_Driver/Src/stm32f4xx_hal_tim.c ****     break;
 1445              		.loc 1 743 0
 1446 006e 12E0     		b	.L79
 1447              	.L77:
 744:Drivers/STM32F4xx_HAL_Driver/Src/stm32f4xx_hal_tim.c ****     
 745:Drivers/STM32F4xx_HAL_Driver/Src/stm32f4xx_hal_tim.c ****     case TIM_CHANNEL_3:
 746:Drivers/STM32F4xx_HAL_Driver/Src/stm32f4xx_hal_tim.c ****     {
 747:Drivers/STM32F4xx_HAL_Driver/Src/stm32f4xx_hal_tim.c ****       /* Disable the TIM Capture/Compare 3 interrupt */
 748:Drivers/STM32F4xx_HAL_Driver/Src/stm32f4xx_hal_tim.c ****       __HAL_TIM_DISABLE_IT(htim, TIM_IT_CC3);
 1448              		.loc 1 748 0
 1449 0070 7B68     		ldr	r3, [r7, #4]
 1450 0072 1B68     		ldr	r3, [r3]
 1451 0074 7A68     		ldr	r2, [r7, #4]
 1452 0076 1268     		ldr	r2, [r2]
 1453 0078 D268     		ldr	r2, [r2, #12]
ARM GAS  /tmp/ccvK2xU6.s 			page 39


 1454 007a 22F00802 		bic	r2, r2, #8
 1455 007e DA60     		str	r2, [r3, #12]
 749:Drivers/STM32F4xx_HAL_Driver/Src/stm32f4xx_hal_tim.c ****     }
 750:Drivers/STM32F4xx_HAL_Driver/Src/stm32f4xx_hal_tim.c ****     break;
 1456              		.loc 1 750 0
 1457 0080 09E0     		b	.L79
 1458              	.L78:
 751:Drivers/STM32F4xx_HAL_Driver/Src/stm32f4xx_hal_tim.c ****     
 752:Drivers/STM32F4xx_HAL_Driver/Src/stm32f4xx_hal_tim.c ****     case TIM_CHANNEL_4:
 753:Drivers/STM32F4xx_HAL_Driver/Src/stm32f4xx_hal_tim.c ****     {
 754:Drivers/STM32F4xx_HAL_Driver/Src/stm32f4xx_hal_tim.c ****       /* Disable the TIM Capture/Compare 4 interrupt */
 755:Drivers/STM32F4xx_HAL_Driver/Src/stm32f4xx_hal_tim.c ****       __HAL_TIM_DISABLE_IT(htim, TIM_IT_CC4);
 1459              		.loc 1 755 0
 1460 0082 7B68     		ldr	r3, [r7, #4]
 1461 0084 1B68     		ldr	r3, [r3]
 1462 0086 7A68     		ldr	r2, [r7, #4]
 1463 0088 1268     		ldr	r2, [r2]
 1464 008a D268     		ldr	r2, [r2, #12]
 1465 008c 22F01002 		bic	r2, r2, #16
 1466 0090 DA60     		str	r2, [r3, #12]
 756:Drivers/STM32F4xx_HAL_Driver/Src/stm32f4xx_hal_tim.c ****     }
 757:Drivers/STM32F4xx_HAL_Driver/Src/stm32f4xx_hal_tim.c ****     break;
 1467              		.loc 1 757 0
 1468 0092 00E0     		b	.L79
 1469              	.L86:
 758:Drivers/STM32F4xx_HAL_Driver/Src/stm32f4xx_hal_tim.c ****     
 759:Drivers/STM32F4xx_HAL_Driver/Src/stm32f4xx_hal_tim.c ****     default:
 760:Drivers/STM32F4xx_HAL_Driver/Src/stm32f4xx_hal_tim.c ****     break; 
 1470              		.loc 1 760 0
 1471 0094 00BF     		nop
 1472              	.L79:
 761:Drivers/STM32F4xx_HAL_Driver/Src/stm32f4xx_hal_tim.c ****   } 
 762:Drivers/STM32F4xx_HAL_Driver/Src/stm32f4xx_hal_tim.c ****   
 763:Drivers/STM32F4xx_HAL_Driver/Src/stm32f4xx_hal_tim.c ****   /* Disable the Output compare channel */
 764:Drivers/STM32F4xx_HAL_Driver/Src/stm32f4xx_hal_tim.c ****   TIM_CCxChannelCmd(htim->Instance, Channel, TIM_CCx_DISABLE); 
 1473              		.loc 1 764 0
 1474 0096 7B68     		ldr	r3, [r7, #4]
 1475 0098 1B68     		ldr	r3, [r3]
 1476 009a 0022     		movs	r2, #0
 1477 009c 3968     		ldr	r1, [r7]
 1478 009e 1846     		mov	r0, r3
 1479 00a0 FFF7FEFF 		bl	TIM_CCxChannelCmd
 765:Drivers/STM32F4xx_HAL_Driver/Src/stm32f4xx_hal_tim.c ****   
 766:Drivers/STM32F4xx_HAL_Driver/Src/stm32f4xx_hal_tim.c ****   if(IS_TIM_ADVANCED_INSTANCE(htim->Instance) != RESET)  
 1480              		.loc 1 766 0
 1481 00a4 7B68     		ldr	r3, [r7, #4]
 1482 00a6 1B68     		ldr	r3, [r3]
 1483 00a8 204A     		ldr	r2, .L87
 1484 00aa 9342     		cmp	r3, r2
 1485 00ac 04D0     		beq	.L80
 1486              		.loc 1 766 0 is_stmt 0 discriminator 2
 1487 00ae 7B68     		ldr	r3, [r7, #4]
 1488 00b0 1B68     		ldr	r3, [r3]
 1489 00b2 1F4A     		ldr	r2, .L87+4
 1490 00b4 9342     		cmp	r3, r2
 1491 00b6 01D1     		bne	.L81
 1492              	.L80:
ARM GAS  /tmp/ccvK2xU6.s 			page 40


 1493              		.loc 1 766 0 discriminator 3
 1494 00b8 0123     		movs	r3, #1
 1495 00ba 00E0     		b	.L82
 1496              	.L81:
 1497              		.loc 1 766 0 discriminator 4
 1498 00bc 0023     		movs	r3, #0
 1499              	.L82:
 1500              		.loc 1 766 0 discriminator 6
 1501 00be 002B     		cmp	r3, #0
 1502 00c0 17D0     		beq	.L83
 767:Drivers/STM32F4xx_HAL_Driver/Src/stm32f4xx_hal_tim.c ****   {
 768:Drivers/STM32F4xx_HAL_Driver/Src/stm32f4xx_hal_tim.c ****     /* Disable the Main Output */
 769:Drivers/STM32F4xx_HAL_Driver/Src/stm32f4xx_hal_tim.c ****     __HAL_TIM_MOE_DISABLE(htim);
 1503              		.loc 1 769 0 is_stmt 1
 1504 00c2 7B68     		ldr	r3, [r7, #4]
 1505 00c4 1B68     		ldr	r3, [r3]
 1506 00c6 1A6A     		ldr	r2, [r3, #32]
 1507 00c8 41F21113 		movw	r3, #4369
 1508 00cc 1340     		ands	r3, r3, r2
 1509 00ce 002B     		cmp	r3, #0
 1510 00d0 0FD1     		bne	.L83
 1511              		.loc 1 769 0 is_stmt 0 discriminator 1
 1512 00d2 7B68     		ldr	r3, [r7, #4]
 1513 00d4 1B68     		ldr	r3, [r3]
 1514 00d6 1A6A     		ldr	r2, [r3, #32]
 1515 00d8 40F24443 		movw	r3, #1092
 1516 00dc 1340     		ands	r3, r3, r2
 1517 00de 002B     		cmp	r3, #0
 1518 00e0 07D1     		bne	.L83
 1519              		.loc 1 769 0 discriminator 2
 1520 00e2 7B68     		ldr	r3, [r7, #4]
 1521 00e4 1B68     		ldr	r3, [r3]
 1522 00e6 7A68     		ldr	r2, [r7, #4]
 1523 00e8 1268     		ldr	r2, [r2]
 1524 00ea 526C     		ldr	r2, [r2, #68]
 1525 00ec 22F40042 		bic	r2, r2, #32768
 1526 00f0 5A64     		str	r2, [r3, #68]
 1527              	.L83:
 770:Drivers/STM32F4xx_HAL_Driver/Src/stm32f4xx_hal_tim.c ****   }
 771:Drivers/STM32F4xx_HAL_Driver/Src/stm32f4xx_hal_tim.c ****   
 772:Drivers/STM32F4xx_HAL_Driver/Src/stm32f4xx_hal_tim.c ****   /* Disable the Peripheral */
 773:Drivers/STM32F4xx_HAL_Driver/Src/stm32f4xx_hal_tim.c ****   __HAL_TIM_DISABLE(htim);  
 1528              		.loc 1 773 0 is_stmt 1
 1529 00f2 7B68     		ldr	r3, [r7, #4]
 1530 00f4 1B68     		ldr	r3, [r3]
 1531 00f6 1A6A     		ldr	r2, [r3, #32]
 1532 00f8 41F21113 		movw	r3, #4369
 1533 00fc 1340     		ands	r3, r3, r2
 1534 00fe 002B     		cmp	r3, #0
 1535 0100 0FD1     		bne	.L84
 1536              		.loc 1 773 0 is_stmt 0 discriminator 1
 1537 0102 7B68     		ldr	r3, [r7, #4]
 1538 0104 1B68     		ldr	r3, [r3]
 1539 0106 1A6A     		ldr	r2, [r3, #32]
 1540 0108 40F24443 		movw	r3, #1092
 1541 010c 1340     		ands	r3, r3, r2
 1542 010e 002B     		cmp	r3, #0
ARM GAS  /tmp/ccvK2xU6.s 			page 41


 1543 0110 07D1     		bne	.L84
 1544              		.loc 1 773 0 discriminator 2
 1545 0112 7B68     		ldr	r3, [r7, #4]
 1546 0114 1B68     		ldr	r3, [r3]
 1547 0116 7A68     		ldr	r2, [r7, #4]
 1548 0118 1268     		ldr	r2, [r2]
 1549 011a 1268     		ldr	r2, [r2]
 1550 011c 22F00102 		bic	r2, r2, #1
 1551 0120 1A60     		str	r2, [r3]
 1552              	.L84:
 774:Drivers/STM32F4xx_HAL_Driver/Src/stm32f4xx_hal_tim.c ****   
 775:Drivers/STM32F4xx_HAL_Driver/Src/stm32f4xx_hal_tim.c ****   /* Return function status */
 776:Drivers/STM32F4xx_HAL_Driver/Src/stm32f4xx_hal_tim.c ****   return HAL_OK;
 1553              		.loc 1 776 0 is_stmt 1
 1554 0122 0023     		movs	r3, #0
 777:Drivers/STM32F4xx_HAL_Driver/Src/stm32f4xx_hal_tim.c **** }
 1555              		.loc 1 777 0
 1556 0124 1846     		mov	r0, r3
 1557 0126 0837     		adds	r7, r7, #8
 1558              	.LCFI97:
 1559              		.cfi_def_cfa_offset 8
 1560 0128 BD46     		mov	sp, r7
 1561              	.LCFI98:
 1562              		.cfi_def_cfa_register 13
 1563              		@ sp needed
 1564 012a 80BD     		pop	{r7, pc}
 1565              	.L88:
 1566              		.align	2
 1567              	.L87:
 1568 012c 00000140 		.word	1073807360
 1569 0130 00040140 		.word	1073808384
 1570              		.cfi_endproc
 1571              	.LFE141:
 1573              		.section	.text.HAL_TIM_OC_Start_DMA,"ax",%progbits
 1574              		.align	1
 1575              		.global	HAL_TIM_OC_Start_DMA
 1576              		.syntax unified
 1577              		.thumb
 1578              		.thumb_func
 1579              		.fpu fpv4-sp-d16
 1581              	HAL_TIM_OC_Start_DMA:
 1582              	.LFB142:
 778:Drivers/STM32F4xx_HAL_Driver/Src/stm32f4xx_hal_tim.c **** 
 779:Drivers/STM32F4xx_HAL_Driver/Src/stm32f4xx_hal_tim.c **** /**
 780:Drivers/STM32F4xx_HAL_Driver/Src/stm32f4xx_hal_tim.c ****   * @brief  Starts the TIM Output Compare signal generation in DMA mode.
 781:Drivers/STM32F4xx_HAL_Driver/Src/stm32f4xx_hal_tim.c ****   * @param  htim pointer to a TIM_HandleTypeDef structure that contains
 782:Drivers/STM32F4xx_HAL_Driver/Src/stm32f4xx_hal_tim.c ****   *                the configuration information for TIM module.
 783:Drivers/STM32F4xx_HAL_Driver/Src/stm32f4xx_hal_tim.c ****   * @param  Channel TIM Channel to be enabled.
 784:Drivers/STM32F4xx_HAL_Driver/Src/stm32f4xx_hal_tim.c ****   *          This parameter can be one of the following values:
 785:Drivers/STM32F4xx_HAL_Driver/Src/stm32f4xx_hal_tim.c ****   *            @arg TIM_CHANNEL_1: TIM Channel 1 selected
 786:Drivers/STM32F4xx_HAL_Driver/Src/stm32f4xx_hal_tim.c ****   *            @arg TIM_CHANNEL_2: TIM Channel 2 selected
 787:Drivers/STM32F4xx_HAL_Driver/Src/stm32f4xx_hal_tim.c ****   *            @arg TIM_CHANNEL_3: TIM Channel 3 selected
 788:Drivers/STM32F4xx_HAL_Driver/Src/stm32f4xx_hal_tim.c ****   *            @arg TIM_CHANNEL_4: TIM Channel 4 selected
 789:Drivers/STM32F4xx_HAL_Driver/Src/stm32f4xx_hal_tim.c ****   * @param  pData The source Buffer address.
 790:Drivers/STM32F4xx_HAL_Driver/Src/stm32f4xx_hal_tim.c ****   * @param  Length The length of data to be transferred from memory to TIM peripheral
 791:Drivers/STM32F4xx_HAL_Driver/Src/stm32f4xx_hal_tim.c ****   * @retval HAL status
 792:Drivers/STM32F4xx_HAL_Driver/Src/stm32f4xx_hal_tim.c ****   */
ARM GAS  /tmp/ccvK2xU6.s 			page 42


 793:Drivers/STM32F4xx_HAL_Driver/Src/stm32f4xx_hal_tim.c **** HAL_StatusTypeDef HAL_TIM_OC_Start_DMA(TIM_HandleTypeDef *htim, uint32_t Channel, uint32_t *pData, 
 794:Drivers/STM32F4xx_HAL_Driver/Src/stm32f4xx_hal_tim.c **** {
 1583              		.loc 1 794 0
 1584              		.cfi_startproc
 1585              		@ args = 0, pretend = 0, frame = 16
 1586              		@ frame_needed = 1, uses_anonymous_args = 0
 1587 0000 80B5     		push	{r7, lr}
 1588              	.LCFI99:
 1589              		.cfi_def_cfa_offset 8
 1590              		.cfi_offset 7, -8
 1591              		.cfi_offset 14, -4
 1592 0002 84B0     		sub	sp, sp, #16
 1593              	.LCFI100:
 1594              		.cfi_def_cfa_offset 24
 1595 0004 00AF     		add	r7, sp, #0
 1596              	.LCFI101:
 1597              		.cfi_def_cfa_register 7
 1598 0006 F860     		str	r0, [r7, #12]
 1599 0008 B960     		str	r1, [r7, #8]
 1600 000a 7A60     		str	r2, [r7, #4]
 1601 000c 7B80     		strh	r3, [r7, #2]	@ movhi
 795:Drivers/STM32F4xx_HAL_Driver/Src/stm32f4xx_hal_tim.c ****   /* Check the parameters */
 796:Drivers/STM32F4xx_HAL_Driver/Src/stm32f4xx_hal_tim.c ****   assert_param(IS_TIM_CCX_INSTANCE(htim->Instance, Channel));
 797:Drivers/STM32F4xx_HAL_Driver/Src/stm32f4xx_hal_tim.c ****   
 798:Drivers/STM32F4xx_HAL_Driver/Src/stm32f4xx_hal_tim.c ****   if((htim->State == HAL_TIM_STATE_BUSY))
 1602              		.loc 1 798 0
 1603 000e FB68     		ldr	r3, [r7, #12]
 1604 0010 93F83930 		ldrb	r3, [r3, #57]
 1605 0014 DBB2     		uxtb	r3, r3
 1606 0016 022B     		cmp	r3, #2
 1607 0018 01D1     		bne	.L90
 799:Drivers/STM32F4xx_HAL_Driver/Src/stm32f4xx_hal_tim.c ****   {
 800:Drivers/STM32F4xx_HAL_Driver/Src/stm32f4xx_hal_tim.c ****      return HAL_BUSY;
 1608              		.loc 1 800 0
 1609 001a 0223     		movs	r3, #2
 1610 001c C6E0     		b	.L91
 1611              	.L90:
 801:Drivers/STM32F4xx_HAL_Driver/Src/stm32f4xx_hal_tim.c ****   }
 802:Drivers/STM32F4xx_HAL_Driver/Src/stm32f4xx_hal_tim.c ****   else if((htim->State == HAL_TIM_STATE_READY))
 1612              		.loc 1 802 0
 1613 001e FB68     		ldr	r3, [r7, #12]
 1614 0020 93F83930 		ldrb	r3, [r3, #57]
 1615 0024 DBB2     		uxtb	r3, r3
 1616 0026 012B     		cmp	r3, #1
 1617 0028 0BD1     		bne	.L92
 803:Drivers/STM32F4xx_HAL_Driver/Src/stm32f4xx_hal_tim.c ****   {
 804:Drivers/STM32F4xx_HAL_Driver/Src/stm32f4xx_hal_tim.c ****     if(((uint32_t)pData == 0U) && (Length > 0)) 
 1618              		.loc 1 804 0
 1619 002a 7B68     		ldr	r3, [r7, #4]
 1620 002c 002B     		cmp	r3, #0
 1621 002e 04D1     		bne	.L93
 1622              		.loc 1 804 0 is_stmt 0 discriminator 1
 1623 0030 7B88     		ldrh	r3, [r7, #2]
 1624 0032 002B     		cmp	r3, #0
 1625 0034 01D0     		beq	.L93
 805:Drivers/STM32F4xx_HAL_Driver/Src/stm32f4xx_hal_tim.c ****     {
 806:Drivers/STM32F4xx_HAL_Driver/Src/stm32f4xx_hal_tim.c ****       return HAL_ERROR;                                    
ARM GAS  /tmp/ccvK2xU6.s 			page 43


 1626              		.loc 1 806 0 is_stmt 1
 1627 0036 0123     		movs	r3, #1
 1628 0038 B8E0     		b	.L91
 1629              	.L93:
 807:Drivers/STM32F4xx_HAL_Driver/Src/stm32f4xx_hal_tim.c ****     }
 808:Drivers/STM32F4xx_HAL_Driver/Src/stm32f4xx_hal_tim.c ****     else
 809:Drivers/STM32F4xx_HAL_Driver/Src/stm32f4xx_hal_tim.c ****     {
 810:Drivers/STM32F4xx_HAL_Driver/Src/stm32f4xx_hal_tim.c ****       htim->State = HAL_TIM_STATE_BUSY;
 1630              		.loc 1 810 0
 1631 003a FB68     		ldr	r3, [r7, #12]
 1632 003c 0222     		movs	r2, #2
 1633 003e 83F83920 		strb	r2, [r3, #57]
 1634              	.L92:
 811:Drivers/STM32F4xx_HAL_Driver/Src/stm32f4xx_hal_tim.c ****     }
 812:Drivers/STM32F4xx_HAL_Driver/Src/stm32f4xx_hal_tim.c ****   }    
 813:Drivers/STM32F4xx_HAL_Driver/Src/stm32f4xx_hal_tim.c ****   switch (Channel)
 1635              		.loc 1 813 0
 1636 0042 BB68     		ldr	r3, [r7, #8]
 1637 0044 0C2B     		cmp	r3, #12
 1638 0046 00F28980 		bhi	.L105
 1639 004a 01A2     		adr	r2, .L96
 1640 004c 52F823F0 		ldr	pc, [r2, r3, lsl #2]
 1641              		.p2align 2
 1642              	.L96:
 1643 0050 85000000 		.word	.L95+1
 1644 0054 5D010000 		.word	.L105+1
 1645 0058 5D010000 		.word	.L105+1
 1646 005c 5D010000 		.word	.L105+1
 1647 0060 BB000000 		.word	.L97+1
 1648 0064 5D010000 		.word	.L105+1
 1649 0068 5D010000 		.word	.L105+1
 1650 006c 5D010000 		.word	.L105+1
 1651 0070 F1000000 		.word	.L98+1
 1652 0074 5D010000 		.word	.L105+1
 1653 0078 5D010000 		.word	.L105+1
 1654 007c 5D010000 		.word	.L105+1
 1655 0080 27010000 		.word	.L99+1
 1656              		.p2align 1
 1657              	.L95:
 814:Drivers/STM32F4xx_HAL_Driver/Src/stm32f4xx_hal_tim.c ****   {
 815:Drivers/STM32F4xx_HAL_Driver/Src/stm32f4xx_hal_tim.c ****     case TIM_CHANNEL_1:
 816:Drivers/STM32F4xx_HAL_Driver/Src/stm32f4xx_hal_tim.c ****     {      
 817:Drivers/STM32F4xx_HAL_Driver/Src/stm32f4xx_hal_tim.c ****       /* Set the DMA Period elapsed callback */
 818:Drivers/STM32F4xx_HAL_Driver/Src/stm32f4xx_hal_tim.c ****       htim->hdma[TIM_DMA_ID_CC1]->XferCpltCallback = TIM_DMADelayPulseCplt;
 1658              		.loc 1 818 0
 1659 0084 FB68     		ldr	r3, [r7, #12]
 1660 0086 1B6A     		ldr	r3, [r3, #32]
 1661 0088 4A4A     		ldr	r2, .L106
 1662 008a DA63     		str	r2, [r3, #60]
 819:Drivers/STM32F4xx_HAL_Driver/Src/stm32f4xx_hal_tim.c ****      
 820:Drivers/STM32F4xx_HAL_Driver/Src/stm32f4xx_hal_tim.c ****       /* Set the DMA error callback */
 821:Drivers/STM32F4xx_HAL_Driver/Src/stm32f4xx_hal_tim.c ****       htim->hdma[TIM_DMA_ID_CC1]->XferErrorCallback = TIM_DMAError ;
 1663              		.loc 1 821 0
 1664 008c FB68     		ldr	r3, [r7, #12]
 1665 008e 1B6A     		ldr	r3, [r3, #32]
 1666 0090 494A     		ldr	r2, .L106+4
 1667 0092 DA64     		str	r2, [r3, #76]
ARM GAS  /tmp/ccvK2xU6.s 			page 44


 822:Drivers/STM32F4xx_HAL_Driver/Src/stm32f4xx_hal_tim.c ****       
 823:Drivers/STM32F4xx_HAL_Driver/Src/stm32f4xx_hal_tim.c ****       /* Enable the DMA Stream */
 824:Drivers/STM32F4xx_HAL_Driver/Src/stm32f4xx_hal_tim.c ****       HAL_DMA_Start_IT(htim->hdma[TIM_DMA_ID_CC1], (uint32_t)pData, (uint32_t)&htim->Instance->CCR1
 1668              		.loc 1 824 0
 1669 0094 FB68     		ldr	r3, [r7, #12]
 1670 0096 186A     		ldr	r0, [r3, #32]
 1671 0098 7968     		ldr	r1, [r7, #4]
 1672 009a FB68     		ldr	r3, [r7, #12]
 1673 009c 1B68     		ldr	r3, [r3]
 1674 009e 3433     		adds	r3, r3, #52
 1675 00a0 1A46     		mov	r2, r3
 1676 00a2 7B88     		ldrh	r3, [r7, #2]
 1677 00a4 FFF7FEFF 		bl	HAL_DMA_Start_IT
 825:Drivers/STM32F4xx_HAL_Driver/Src/stm32f4xx_hal_tim.c ****       
 826:Drivers/STM32F4xx_HAL_Driver/Src/stm32f4xx_hal_tim.c ****       /* Enable the TIM Capture/Compare 1 DMA request */
 827:Drivers/STM32F4xx_HAL_Driver/Src/stm32f4xx_hal_tim.c ****       __HAL_TIM_ENABLE_DMA(htim, TIM_DMA_CC1);
 1678              		.loc 1 827 0
 1679 00a8 FB68     		ldr	r3, [r7, #12]
 1680 00aa 1B68     		ldr	r3, [r3]
 1681 00ac FA68     		ldr	r2, [r7, #12]
 1682 00ae 1268     		ldr	r2, [r2]
 1683 00b0 D268     		ldr	r2, [r2, #12]
 1684 00b2 42F40072 		orr	r2, r2, #512
 1685 00b6 DA60     		str	r2, [r3, #12]
 828:Drivers/STM32F4xx_HAL_Driver/Src/stm32f4xx_hal_tim.c ****     }
 829:Drivers/STM32F4xx_HAL_Driver/Src/stm32f4xx_hal_tim.c ****     break;
 1686              		.loc 1 829 0
 1687 00b8 51E0     		b	.L100
 1688              	.L97:
 830:Drivers/STM32F4xx_HAL_Driver/Src/stm32f4xx_hal_tim.c ****     
 831:Drivers/STM32F4xx_HAL_Driver/Src/stm32f4xx_hal_tim.c ****     case TIM_CHANNEL_2:
 832:Drivers/STM32F4xx_HAL_Driver/Src/stm32f4xx_hal_tim.c ****     {
 833:Drivers/STM32F4xx_HAL_Driver/Src/stm32f4xx_hal_tim.c ****       /* Set the DMA Period elapsed callback */
 834:Drivers/STM32F4xx_HAL_Driver/Src/stm32f4xx_hal_tim.c ****       htim->hdma[TIM_DMA_ID_CC2]->XferCpltCallback = TIM_DMADelayPulseCplt;
 1689              		.loc 1 834 0
 1690 00ba FB68     		ldr	r3, [r7, #12]
 1691 00bc 5B6A     		ldr	r3, [r3, #36]
 1692 00be 3D4A     		ldr	r2, .L106
 1693 00c0 DA63     		str	r2, [r3, #60]
 835:Drivers/STM32F4xx_HAL_Driver/Src/stm32f4xx_hal_tim.c ****      
 836:Drivers/STM32F4xx_HAL_Driver/Src/stm32f4xx_hal_tim.c ****       /* Set the DMA error callback */
 837:Drivers/STM32F4xx_HAL_Driver/Src/stm32f4xx_hal_tim.c ****       htim->hdma[TIM_DMA_ID_CC2]->XferErrorCallback = TIM_DMAError ;
 1694              		.loc 1 837 0
 1695 00c2 FB68     		ldr	r3, [r7, #12]
 1696 00c4 5B6A     		ldr	r3, [r3, #36]
 1697 00c6 3C4A     		ldr	r2, .L106+4
 1698 00c8 DA64     		str	r2, [r3, #76]
 838:Drivers/STM32F4xx_HAL_Driver/Src/stm32f4xx_hal_tim.c ****       
 839:Drivers/STM32F4xx_HAL_Driver/Src/stm32f4xx_hal_tim.c ****       /* Enable the DMA Stream */
 840:Drivers/STM32F4xx_HAL_Driver/Src/stm32f4xx_hal_tim.c ****       HAL_DMA_Start_IT(htim->hdma[TIM_DMA_ID_CC2], (uint32_t)pData, (uint32_t)&htim->Instance->CCR2
 1699              		.loc 1 840 0
 1700 00ca FB68     		ldr	r3, [r7, #12]
 1701 00cc 586A     		ldr	r0, [r3, #36]
 1702 00ce 7968     		ldr	r1, [r7, #4]
 1703 00d0 FB68     		ldr	r3, [r7, #12]
 1704 00d2 1B68     		ldr	r3, [r3]
 1705 00d4 3833     		adds	r3, r3, #56
ARM GAS  /tmp/ccvK2xU6.s 			page 45


 1706 00d6 1A46     		mov	r2, r3
 1707 00d8 7B88     		ldrh	r3, [r7, #2]
 1708 00da FFF7FEFF 		bl	HAL_DMA_Start_IT
 841:Drivers/STM32F4xx_HAL_Driver/Src/stm32f4xx_hal_tim.c ****       
 842:Drivers/STM32F4xx_HAL_Driver/Src/stm32f4xx_hal_tim.c ****       /* Enable the TIM Capture/Compare 2 DMA request */
 843:Drivers/STM32F4xx_HAL_Driver/Src/stm32f4xx_hal_tim.c ****       __HAL_TIM_ENABLE_DMA(htim, TIM_DMA_CC2);
 1709              		.loc 1 843 0
 1710 00de FB68     		ldr	r3, [r7, #12]
 1711 00e0 1B68     		ldr	r3, [r3]
 1712 00e2 FA68     		ldr	r2, [r7, #12]
 1713 00e4 1268     		ldr	r2, [r2]
 1714 00e6 D268     		ldr	r2, [r2, #12]
 1715 00e8 42F48062 		orr	r2, r2, #1024
 1716 00ec DA60     		str	r2, [r3, #12]
 844:Drivers/STM32F4xx_HAL_Driver/Src/stm32f4xx_hal_tim.c ****     }
 845:Drivers/STM32F4xx_HAL_Driver/Src/stm32f4xx_hal_tim.c ****     break;
 1717              		.loc 1 845 0
 1718 00ee 36E0     		b	.L100
 1719              	.L98:
 846:Drivers/STM32F4xx_HAL_Driver/Src/stm32f4xx_hal_tim.c ****     
 847:Drivers/STM32F4xx_HAL_Driver/Src/stm32f4xx_hal_tim.c ****     case TIM_CHANNEL_3:
 848:Drivers/STM32F4xx_HAL_Driver/Src/stm32f4xx_hal_tim.c ****     {
 849:Drivers/STM32F4xx_HAL_Driver/Src/stm32f4xx_hal_tim.c ****       /* Set the DMA Period elapsed callback */
 850:Drivers/STM32F4xx_HAL_Driver/Src/stm32f4xx_hal_tim.c ****       htim->hdma[TIM_DMA_ID_CC3]->XferCpltCallback = TIM_DMADelayPulseCplt;
 1720              		.loc 1 850 0
 1721 00f0 FB68     		ldr	r3, [r7, #12]
 1722 00f2 9B6A     		ldr	r3, [r3, #40]
 1723 00f4 2F4A     		ldr	r2, .L106
 1724 00f6 DA63     		str	r2, [r3, #60]
 851:Drivers/STM32F4xx_HAL_Driver/Src/stm32f4xx_hal_tim.c ****      
 852:Drivers/STM32F4xx_HAL_Driver/Src/stm32f4xx_hal_tim.c ****       /* Set the DMA error callback */
 853:Drivers/STM32F4xx_HAL_Driver/Src/stm32f4xx_hal_tim.c ****       htim->hdma[TIM_DMA_ID_CC3]->XferErrorCallback = TIM_DMAError ;
 1725              		.loc 1 853 0
 1726 00f8 FB68     		ldr	r3, [r7, #12]
 1727 00fa 9B6A     		ldr	r3, [r3, #40]
 1728 00fc 2E4A     		ldr	r2, .L106+4
 1729 00fe DA64     		str	r2, [r3, #76]
 854:Drivers/STM32F4xx_HAL_Driver/Src/stm32f4xx_hal_tim.c ****       
 855:Drivers/STM32F4xx_HAL_Driver/Src/stm32f4xx_hal_tim.c ****       /* Enable the DMA Stream */
 856:Drivers/STM32F4xx_HAL_Driver/Src/stm32f4xx_hal_tim.c ****       HAL_DMA_Start_IT(htim->hdma[TIM_DMA_ID_CC3], (uint32_t)pData, (uint32_t)&htim->Instance->CCR3
 1730              		.loc 1 856 0
 1731 0100 FB68     		ldr	r3, [r7, #12]
 1732 0102 986A     		ldr	r0, [r3, #40]
 1733 0104 7968     		ldr	r1, [r7, #4]
 1734 0106 FB68     		ldr	r3, [r7, #12]
 1735 0108 1B68     		ldr	r3, [r3]
 1736 010a 3C33     		adds	r3, r3, #60
 1737 010c 1A46     		mov	r2, r3
 1738 010e 7B88     		ldrh	r3, [r7, #2]
 1739 0110 FFF7FEFF 		bl	HAL_DMA_Start_IT
 857:Drivers/STM32F4xx_HAL_Driver/Src/stm32f4xx_hal_tim.c ****       
 858:Drivers/STM32F4xx_HAL_Driver/Src/stm32f4xx_hal_tim.c ****       /* Enable the TIM Capture/Compare 3 DMA request */
 859:Drivers/STM32F4xx_HAL_Driver/Src/stm32f4xx_hal_tim.c ****       __HAL_TIM_ENABLE_DMA(htim, TIM_DMA_CC3);
 1740              		.loc 1 859 0
 1741 0114 FB68     		ldr	r3, [r7, #12]
 1742 0116 1B68     		ldr	r3, [r3]
 1743 0118 FA68     		ldr	r2, [r7, #12]
ARM GAS  /tmp/ccvK2xU6.s 			page 46


 1744 011a 1268     		ldr	r2, [r2]
 1745 011c D268     		ldr	r2, [r2, #12]
 1746 011e 42F40062 		orr	r2, r2, #2048
 1747 0122 DA60     		str	r2, [r3, #12]
 860:Drivers/STM32F4xx_HAL_Driver/Src/stm32f4xx_hal_tim.c ****     }
 861:Drivers/STM32F4xx_HAL_Driver/Src/stm32f4xx_hal_tim.c ****     break;
 1748              		.loc 1 861 0
 1749 0124 1BE0     		b	.L100
 1750              	.L99:
 862:Drivers/STM32F4xx_HAL_Driver/Src/stm32f4xx_hal_tim.c ****     
 863:Drivers/STM32F4xx_HAL_Driver/Src/stm32f4xx_hal_tim.c ****     case TIM_CHANNEL_4:
 864:Drivers/STM32F4xx_HAL_Driver/Src/stm32f4xx_hal_tim.c ****     {
 865:Drivers/STM32F4xx_HAL_Driver/Src/stm32f4xx_hal_tim.c ****      /* Set the DMA Period elapsed callback */
 866:Drivers/STM32F4xx_HAL_Driver/Src/stm32f4xx_hal_tim.c ****       htim->hdma[TIM_DMA_ID_CC4]->XferCpltCallback = TIM_DMADelayPulseCplt;
 1751              		.loc 1 866 0
 1752 0126 FB68     		ldr	r3, [r7, #12]
 1753 0128 DB6A     		ldr	r3, [r3, #44]
 1754 012a 224A     		ldr	r2, .L106
 1755 012c DA63     		str	r2, [r3, #60]
 867:Drivers/STM32F4xx_HAL_Driver/Src/stm32f4xx_hal_tim.c ****      
 868:Drivers/STM32F4xx_HAL_Driver/Src/stm32f4xx_hal_tim.c ****       /* Set the DMA error callback */
 869:Drivers/STM32F4xx_HAL_Driver/Src/stm32f4xx_hal_tim.c ****       htim->hdma[TIM_DMA_ID_CC4]->XferErrorCallback = TIM_DMAError ;
 1756              		.loc 1 869 0
 1757 012e FB68     		ldr	r3, [r7, #12]
 1758 0130 DB6A     		ldr	r3, [r3, #44]
 1759 0132 214A     		ldr	r2, .L106+4
 1760 0134 DA64     		str	r2, [r3, #76]
 870:Drivers/STM32F4xx_HAL_Driver/Src/stm32f4xx_hal_tim.c ****       
 871:Drivers/STM32F4xx_HAL_Driver/Src/stm32f4xx_hal_tim.c ****       /* Enable the DMA Stream */
 872:Drivers/STM32F4xx_HAL_Driver/Src/stm32f4xx_hal_tim.c ****       HAL_DMA_Start_IT(htim->hdma[TIM_DMA_ID_CC4], (uint32_t)pData, (uint32_t)&htim->Instance->CCR4
 1761              		.loc 1 872 0
 1762 0136 FB68     		ldr	r3, [r7, #12]
 1763 0138 D86A     		ldr	r0, [r3, #44]
 1764 013a 7968     		ldr	r1, [r7, #4]
 1765 013c FB68     		ldr	r3, [r7, #12]
 1766 013e 1B68     		ldr	r3, [r3]
 1767 0140 4033     		adds	r3, r3, #64
 1768 0142 1A46     		mov	r2, r3
 1769 0144 7B88     		ldrh	r3, [r7, #2]
 1770 0146 FFF7FEFF 		bl	HAL_DMA_Start_IT
 873:Drivers/STM32F4xx_HAL_Driver/Src/stm32f4xx_hal_tim.c ****       
 874:Drivers/STM32F4xx_HAL_Driver/Src/stm32f4xx_hal_tim.c ****       /* Enable the TIM Capture/Compare 4 DMA request */
 875:Drivers/STM32F4xx_HAL_Driver/Src/stm32f4xx_hal_tim.c ****       __HAL_TIM_ENABLE_DMA(htim, TIM_DMA_CC4);
 1771              		.loc 1 875 0
 1772 014a FB68     		ldr	r3, [r7, #12]
 1773 014c 1B68     		ldr	r3, [r3]
 1774 014e FA68     		ldr	r2, [r7, #12]
 1775 0150 1268     		ldr	r2, [r2]
 1776 0152 D268     		ldr	r2, [r2, #12]
 1777 0154 42F48052 		orr	r2, r2, #4096
 1778 0158 DA60     		str	r2, [r3, #12]
 876:Drivers/STM32F4xx_HAL_Driver/Src/stm32f4xx_hal_tim.c ****     }
 877:Drivers/STM32F4xx_HAL_Driver/Src/stm32f4xx_hal_tim.c ****     break;
 1779              		.loc 1 877 0
 1780 015a 00E0     		b	.L100
 1781              	.L105:
 878:Drivers/STM32F4xx_HAL_Driver/Src/stm32f4xx_hal_tim.c ****     
ARM GAS  /tmp/ccvK2xU6.s 			page 47


 879:Drivers/STM32F4xx_HAL_Driver/Src/stm32f4xx_hal_tim.c ****     default:
 880:Drivers/STM32F4xx_HAL_Driver/Src/stm32f4xx_hal_tim.c ****     break;
 1782              		.loc 1 880 0
 1783 015c 00BF     		nop
 1784              	.L100:
 881:Drivers/STM32F4xx_HAL_Driver/Src/stm32f4xx_hal_tim.c ****   }
 882:Drivers/STM32F4xx_HAL_Driver/Src/stm32f4xx_hal_tim.c **** 
 883:Drivers/STM32F4xx_HAL_Driver/Src/stm32f4xx_hal_tim.c ****   /* Enable the Output compare channel */
 884:Drivers/STM32F4xx_HAL_Driver/Src/stm32f4xx_hal_tim.c ****   TIM_CCxChannelCmd(htim->Instance, Channel, TIM_CCx_ENABLE);
 1785              		.loc 1 884 0
 1786 015e FB68     		ldr	r3, [r7, #12]
 1787 0160 1B68     		ldr	r3, [r3]
 1788 0162 0122     		movs	r2, #1
 1789 0164 B968     		ldr	r1, [r7, #8]
 1790 0166 1846     		mov	r0, r3
 1791 0168 FFF7FEFF 		bl	TIM_CCxChannelCmd
 885:Drivers/STM32F4xx_HAL_Driver/Src/stm32f4xx_hal_tim.c ****   
 886:Drivers/STM32F4xx_HAL_Driver/Src/stm32f4xx_hal_tim.c ****   if(IS_TIM_ADVANCED_INSTANCE(htim->Instance) != RESET)  
 1792              		.loc 1 886 0
 1793 016c FB68     		ldr	r3, [r7, #12]
 1794 016e 1B68     		ldr	r3, [r3]
 1795 0170 124A     		ldr	r2, .L106+8
 1796 0172 9342     		cmp	r3, r2
 1797 0174 04D0     		beq	.L101
 1798              		.loc 1 886 0 is_stmt 0 discriminator 2
 1799 0176 FB68     		ldr	r3, [r7, #12]
 1800 0178 1B68     		ldr	r3, [r3]
 1801 017a 114A     		ldr	r2, .L106+12
 1802 017c 9342     		cmp	r3, r2
 1803 017e 01D1     		bne	.L102
 1804              	.L101:
 1805              		.loc 1 886 0 discriminator 3
 1806 0180 0123     		movs	r3, #1
 1807 0182 00E0     		b	.L103
 1808              	.L102:
 1809              		.loc 1 886 0 discriminator 4
 1810 0184 0023     		movs	r3, #0
 1811              	.L103:
 1812              		.loc 1 886 0 discriminator 6
 1813 0186 002B     		cmp	r3, #0
 1814 0188 07D0     		beq	.L104
 887:Drivers/STM32F4xx_HAL_Driver/Src/stm32f4xx_hal_tim.c ****   {
 888:Drivers/STM32F4xx_HAL_Driver/Src/stm32f4xx_hal_tim.c ****     /* Enable the main output */
 889:Drivers/STM32F4xx_HAL_Driver/Src/stm32f4xx_hal_tim.c ****     __HAL_TIM_MOE_ENABLE(htim);
 1815              		.loc 1 889 0 is_stmt 1
 1816 018a FB68     		ldr	r3, [r7, #12]
 1817 018c 1B68     		ldr	r3, [r3]
 1818 018e FA68     		ldr	r2, [r7, #12]
 1819 0190 1268     		ldr	r2, [r2]
 1820 0192 526C     		ldr	r2, [r2, #68]
 1821 0194 42F40042 		orr	r2, r2, #32768
 1822 0198 5A64     		str	r2, [r3, #68]
 1823              	.L104:
 890:Drivers/STM32F4xx_HAL_Driver/Src/stm32f4xx_hal_tim.c ****   }  
 891:Drivers/STM32F4xx_HAL_Driver/Src/stm32f4xx_hal_tim.c ****   
 892:Drivers/STM32F4xx_HAL_Driver/Src/stm32f4xx_hal_tim.c ****   /* Enable the Peripheral */
 893:Drivers/STM32F4xx_HAL_Driver/Src/stm32f4xx_hal_tim.c ****   __HAL_TIM_ENABLE(htim); 
ARM GAS  /tmp/ccvK2xU6.s 			page 48


 1824              		.loc 1 893 0
 1825 019a FB68     		ldr	r3, [r7, #12]
 1826 019c 1B68     		ldr	r3, [r3]
 1827 019e FA68     		ldr	r2, [r7, #12]
 1828 01a0 1268     		ldr	r2, [r2]
 1829 01a2 1268     		ldr	r2, [r2]
 1830 01a4 42F00102 		orr	r2, r2, #1
 1831 01a8 1A60     		str	r2, [r3]
 894:Drivers/STM32F4xx_HAL_Driver/Src/stm32f4xx_hal_tim.c ****   
 895:Drivers/STM32F4xx_HAL_Driver/Src/stm32f4xx_hal_tim.c ****   /* Return function status */
 896:Drivers/STM32F4xx_HAL_Driver/Src/stm32f4xx_hal_tim.c ****   return HAL_OK;
 1832              		.loc 1 896 0
 1833 01aa 0023     		movs	r3, #0
 1834              	.L91:
 897:Drivers/STM32F4xx_HAL_Driver/Src/stm32f4xx_hal_tim.c **** }
 1835              		.loc 1 897 0
 1836 01ac 1846     		mov	r0, r3
 1837 01ae 1037     		adds	r7, r7, #16
 1838              	.LCFI102:
 1839              		.cfi_def_cfa_offset 8
 1840 01b0 BD46     		mov	sp, r7
 1841              	.LCFI103:
 1842              		.cfi_def_cfa_register 13
 1843              		@ sp needed
 1844 01b2 80BD     		pop	{r7, pc}
 1845              	.L107:
 1846              		.align	2
 1847              	.L106:
 1848 01b4 00000000 		.word	TIM_DMADelayPulseCplt
 1849 01b8 00000000 		.word	TIM_DMAError
 1850 01bc 00000140 		.word	1073807360
 1851 01c0 00040140 		.word	1073808384
 1852              		.cfi_endproc
 1853              	.LFE142:
 1855              		.section	.text.HAL_TIM_OC_Stop_DMA,"ax",%progbits
 1856              		.align	1
 1857              		.global	HAL_TIM_OC_Stop_DMA
 1858              		.syntax unified
 1859              		.thumb
 1860              		.thumb_func
 1861              		.fpu fpv4-sp-d16
 1863              	HAL_TIM_OC_Stop_DMA:
 1864              	.LFB143:
 898:Drivers/STM32F4xx_HAL_Driver/Src/stm32f4xx_hal_tim.c **** 
 899:Drivers/STM32F4xx_HAL_Driver/Src/stm32f4xx_hal_tim.c **** /**
 900:Drivers/STM32F4xx_HAL_Driver/Src/stm32f4xx_hal_tim.c ****   * @brief  Stops the TIM Output Compare signal generation in DMA mode.
 901:Drivers/STM32F4xx_HAL_Driver/Src/stm32f4xx_hal_tim.c ****   * @param  htim pointer to a TIM_HandleTypeDef structure that contains
 902:Drivers/STM32F4xx_HAL_Driver/Src/stm32f4xx_hal_tim.c ****   *                the configuration information for TIM module.
 903:Drivers/STM32F4xx_HAL_Driver/Src/stm32f4xx_hal_tim.c ****   * @param  Channel TIM Channel to be disabled.
 904:Drivers/STM32F4xx_HAL_Driver/Src/stm32f4xx_hal_tim.c ****   *          This parameter can be one of the following values:
 905:Drivers/STM32F4xx_HAL_Driver/Src/stm32f4xx_hal_tim.c ****   *            @arg TIM_CHANNEL_1: TIM Channel 1 selected
 906:Drivers/STM32F4xx_HAL_Driver/Src/stm32f4xx_hal_tim.c ****   *            @arg TIM_CHANNEL_2: TIM Channel 2 selected
 907:Drivers/STM32F4xx_HAL_Driver/Src/stm32f4xx_hal_tim.c ****   *            @arg TIM_CHANNEL_3: TIM Channel 3 selected
 908:Drivers/STM32F4xx_HAL_Driver/Src/stm32f4xx_hal_tim.c ****   *            @arg TIM_CHANNEL_4: TIM Channel 4 selected
 909:Drivers/STM32F4xx_HAL_Driver/Src/stm32f4xx_hal_tim.c ****   * @retval HAL status
 910:Drivers/STM32F4xx_HAL_Driver/Src/stm32f4xx_hal_tim.c ****   */
 911:Drivers/STM32F4xx_HAL_Driver/Src/stm32f4xx_hal_tim.c **** HAL_StatusTypeDef HAL_TIM_OC_Stop_DMA(TIM_HandleTypeDef *htim, uint32_t Channel)
ARM GAS  /tmp/ccvK2xU6.s 			page 49


 912:Drivers/STM32F4xx_HAL_Driver/Src/stm32f4xx_hal_tim.c **** {
 1865              		.loc 1 912 0
 1866              		.cfi_startproc
 1867              		@ args = 0, pretend = 0, frame = 8
 1868              		@ frame_needed = 1, uses_anonymous_args = 0
 1869 0000 80B5     		push	{r7, lr}
 1870              	.LCFI104:
 1871              		.cfi_def_cfa_offset 8
 1872              		.cfi_offset 7, -8
 1873              		.cfi_offset 14, -4
 1874 0002 82B0     		sub	sp, sp, #8
 1875              	.LCFI105:
 1876              		.cfi_def_cfa_offset 16
 1877 0004 00AF     		add	r7, sp, #0
 1878              	.LCFI106:
 1879              		.cfi_def_cfa_register 7
 1880 0006 7860     		str	r0, [r7, #4]
 1881 0008 3960     		str	r1, [r7]
 913:Drivers/STM32F4xx_HAL_Driver/Src/stm32f4xx_hal_tim.c ****   /* Check the parameters */
 914:Drivers/STM32F4xx_HAL_Driver/Src/stm32f4xx_hal_tim.c ****   assert_param(IS_TIM_CCX_INSTANCE(htim->Instance, Channel));
 915:Drivers/STM32F4xx_HAL_Driver/Src/stm32f4xx_hal_tim.c ****   
 916:Drivers/STM32F4xx_HAL_Driver/Src/stm32f4xx_hal_tim.c ****   switch (Channel)
 1882              		.loc 1 916 0
 1883 000a 3B68     		ldr	r3, [r7]
 1884 000c 0C2B     		cmp	r3, #12
 1885 000e 41D8     		bhi	.L122
 1886 0010 01A2     		adr	r2, .L111
 1887 0012 52F823F0 		ldr	pc, [r2, r3, lsl #2]
 1888 0016 00BF     		.p2align 2
 1889              	.L111:
 1890 0018 4D000000 		.word	.L110+1
 1891 001c 95000000 		.word	.L122+1
 1892 0020 95000000 		.word	.L122+1
 1893 0024 95000000 		.word	.L122+1
 1894 0028 5F000000 		.word	.L112+1
 1895 002c 95000000 		.word	.L122+1
 1896 0030 95000000 		.word	.L122+1
 1897 0034 95000000 		.word	.L122+1
 1898 0038 71000000 		.word	.L113+1
 1899 003c 95000000 		.word	.L122+1
 1900 0040 95000000 		.word	.L122+1
 1901 0044 95000000 		.word	.L122+1
 1902 0048 83000000 		.word	.L114+1
 1903              		.p2align 1
 1904              	.L110:
 917:Drivers/STM32F4xx_HAL_Driver/Src/stm32f4xx_hal_tim.c ****   {
 918:Drivers/STM32F4xx_HAL_Driver/Src/stm32f4xx_hal_tim.c ****     case TIM_CHANNEL_1:
 919:Drivers/STM32F4xx_HAL_Driver/Src/stm32f4xx_hal_tim.c ****     {       
 920:Drivers/STM32F4xx_HAL_Driver/Src/stm32f4xx_hal_tim.c ****       /* Disable the TIM Capture/Compare 1 DMA request */
 921:Drivers/STM32F4xx_HAL_Driver/Src/stm32f4xx_hal_tim.c ****       __HAL_TIM_DISABLE_DMA(htim, TIM_DMA_CC1);
 1905              		.loc 1 921 0
 1906 004c 7B68     		ldr	r3, [r7, #4]
 1907 004e 1B68     		ldr	r3, [r3]
 1908 0050 7A68     		ldr	r2, [r7, #4]
 1909 0052 1268     		ldr	r2, [r2]
 1910 0054 D268     		ldr	r2, [r2, #12]
 1911 0056 22F40072 		bic	r2, r2, #512
ARM GAS  /tmp/ccvK2xU6.s 			page 50


 1912 005a DA60     		str	r2, [r3, #12]
 922:Drivers/STM32F4xx_HAL_Driver/Src/stm32f4xx_hal_tim.c ****     }
 923:Drivers/STM32F4xx_HAL_Driver/Src/stm32f4xx_hal_tim.c ****     break;
 1913              		.loc 1 923 0
 1914 005c 1BE0     		b	.L115
 1915              	.L112:
 924:Drivers/STM32F4xx_HAL_Driver/Src/stm32f4xx_hal_tim.c ****     
 925:Drivers/STM32F4xx_HAL_Driver/Src/stm32f4xx_hal_tim.c ****     case TIM_CHANNEL_2:
 926:Drivers/STM32F4xx_HAL_Driver/Src/stm32f4xx_hal_tim.c ****     {
 927:Drivers/STM32F4xx_HAL_Driver/Src/stm32f4xx_hal_tim.c ****       /* Disable the TIM Capture/Compare 2 DMA request */
 928:Drivers/STM32F4xx_HAL_Driver/Src/stm32f4xx_hal_tim.c ****       __HAL_TIM_DISABLE_DMA(htim, TIM_DMA_CC2);
 1916              		.loc 1 928 0
 1917 005e 7B68     		ldr	r3, [r7, #4]
 1918 0060 1B68     		ldr	r3, [r3]
 1919 0062 7A68     		ldr	r2, [r7, #4]
 1920 0064 1268     		ldr	r2, [r2]
 1921 0066 D268     		ldr	r2, [r2, #12]
 1922 0068 22F48062 		bic	r2, r2, #1024
 1923 006c DA60     		str	r2, [r3, #12]
 929:Drivers/STM32F4xx_HAL_Driver/Src/stm32f4xx_hal_tim.c ****     }
 930:Drivers/STM32F4xx_HAL_Driver/Src/stm32f4xx_hal_tim.c ****     break;
 1924              		.loc 1 930 0
 1925 006e 12E0     		b	.L115
 1926              	.L113:
 931:Drivers/STM32F4xx_HAL_Driver/Src/stm32f4xx_hal_tim.c ****     
 932:Drivers/STM32F4xx_HAL_Driver/Src/stm32f4xx_hal_tim.c ****     case TIM_CHANNEL_3:
 933:Drivers/STM32F4xx_HAL_Driver/Src/stm32f4xx_hal_tim.c ****     {
 934:Drivers/STM32F4xx_HAL_Driver/Src/stm32f4xx_hal_tim.c ****       /* Disable the TIM Capture/Compare 3 DMA request */
 935:Drivers/STM32F4xx_HAL_Driver/Src/stm32f4xx_hal_tim.c ****       __HAL_TIM_DISABLE_DMA(htim, TIM_DMA_CC3);
 1927              		.loc 1 935 0
 1928 0070 7B68     		ldr	r3, [r7, #4]
 1929 0072 1B68     		ldr	r3, [r3]
 1930 0074 7A68     		ldr	r2, [r7, #4]
 1931 0076 1268     		ldr	r2, [r2]
 1932 0078 D268     		ldr	r2, [r2, #12]
 1933 007a 22F40062 		bic	r2, r2, #2048
 1934 007e DA60     		str	r2, [r3, #12]
 936:Drivers/STM32F4xx_HAL_Driver/Src/stm32f4xx_hal_tim.c ****     }
 937:Drivers/STM32F4xx_HAL_Driver/Src/stm32f4xx_hal_tim.c ****     break;
 1935              		.loc 1 937 0
 1936 0080 09E0     		b	.L115
 1937              	.L114:
 938:Drivers/STM32F4xx_HAL_Driver/Src/stm32f4xx_hal_tim.c ****     
 939:Drivers/STM32F4xx_HAL_Driver/Src/stm32f4xx_hal_tim.c ****     case TIM_CHANNEL_4:
 940:Drivers/STM32F4xx_HAL_Driver/Src/stm32f4xx_hal_tim.c ****     {
 941:Drivers/STM32F4xx_HAL_Driver/Src/stm32f4xx_hal_tim.c ****       /* Disable the TIM Capture/Compare 4 interrupt */
 942:Drivers/STM32F4xx_HAL_Driver/Src/stm32f4xx_hal_tim.c ****       __HAL_TIM_DISABLE_DMA(htim, TIM_DMA_CC4);
 1938              		.loc 1 942 0
 1939 0082 7B68     		ldr	r3, [r7, #4]
 1940 0084 1B68     		ldr	r3, [r3]
 1941 0086 7A68     		ldr	r2, [r7, #4]
 1942 0088 1268     		ldr	r2, [r2]
 1943 008a D268     		ldr	r2, [r2, #12]
 1944 008c 22F48052 		bic	r2, r2, #4096
 1945 0090 DA60     		str	r2, [r3, #12]
 943:Drivers/STM32F4xx_HAL_Driver/Src/stm32f4xx_hal_tim.c ****     }
 944:Drivers/STM32F4xx_HAL_Driver/Src/stm32f4xx_hal_tim.c ****     break;
ARM GAS  /tmp/ccvK2xU6.s 			page 51


 1946              		.loc 1 944 0
 1947 0092 00E0     		b	.L115
 1948              	.L122:
 945:Drivers/STM32F4xx_HAL_Driver/Src/stm32f4xx_hal_tim.c ****     
 946:Drivers/STM32F4xx_HAL_Driver/Src/stm32f4xx_hal_tim.c ****     default:
 947:Drivers/STM32F4xx_HAL_Driver/Src/stm32f4xx_hal_tim.c ****     break;
 1949              		.loc 1 947 0
 1950 0094 00BF     		nop
 1951              	.L115:
 948:Drivers/STM32F4xx_HAL_Driver/Src/stm32f4xx_hal_tim.c ****   } 
 949:Drivers/STM32F4xx_HAL_Driver/Src/stm32f4xx_hal_tim.c ****   
 950:Drivers/STM32F4xx_HAL_Driver/Src/stm32f4xx_hal_tim.c ****   /* Disable the Output compare channel */
 951:Drivers/STM32F4xx_HAL_Driver/Src/stm32f4xx_hal_tim.c ****   TIM_CCxChannelCmd(htim->Instance, Channel, TIM_CCx_DISABLE);
 1952              		.loc 1 951 0
 1953 0096 7B68     		ldr	r3, [r7, #4]
 1954 0098 1B68     		ldr	r3, [r3]
 1955 009a 0022     		movs	r2, #0
 1956 009c 3968     		ldr	r1, [r7]
 1957 009e 1846     		mov	r0, r3
 1958 00a0 FFF7FEFF 		bl	TIM_CCxChannelCmd
 952:Drivers/STM32F4xx_HAL_Driver/Src/stm32f4xx_hal_tim.c ****   
 953:Drivers/STM32F4xx_HAL_Driver/Src/stm32f4xx_hal_tim.c ****   if(IS_TIM_ADVANCED_INSTANCE(htim->Instance) != RESET)  
 1959              		.loc 1 953 0
 1960 00a4 7B68     		ldr	r3, [r7, #4]
 1961 00a6 1B68     		ldr	r3, [r3]
 1962 00a8 224A     		ldr	r2, .L123
 1963 00aa 9342     		cmp	r3, r2
 1964 00ac 04D0     		beq	.L116
 1965              		.loc 1 953 0 is_stmt 0 discriminator 2
 1966 00ae 7B68     		ldr	r3, [r7, #4]
 1967 00b0 1B68     		ldr	r3, [r3]
 1968 00b2 214A     		ldr	r2, .L123+4
 1969 00b4 9342     		cmp	r3, r2
 1970 00b6 01D1     		bne	.L117
 1971              	.L116:
 1972              		.loc 1 953 0 discriminator 3
 1973 00b8 0123     		movs	r3, #1
 1974 00ba 00E0     		b	.L118
 1975              	.L117:
 1976              		.loc 1 953 0 discriminator 4
 1977 00bc 0023     		movs	r3, #0
 1978              	.L118:
 1979              		.loc 1 953 0 discriminator 6
 1980 00be 002B     		cmp	r3, #0
 1981 00c0 17D0     		beq	.L119
 954:Drivers/STM32F4xx_HAL_Driver/Src/stm32f4xx_hal_tim.c ****   {
 955:Drivers/STM32F4xx_HAL_Driver/Src/stm32f4xx_hal_tim.c ****     /* Disable the Main Output */
 956:Drivers/STM32F4xx_HAL_Driver/Src/stm32f4xx_hal_tim.c ****     __HAL_TIM_MOE_DISABLE(htim);
 1982              		.loc 1 956 0 is_stmt 1
 1983 00c2 7B68     		ldr	r3, [r7, #4]
 1984 00c4 1B68     		ldr	r3, [r3]
 1985 00c6 1A6A     		ldr	r2, [r3, #32]
 1986 00c8 41F21113 		movw	r3, #4369
 1987 00cc 1340     		ands	r3, r3, r2
 1988 00ce 002B     		cmp	r3, #0
 1989 00d0 0FD1     		bne	.L119
 1990              		.loc 1 956 0 is_stmt 0 discriminator 1
ARM GAS  /tmp/ccvK2xU6.s 			page 52


 1991 00d2 7B68     		ldr	r3, [r7, #4]
 1992 00d4 1B68     		ldr	r3, [r3]
 1993 00d6 1A6A     		ldr	r2, [r3, #32]
 1994 00d8 40F24443 		movw	r3, #1092
 1995 00dc 1340     		ands	r3, r3, r2
 1996 00de 002B     		cmp	r3, #0
 1997 00e0 07D1     		bne	.L119
 1998              		.loc 1 956 0 discriminator 2
 1999 00e2 7B68     		ldr	r3, [r7, #4]
 2000 00e4 1B68     		ldr	r3, [r3]
 2001 00e6 7A68     		ldr	r2, [r7, #4]
 2002 00e8 1268     		ldr	r2, [r2]
 2003 00ea 526C     		ldr	r2, [r2, #68]
 2004 00ec 22F40042 		bic	r2, r2, #32768
 2005 00f0 5A64     		str	r2, [r3, #68]
 2006              	.L119:
 957:Drivers/STM32F4xx_HAL_Driver/Src/stm32f4xx_hal_tim.c ****   }
 958:Drivers/STM32F4xx_HAL_Driver/Src/stm32f4xx_hal_tim.c ****   
 959:Drivers/STM32F4xx_HAL_Driver/Src/stm32f4xx_hal_tim.c ****   /* Disable the Peripheral */
 960:Drivers/STM32F4xx_HAL_Driver/Src/stm32f4xx_hal_tim.c ****   __HAL_TIM_DISABLE(htim);
 2007              		.loc 1 960 0 is_stmt 1
 2008 00f2 7B68     		ldr	r3, [r7, #4]
 2009 00f4 1B68     		ldr	r3, [r3]
 2010 00f6 1A6A     		ldr	r2, [r3, #32]
 2011 00f8 41F21113 		movw	r3, #4369
 2012 00fc 1340     		ands	r3, r3, r2
 2013 00fe 002B     		cmp	r3, #0
 2014 0100 0FD1     		bne	.L120
 2015              		.loc 1 960 0 is_stmt 0 discriminator 1
 2016 0102 7B68     		ldr	r3, [r7, #4]
 2017 0104 1B68     		ldr	r3, [r3]
 2018 0106 1A6A     		ldr	r2, [r3, #32]
 2019 0108 40F24443 		movw	r3, #1092
 2020 010c 1340     		ands	r3, r3, r2
 2021 010e 002B     		cmp	r3, #0
 2022 0110 07D1     		bne	.L120
 2023              		.loc 1 960 0 discriminator 2
 2024 0112 7B68     		ldr	r3, [r7, #4]
 2025 0114 1B68     		ldr	r3, [r3]
 2026 0116 7A68     		ldr	r2, [r7, #4]
 2027 0118 1268     		ldr	r2, [r2]
 2028 011a 1268     		ldr	r2, [r2]
 2029 011c 22F00102 		bic	r2, r2, #1
 2030 0120 1A60     		str	r2, [r3]
 2031              	.L120:
 961:Drivers/STM32F4xx_HAL_Driver/Src/stm32f4xx_hal_tim.c ****   
 962:Drivers/STM32F4xx_HAL_Driver/Src/stm32f4xx_hal_tim.c ****   /* Change the htim state */
 963:Drivers/STM32F4xx_HAL_Driver/Src/stm32f4xx_hal_tim.c ****   htim->State = HAL_TIM_STATE_READY;
 2032              		.loc 1 963 0 is_stmt 1
 2033 0122 7B68     		ldr	r3, [r7, #4]
 2034 0124 0122     		movs	r2, #1
 2035 0126 83F83920 		strb	r2, [r3, #57]
 964:Drivers/STM32F4xx_HAL_Driver/Src/stm32f4xx_hal_tim.c ****   
 965:Drivers/STM32F4xx_HAL_Driver/Src/stm32f4xx_hal_tim.c ****   /* Return function status */
 966:Drivers/STM32F4xx_HAL_Driver/Src/stm32f4xx_hal_tim.c ****   return HAL_OK;
 2036              		.loc 1 966 0
 2037 012a 0023     		movs	r3, #0
ARM GAS  /tmp/ccvK2xU6.s 			page 53


 967:Drivers/STM32F4xx_HAL_Driver/Src/stm32f4xx_hal_tim.c **** }
 2038              		.loc 1 967 0
 2039 012c 1846     		mov	r0, r3
 2040 012e 0837     		adds	r7, r7, #8
 2041              	.LCFI107:
 2042              		.cfi_def_cfa_offset 8
 2043 0130 BD46     		mov	sp, r7
 2044              	.LCFI108:
 2045              		.cfi_def_cfa_register 13
 2046              		@ sp needed
 2047 0132 80BD     		pop	{r7, pc}
 2048              	.L124:
 2049              		.align	2
 2050              	.L123:
 2051 0134 00000140 		.word	1073807360
 2052 0138 00040140 		.word	1073808384
 2053              		.cfi_endproc
 2054              	.LFE143:
 2056              		.section	.text.HAL_TIM_PWM_Init,"ax",%progbits
 2057              		.align	1
 2058              		.global	HAL_TIM_PWM_Init
 2059              		.syntax unified
 2060              		.thumb
 2061              		.thumb_func
 2062              		.fpu fpv4-sp-d16
 2064              	HAL_TIM_PWM_Init:
 2065              	.LFB144:
 968:Drivers/STM32F4xx_HAL_Driver/Src/stm32f4xx_hal_tim.c **** /**
 969:Drivers/STM32F4xx_HAL_Driver/Src/stm32f4xx_hal_tim.c ****   * @}
 970:Drivers/STM32F4xx_HAL_Driver/Src/stm32f4xx_hal_tim.c ****   */
 971:Drivers/STM32F4xx_HAL_Driver/Src/stm32f4xx_hal_tim.c **** 
 972:Drivers/STM32F4xx_HAL_Driver/Src/stm32f4xx_hal_tim.c **** /** @defgroup TIM_Exported_Functions_Group3 Time PWM functions 
 973:Drivers/STM32F4xx_HAL_Driver/Src/stm32f4xx_hal_tim.c ****  *  @brief    Time PWM functions 
 974:Drivers/STM32F4xx_HAL_Driver/Src/stm32f4xx_hal_tim.c ****  *
 975:Drivers/STM32F4xx_HAL_Driver/Src/stm32f4xx_hal_tim.c **** @verbatim    
 976:Drivers/STM32F4xx_HAL_Driver/Src/stm32f4xx_hal_tim.c ****   ==============================================================================
 977:Drivers/STM32F4xx_HAL_Driver/Src/stm32f4xx_hal_tim.c ****                           ##### Time PWM functions #####
 978:Drivers/STM32F4xx_HAL_Driver/Src/stm32f4xx_hal_tim.c ****   ==============================================================================
 979:Drivers/STM32F4xx_HAL_Driver/Src/stm32f4xx_hal_tim.c ****   [..]  
 980:Drivers/STM32F4xx_HAL_Driver/Src/stm32f4xx_hal_tim.c ****     This section provides functions allowing to:
 981:Drivers/STM32F4xx_HAL_Driver/Src/stm32f4xx_hal_tim.c ****     (+) Initialize and configure the TIM OPWM. 
 982:Drivers/STM32F4xx_HAL_Driver/Src/stm32f4xx_hal_tim.c ****     (+) De-initialize the TIM PWM.
 983:Drivers/STM32F4xx_HAL_Driver/Src/stm32f4xx_hal_tim.c ****     (+) Start the Time PWM.
 984:Drivers/STM32F4xx_HAL_Driver/Src/stm32f4xx_hal_tim.c ****     (+) Stop the Time PWM.
 985:Drivers/STM32F4xx_HAL_Driver/Src/stm32f4xx_hal_tim.c ****     (+) Start the Time PWM and enable interrupt.
 986:Drivers/STM32F4xx_HAL_Driver/Src/stm32f4xx_hal_tim.c ****     (+) Stop the Time PWM and disable interrupt.
 987:Drivers/STM32F4xx_HAL_Driver/Src/stm32f4xx_hal_tim.c ****     (+) Start the Time PWM and enable DMA transfer.
 988:Drivers/STM32F4xx_HAL_Driver/Src/stm32f4xx_hal_tim.c ****     (+) Stop the Time PWM and disable DMA transfer.
 989:Drivers/STM32F4xx_HAL_Driver/Src/stm32f4xx_hal_tim.c ****  
 990:Drivers/STM32F4xx_HAL_Driver/Src/stm32f4xx_hal_tim.c **** @endverbatim
 991:Drivers/STM32F4xx_HAL_Driver/Src/stm32f4xx_hal_tim.c ****   * @{
 992:Drivers/STM32F4xx_HAL_Driver/Src/stm32f4xx_hal_tim.c ****   */
 993:Drivers/STM32F4xx_HAL_Driver/Src/stm32f4xx_hal_tim.c **** /**
 994:Drivers/STM32F4xx_HAL_Driver/Src/stm32f4xx_hal_tim.c ****   * @brief  Initializes the TIM PWM Time Base according to the specified
 995:Drivers/STM32F4xx_HAL_Driver/Src/stm32f4xx_hal_tim.c ****   *         parameters in the TIM_HandleTypeDef and create the associated handle.
 996:Drivers/STM32F4xx_HAL_Driver/Src/stm32f4xx_hal_tim.c ****   * @param  htim pointer to a TIM_HandleTypeDef structure that contains
 997:Drivers/STM32F4xx_HAL_Driver/Src/stm32f4xx_hal_tim.c ****   *                the configuration information for TIM module.
ARM GAS  /tmp/ccvK2xU6.s 			page 54


 998:Drivers/STM32F4xx_HAL_Driver/Src/stm32f4xx_hal_tim.c ****   * @retval HAL status
 999:Drivers/STM32F4xx_HAL_Driver/Src/stm32f4xx_hal_tim.c ****   */
1000:Drivers/STM32F4xx_HAL_Driver/Src/stm32f4xx_hal_tim.c **** HAL_StatusTypeDef HAL_TIM_PWM_Init(TIM_HandleTypeDef *htim)
1001:Drivers/STM32F4xx_HAL_Driver/Src/stm32f4xx_hal_tim.c **** {
 2066              		.loc 1 1001 0
 2067              		.cfi_startproc
 2068              		@ args = 0, pretend = 0, frame = 8
 2069              		@ frame_needed = 1, uses_anonymous_args = 0
 2070 0000 80B5     		push	{r7, lr}
 2071              	.LCFI109:
 2072              		.cfi_def_cfa_offset 8
 2073              		.cfi_offset 7, -8
 2074              		.cfi_offset 14, -4
 2075 0002 82B0     		sub	sp, sp, #8
 2076              	.LCFI110:
 2077              		.cfi_def_cfa_offset 16
 2078 0004 00AF     		add	r7, sp, #0
 2079              	.LCFI111:
 2080              		.cfi_def_cfa_register 7
 2081 0006 7860     		str	r0, [r7, #4]
1002:Drivers/STM32F4xx_HAL_Driver/Src/stm32f4xx_hal_tim.c ****   /* Check the TIM handle allocation */
1003:Drivers/STM32F4xx_HAL_Driver/Src/stm32f4xx_hal_tim.c ****   if(htim == NULL)
 2082              		.loc 1 1003 0
 2083 0008 7B68     		ldr	r3, [r7, #4]
 2084 000a 002B     		cmp	r3, #0
 2085 000c 01D1     		bne	.L126
1004:Drivers/STM32F4xx_HAL_Driver/Src/stm32f4xx_hal_tim.c ****   {
1005:Drivers/STM32F4xx_HAL_Driver/Src/stm32f4xx_hal_tim.c ****     return HAL_ERROR;
 2086              		.loc 1 1005 0
 2087 000e 0123     		movs	r3, #1
 2088 0010 1DE0     		b	.L127
 2089              	.L126:
1006:Drivers/STM32F4xx_HAL_Driver/Src/stm32f4xx_hal_tim.c ****   }
1007:Drivers/STM32F4xx_HAL_Driver/Src/stm32f4xx_hal_tim.c **** 
1008:Drivers/STM32F4xx_HAL_Driver/Src/stm32f4xx_hal_tim.c ****   /* Check the parameters */
1009:Drivers/STM32F4xx_HAL_Driver/Src/stm32f4xx_hal_tim.c ****   assert_param(IS_TIM_INSTANCE(htim->Instance));
1010:Drivers/STM32F4xx_HAL_Driver/Src/stm32f4xx_hal_tim.c ****   assert_param(IS_TIM_COUNTER_MODE(htim->Init.CounterMode));
1011:Drivers/STM32F4xx_HAL_Driver/Src/stm32f4xx_hal_tim.c ****   assert_param(IS_TIM_CLOCKDIVISION_DIV(htim->Init.ClockDivision));
1012:Drivers/STM32F4xx_HAL_Driver/Src/stm32f4xx_hal_tim.c **** 
1013:Drivers/STM32F4xx_HAL_Driver/Src/stm32f4xx_hal_tim.c ****   if(htim->State == HAL_TIM_STATE_RESET)
 2090              		.loc 1 1013 0
 2091 0012 7B68     		ldr	r3, [r7, #4]
 2092 0014 93F83930 		ldrb	r3, [r3, #57]
 2093 0018 DBB2     		uxtb	r3, r3
 2094 001a 002B     		cmp	r3, #0
 2095 001c 06D1     		bne	.L128
1014:Drivers/STM32F4xx_HAL_Driver/Src/stm32f4xx_hal_tim.c ****   {
1015:Drivers/STM32F4xx_HAL_Driver/Src/stm32f4xx_hal_tim.c ****     /* Allocate lock resource and initialize it */
1016:Drivers/STM32F4xx_HAL_Driver/Src/stm32f4xx_hal_tim.c ****     htim->Lock = HAL_UNLOCKED;
 2096              		.loc 1 1016 0
 2097 001e 7B68     		ldr	r3, [r7, #4]
 2098 0020 0022     		movs	r2, #0
 2099 0022 83F83820 		strb	r2, [r3, #56]
1017:Drivers/STM32F4xx_HAL_Driver/Src/stm32f4xx_hal_tim.c ****     /* Init the low level hardware : GPIO, CLOCK, NVIC and DMA */
1018:Drivers/STM32F4xx_HAL_Driver/Src/stm32f4xx_hal_tim.c ****     HAL_TIM_PWM_MspInit(htim);
 2100              		.loc 1 1018 0
 2101 0026 7868     		ldr	r0, [r7, #4]
ARM GAS  /tmp/ccvK2xU6.s 			page 55


 2102 0028 FFF7FEFF 		bl	HAL_TIM_PWM_MspInit
 2103              	.L128:
1019:Drivers/STM32F4xx_HAL_Driver/Src/stm32f4xx_hal_tim.c ****   }
1020:Drivers/STM32F4xx_HAL_Driver/Src/stm32f4xx_hal_tim.c **** 
1021:Drivers/STM32F4xx_HAL_Driver/Src/stm32f4xx_hal_tim.c ****   /* Set the TIM state */
1022:Drivers/STM32F4xx_HAL_Driver/Src/stm32f4xx_hal_tim.c ****   htim->State= HAL_TIM_STATE_BUSY;  
 2104              		.loc 1 1022 0
 2105 002c 7B68     		ldr	r3, [r7, #4]
 2106 002e 0222     		movs	r2, #2
 2107 0030 83F83920 		strb	r2, [r3, #57]
1023:Drivers/STM32F4xx_HAL_Driver/Src/stm32f4xx_hal_tim.c ****   
1024:Drivers/STM32F4xx_HAL_Driver/Src/stm32f4xx_hal_tim.c ****   /* Init the base time for the PWM */  
1025:Drivers/STM32F4xx_HAL_Driver/Src/stm32f4xx_hal_tim.c ****   TIM_Base_SetConfig(htim->Instance, &htim->Init); 
 2108              		.loc 1 1025 0
 2109 0034 7B68     		ldr	r3, [r7, #4]
 2110 0036 1A68     		ldr	r2, [r3]
 2111 0038 7B68     		ldr	r3, [r7, #4]
 2112 003a 0433     		adds	r3, r3, #4
 2113 003c 1946     		mov	r1, r3
 2114 003e 1046     		mov	r0, r2
 2115 0040 FFF7FEFF 		bl	TIM_Base_SetConfig
1026:Drivers/STM32F4xx_HAL_Driver/Src/stm32f4xx_hal_tim.c ****    
1027:Drivers/STM32F4xx_HAL_Driver/Src/stm32f4xx_hal_tim.c ****   /* Initialize the TIM state*/
1028:Drivers/STM32F4xx_HAL_Driver/Src/stm32f4xx_hal_tim.c ****   htim->State= HAL_TIM_STATE_READY;
 2116              		.loc 1 1028 0
 2117 0044 7B68     		ldr	r3, [r7, #4]
 2118 0046 0122     		movs	r2, #1
 2119 0048 83F83920 		strb	r2, [r3, #57]
1029:Drivers/STM32F4xx_HAL_Driver/Src/stm32f4xx_hal_tim.c ****   
1030:Drivers/STM32F4xx_HAL_Driver/Src/stm32f4xx_hal_tim.c ****   return HAL_OK;
 2120              		.loc 1 1030 0
 2121 004c 0023     		movs	r3, #0
 2122              	.L127:
1031:Drivers/STM32F4xx_HAL_Driver/Src/stm32f4xx_hal_tim.c **** }  
 2123              		.loc 1 1031 0
 2124 004e 1846     		mov	r0, r3
 2125 0050 0837     		adds	r7, r7, #8
 2126              	.LCFI112:
 2127              		.cfi_def_cfa_offset 8
 2128 0052 BD46     		mov	sp, r7
 2129              	.LCFI113:
 2130              		.cfi_def_cfa_register 13
 2131              		@ sp needed
 2132 0054 80BD     		pop	{r7, pc}
 2133              		.cfi_endproc
 2134              	.LFE144:
 2136              		.section	.text.HAL_TIM_PWM_DeInit,"ax",%progbits
 2137              		.align	1
 2138              		.global	HAL_TIM_PWM_DeInit
 2139              		.syntax unified
 2140              		.thumb
 2141              		.thumb_func
 2142              		.fpu fpv4-sp-d16
 2144              	HAL_TIM_PWM_DeInit:
 2145              	.LFB145:
1032:Drivers/STM32F4xx_HAL_Driver/Src/stm32f4xx_hal_tim.c **** 
1033:Drivers/STM32F4xx_HAL_Driver/Src/stm32f4xx_hal_tim.c **** /**
ARM GAS  /tmp/ccvK2xU6.s 			page 56


1034:Drivers/STM32F4xx_HAL_Driver/Src/stm32f4xx_hal_tim.c ****   * @brief  DeInitializes the TIM peripheral 
1035:Drivers/STM32F4xx_HAL_Driver/Src/stm32f4xx_hal_tim.c ****   * @param  htim pointer to a TIM_HandleTypeDef structure that contains
1036:Drivers/STM32F4xx_HAL_Driver/Src/stm32f4xx_hal_tim.c ****   *                the configuration information for TIM module.
1037:Drivers/STM32F4xx_HAL_Driver/Src/stm32f4xx_hal_tim.c ****   * @retval HAL status
1038:Drivers/STM32F4xx_HAL_Driver/Src/stm32f4xx_hal_tim.c ****   */
1039:Drivers/STM32F4xx_HAL_Driver/Src/stm32f4xx_hal_tim.c **** HAL_StatusTypeDef HAL_TIM_PWM_DeInit(TIM_HandleTypeDef *htim)
1040:Drivers/STM32F4xx_HAL_Driver/Src/stm32f4xx_hal_tim.c **** {
 2146              		.loc 1 1040 0
 2147              		.cfi_startproc
 2148              		@ args = 0, pretend = 0, frame = 8
 2149              		@ frame_needed = 1, uses_anonymous_args = 0
 2150 0000 80B5     		push	{r7, lr}
 2151              	.LCFI114:
 2152              		.cfi_def_cfa_offset 8
 2153              		.cfi_offset 7, -8
 2154              		.cfi_offset 14, -4
 2155 0002 82B0     		sub	sp, sp, #8
 2156              	.LCFI115:
 2157              		.cfi_def_cfa_offset 16
 2158 0004 00AF     		add	r7, sp, #0
 2159              	.LCFI116:
 2160              		.cfi_def_cfa_register 7
 2161 0006 7860     		str	r0, [r7, #4]
1041:Drivers/STM32F4xx_HAL_Driver/Src/stm32f4xx_hal_tim.c ****   /* Check the parameters */
1042:Drivers/STM32F4xx_HAL_Driver/Src/stm32f4xx_hal_tim.c ****   assert_param(IS_TIM_INSTANCE(htim->Instance));
1043:Drivers/STM32F4xx_HAL_Driver/Src/stm32f4xx_hal_tim.c ****   
1044:Drivers/STM32F4xx_HAL_Driver/Src/stm32f4xx_hal_tim.c ****   htim->State = HAL_TIM_STATE_BUSY;
 2162              		.loc 1 1044 0
 2163 0008 7B68     		ldr	r3, [r7, #4]
 2164 000a 0222     		movs	r2, #2
 2165 000c 83F83920 		strb	r2, [r3, #57]
1045:Drivers/STM32F4xx_HAL_Driver/Src/stm32f4xx_hal_tim.c ****   
1046:Drivers/STM32F4xx_HAL_Driver/Src/stm32f4xx_hal_tim.c ****   /* Disable the TIM Peripheral Clock */
1047:Drivers/STM32F4xx_HAL_Driver/Src/stm32f4xx_hal_tim.c ****   __HAL_TIM_DISABLE(htim);
 2166              		.loc 1 1047 0
 2167 0010 7B68     		ldr	r3, [r7, #4]
 2168 0012 1B68     		ldr	r3, [r3]
 2169 0014 1A6A     		ldr	r2, [r3, #32]
 2170 0016 41F21113 		movw	r3, #4369
 2171 001a 1340     		ands	r3, r3, r2
 2172 001c 002B     		cmp	r3, #0
 2173 001e 0FD1     		bne	.L130
 2174              		.loc 1 1047 0 is_stmt 0 discriminator 1
 2175 0020 7B68     		ldr	r3, [r7, #4]
 2176 0022 1B68     		ldr	r3, [r3]
 2177 0024 1A6A     		ldr	r2, [r3, #32]
 2178 0026 40F24443 		movw	r3, #1092
 2179 002a 1340     		ands	r3, r3, r2
 2180 002c 002B     		cmp	r3, #0
 2181 002e 07D1     		bne	.L130
 2182              		.loc 1 1047 0 discriminator 2
 2183 0030 7B68     		ldr	r3, [r7, #4]
 2184 0032 1B68     		ldr	r3, [r3]
 2185 0034 7A68     		ldr	r2, [r7, #4]
 2186 0036 1268     		ldr	r2, [r2]
 2187 0038 1268     		ldr	r2, [r2]
 2188 003a 22F00102 		bic	r2, r2, #1
ARM GAS  /tmp/ccvK2xU6.s 			page 57


 2189 003e 1A60     		str	r2, [r3]
 2190              	.L130:
1048:Drivers/STM32F4xx_HAL_Driver/Src/stm32f4xx_hal_tim.c ****     
1049:Drivers/STM32F4xx_HAL_Driver/Src/stm32f4xx_hal_tim.c ****   /* DeInit the low level hardware: GPIO, CLOCK, NVIC and DMA */
1050:Drivers/STM32F4xx_HAL_Driver/Src/stm32f4xx_hal_tim.c ****   HAL_TIM_PWM_MspDeInit(htim);
 2191              		.loc 1 1050 0 is_stmt 1
 2192 0040 7868     		ldr	r0, [r7, #4]
 2193 0042 FFF7FEFF 		bl	HAL_TIM_PWM_MspDeInit
1051:Drivers/STM32F4xx_HAL_Driver/Src/stm32f4xx_hal_tim.c ****     
1052:Drivers/STM32F4xx_HAL_Driver/Src/stm32f4xx_hal_tim.c ****   /* Change TIM state */  
1053:Drivers/STM32F4xx_HAL_Driver/Src/stm32f4xx_hal_tim.c ****   htim->State = HAL_TIM_STATE_RESET; 
 2194              		.loc 1 1053 0
 2195 0046 7B68     		ldr	r3, [r7, #4]
 2196 0048 0022     		movs	r2, #0
 2197 004a 83F83920 		strb	r2, [r3, #57]
1054:Drivers/STM32F4xx_HAL_Driver/Src/stm32f4xx_hal_tim.c **** 
1055:Drivers/STM32F4xx_HAL_Driver/Src/stm32f4xx_hal_tim.c ****   /* Release Lock */
1056:Drivers/STM32F4xx_HAL_Driver/Src/stm32f4xx_hal_tim.c ****   __HAL_UNLOCK(htim);
 2198              		.loc 1 1056 0
 2199 004e 7B68     		ldr	r3, [r7, #4]
 2200 0050 0022     		movs	r2, #0
 2201 0052 83F83820 		strb	r2, [r3, #56]
1057:Drivers/STM32F4xx_HAL_Driver/Src/stm32f4xx_hal_tim.c **** 
1058:Drivers/STM32F4xx_HAL_Driver/Src/stm32f4xx_hal_tim.c ****   return HAL_OK;
 2202              		.loc 1 1058 0
 2203 0056 0023     		movs	r3, #0
1059:Drivers/STM32F4xx_HAL_Driver/Src/stm32f4xx_hal_tim.c **** }
 2204              		.loc 1 1059 0
 2205 0058 1846     		mov	r0, r3
 2206 005a 0837     		adds	r7, r7, #8
 2207              	.LCFI117:
 2208              		.cfi_def_cfa_offset 8
 2209 005c BD46     		mov	sp, r7
 2210              	.LCFI118:
 2211              		.cfi_def_cfa_register 13
 2212              		@ sp needed
 2213 005e 80BD     		pop	{r7, pc}
 2214              		.cfi_endproc
 2215              	.LFE145:
 2217              		.section	.text.HAL_TIM_PWM_MspInit,"ax",%progbits
 2218              		.align	1
 2219              		.weak	HAL_TIM_PWM_MspInit
 2220              		.syntax unified
 2221              		.thumb
 2222              		.thumb_func
 2223              		.fpu fpv4-sp-d16
 2225              	HAL_TIM_PWM_MspInit:
 2226              	.LFB146:
1060:Drivers/STM32F4xx_HAL_Driver/Src/stm32f4xx_hal_tim.c **** 
1061:Drivers/STM32F4xx_HAL_Driver/Src/stm32f4xx_hal_tim.c **** /**
1062:Drivers/STM32F4xx_HAL_Driver/Src/stm32f4xx_hal_tim.c ****   * @brief  Initializes the TIM PWM MSP.
1063:Drivers/STM32F4xx_HAL_Driver/Src/stm32f4xx_hal_tim.c ****   * @param  htim pointer to a TIM_HandleTypeDef structure that contains
1064:Drivers/STM32F4xx_HAL_Driver/Src/stm32f4xx_hal_tim.c ****   *                the configuration information for TIM module.
1065:Drivers/STM32F4xx_HAL_Driver/Src/stm32f4xx_hal_tim.c ****   * @retval None
1066:Drivers/STM32F4xx_HAL_Driver/Src/stm32f4xx_hal_tim.c ****   */
1067:Drivers/STM32F4xx_HAL_Driver/Src/stm32f4xx_hal_tim.c **** __weak void HAL_TIM_PWM_MspInit(TIM_HandleTypeDef *htim)
1068:Drivers/STM32F4xx_HAL_Driver/Src/stm32f4xx_hal_tim.c **** {
ARM GAS  /tmp/ccvK2xU6.s 			page 58


 2227              		.loc 1 1068 0
 2228              		.cfi_startproc
 2229              		@ args = 0, pretend = 0, frame = 8
 2230              		@ frame_needed = 1, uses_anonymous_args = 0
 2231              		@ link register save eliminated.
 2232 0000 80B4     		push	{r7}
 2233              	.LCFI119:
 2234              		.cfi_def_cfa_offset 4
 2235              		.cfi_offset 7, -4
 2236 0002 83B0     		sub	sp, sp, #12
 2237              	.LCFI120:
 2238              		.cfi_def_cfa_offset 16
 2239 0004 00AF     		add	r7, sp, #0
 2240              	.LCFI121:
 2241              		.cfi_def_cfa_register 7
 2242 0006 7860     		str	r0, [r7, #4]
1069:Drivers/STM32F4xx_HAL_Driver/Src/stm32f4xx_hal_tim.c ****   /* Prevent unused argument(s) compilation warning */
1070:Drivers/STM32F4xx_HAL_Driver/Src/stm32f4xx_hal_tim.c ****   UNUSED(htim);
1071:Drivers/STM32F4xx_HAL_Driver/Src/stm32f4xx_hal_tim.c ****   /* NOTE : This function Should not be modified, when the callback is needed,
1072:Drivers/STM32F4xx_HAL_Driver/Src/stm32f4xx_hal_tim.c ****             the HAL_TIM_PWM_MspInit could be implemented in the user file
1073:Drivers/STM32F4xx_HAL_Driver/Src/stm32f4xx_hal_tim.c ****    */
1074:Drivers/STM32F4xx_HAL_Driver/Src/stm32f4xx_hal_tim.c **** }
 2243              		.loc 1 1074 0
 2244 0008 00BF     		nop
 2245 000a 0C37     		adds	r7, r7, #12
 2246              	.LCFI122:
 2247              		.cfi_def_cfa_offset 4
 2248 000c BD46     		mov	sp, r7
 2249              	.LCFI123:
 2250              		.cfi_def_cfa_register 13
 2251              		@ sp needed
 2252 000e 5DF8047B 		ldr	r7, [sp], #4
 2253              	.LCFI124:
 2254              		.cfi_restore 7
 2255              		.cfi_def_cfa_offset 0
 2256 0012 7047     		bx	lr
 2257              		.cfi_endproc
 2258              	.LFE146:
 2260              		.section	.text.HAL_TIM_PWM_MspDeInit,"ax",%progbits
 2261              		.align	1
 2262              		.weak	HAL_TIM_PWM_MspDeInit
 2263              		.syntax unified
 2264              		.thumb
 2265              		.thumb_func
 2266              		.fpu fpv4-sp-d16
 2268              	HAL_TIM_PWM_MspDeInit:
 2269              	.LFB147:
1075:Drivers/STM32F4xx_HAL_Driver/Src/stm32f4xx_hal_tim.c **** 
1076:Drivers/STM32F4xx_HAL_Driver/Src/stm32f4xx_hal_tim.c **** /**
1077:Drivers/STM32F4xx_HAL_Driver/Src/stm32f4xx_hal_tim.c ****   * @brief  DeInitializes TIM PWM MSP.
1078:Drivers/STM32F4xx_HAL_Driver/Src/stm32f4xx_hal_tim.c ****   * @param  htim pointer to a TIM_HandleTypeDef structure that contains
1079:Drivers/STM32F4xx_HAL_Driver/Src/stm32f4xx_hal_tim.c ****   *                the configuration information for TIM module.
1080:Drivers/STM32F4xx_HAL_Driver/Src/stm32f4xx_hal_tim.c ****   * @retval None
1081:Drivers/STM32F4xx_HAL_Driver/Src/stm32f4xx_hal_tim.c ****   */
1082:Drivers/STM32F4xx_HAL_Driver/Src/stm32f4xx_hal_tim.c **** __weak void HAL_TIM_PWM_MspDeInit(TIM_HandleTypeDef *htim)
1083:Drivers/STM32F4xx_HAL_Driver/Src/stm32f4xx_hal_tim.c **** {
 2270              		.loc 1 1083 0
ARM GAS  /tmp/ccvK2xU6.s 			page 59


 2271              		.cfi_startproc
 2272              		@ args = 0, pretend = 0, frame = 8
 2273              		@ frame_needed = 1, uses_anonymous_args = 0
 2274              		@ link register save eliminated.
 2275 0000 80B4     		push	{r7}
 2276              	.LCFI125:
 2277              		.cfi_def_cfa_offset 4
 2278              		.cfi_offset 7, -4
 2279 0002 83B0     		sub	sp, sp, #12
 2280              	.LCFI126:
 2281              		.cfi_def_cfa_offset 16
 2282 0004 00AF     		add	r7, sp, #0
 2283              	.LCFI127:
 2284              		.cfi_def_cfa_register 7
 2285 0006 7860     		str	r0, [r7, #4]
1084:Drivers/STM32F4xx_HAL_Driver/Src/stm32f4xx_hal_tim.c ****   /* Prevent unused argument(s) compilation warning */
1085:Drivers/STM32F4xx_HAL_Driver/Src/stm32f4xx_hal_tim.c ****   UNUSED(htim);
1086:Drivers/STM32F4xx_HAL_Driver/Src/stm32f4xx_hal_tim.c ****   /* NOTE : This function Should not be modified, when the callback is needed,
1087:Drivers/STM32F4xx_HAL_Driver/Src/stm32f4xx_hal_tim.c ****             the HAL_TIM_PWM_MspDeInit could be implemented in the user file
1088:Drivers/STM32F4xx_HAL_Driver/Src/stm32f4xx_hal_tim.c ****    */
1089:Drivers/STM32F4xx_HAL_Driver/Src/stm32f4xx_hal_tim.c **** }
 2286              		.loc 1 1089 0
 2287 0008 00BF     		nop
 2288 000a 0C37     		adds	r7, r7, #12
 2289              	.LCFI128:
 2290              		.cfi_def_cfa_offset 4
 2291 000c BD46     		mov	sp, r7
 2292              	.LCFI129:
 2293              		.cfi_def_cfa_register 13
 2294              		@ sp needed
 2295 000e 5DF8047B 		ldr	r7, [sp], #4
 2296              	.LCFI130:
 2297              		.cfi_restore 7
 2298              		.cfi_def_cfa_offset 0
 2299 0012 7047     		bx	lr
 2300              		.cfi_endproc
 2301              	.LFE147:
 2303              		.section	.text.HAL_TIM_PWM_Start,"ax",%progbits
 2304              		.align	1
 2305              		.global	HAL_TIM_PWM_Start
 2306              		.syntax unified
 2307              		.thumb
 2308              		.thumb_func
 2309              		.fpu fpv4-sp-d16
 2311              	HAL_TIM_PWM_Start:
 2312              	.LFB148:
1090:Drivers/STM32F4xx_HAL_Driver/Src/stm32f4xx_hal_tim.c **** 
1091:Drivers/STM32F4xx_HAL_Driver/Src/stm32f4xx_hal_tim.c **** /**
1092:Drivers/STM32F4xx_HAL_Driver/Src/stm32f4xx_hal_tim.c ****   * @brief  Starts the PWM signal generation.
1093:Drivers/STM32F4xx_HAL_Driver/Src/stm32f4xx_hal_tim.c ****   * @param  htim pointer to a TIM_HandleTypeDef structure that contains
1094:Drivers/STM32F4xx_HAL_Driver/Src/stm32f4xx_hal_tim.c ****   *                the configuration information for TIM module.
1095:Drivers/STM32F4xx_HAL_Driver/Src/stm32f4xx_hal_tim.c ****   * @param  Channel TIM Channels to be enabled.
1096:Drivers/STM32F4xx_HAL_Driver/Src/stm32f4xx_hal_tim.c ****   *          This parameter can be one of the following values:
1097:Drivers/STM32F4xx_HAL_Driver/Src/stm32f4xx_hal_tim.c ****   *            @arg TIM_CHANNEL_1: TIM Channel 1 selected
1098:Drivers/STM32F4xx_HAL_Driver/Src/stm32f4xx_hal_tim.c ****   *            @arg TIM_CHANNEL_2: TIM Channel 2 selected
1099:Drivers/STM32F4xx_HAL_Driver/Src/stm32f4xx_hal_tim.c ****   *            @arg TIM_CHANNEL_3: TIM Channel 3 selected
1100:Drivers/STM32F4xx_HAL_Driver/Src/stm32f4xx_hal_tim.c ****   *            @arg TIM_CHANNEL_4: TIM Channel 4 selected
ARM GAS  /tmp/ccvK2xU6.s 			page 60


1101:Drivers/STM32F4xx_HAL_Driver/Src/stm32f4xx_hal_tim.c ****   * @retval HAL status
1102:Drivers/STM32F4xx_HAL_Driver/Src/stm32f4xx_hal_tim.c ****   */
1103:Drivers/STM32F4xx_HAL_Driver/Src/stm32f4xx_hal_tim.c **** HAL_StatusTypeDef HAL_TIM_PWM_Start(TIM_HandleTypeDef *htim, uint32_t Channel)
1104:Drivers/STM32F4xx_HAL_Driver/Src/stm32f4xx_hal_tim.c **** {
 2313              		.loc 1 1104 0
 2314              		.cfi_startproc
 2315              		@ args = 0, pretend = 0, frame = 8
 2316              		@ frame_needed = 1, uses_anonymous_args = 0
 2317 0000 80B5     		push	{r7, lr}
 2318              	.LCFI131:
 2319              		.cfi_def_cfa_offset 8
 2320              		.cfi_offset 7, -8
 2321              		.cfi_offset 14, -4
 2322 0002 82B0     		sub	sp, sp, #8
 2323              	.LCFI132:
 2324              		.cfi_def_cfa_offset 16
 2325 0004 00AF     		add	r7, sp, #0
 2326              	.LCFI133:
 2327              		.cfi_def_cfa_register 7
 2328 0006 7860     		str	r0, [r7, #4]
 2329 0008 3960     		str	r1, [r7]
1105:Drivers/STM32F4xx_HAL_Driver/Src/stm32f4xx_hal_tim.c ****   /* Check the parameters */
1106:Drivers/STM32F4xx_HAL_Driver/Src/stm32f4xx_hal_tim.c ****   assert_param(IS_TIM_CCX_INSTANCE(htim->Instance, Channel));
1107:Drivers/STM32F4xx_HAL_Driver/Src/stm32f4xx_hal_tim.c **** 
1108:Drivers/STM32F4xx_HAL_Driver/Src/stm32f4xx_hal_tim.c ****   /* Enable the Capture compare channel */
1109:Drivers/STM32F4xx_HAL_Driver/Src/stm32f4xx_hal_tim.c ****   TIM_CCxChannelCmd(htim->Instance, Channel, TIM_CCx_ENABLE);
 2330              		.loc 1 1109 0
 2331 000a 7B68     		ldr	r3, [r7, #4]
 2332 000c 1B68     		ldr	r3, [r3]
 2333 000e 0122     		movs	r2, #1
 2334 0010 3968     		ldr	r1, [r7]
 2335 0012 1846     		mov	r0, r3
 2336 0014 FFF7FEFF 		bl	TIM_CCxChannelCmd
1110:Drivers/STM32F4xx_HAL_Driver/Src/stm32f4xx_hal_tim.c ****   
1111:Drivers/STM32F4xx_HAL_Driver/Src/stm32f4xx_hal_tim.c ****   if(IS_TIM_ADVANCED_INSTANCE(htim->Instance) != RESET)  
 2337              		.loc 1 1111 0
 2338 0018 7B68     		ldr	r3, [r7, #4]
 2339 001a 1B68     		ldr	r3, [r3]
 2340 001c 104A     		ldr	r2, .L140
 2341 001e 9342     		cmp	r3, r2
 2342 0020 04D0     		beq	.L135
 2343              		.loc 1 1111 0 is_stmt 0 discriminator 2
 2344 0022 7B68     		ldr	r3, [r7, #4]
 2345 0024 1B68     		ldr	r3, [r3]
 2346 0026 0F4A     		ldr	r2, .L140+4
 2347 0028 9342     		cmp	r3, r2
 2348 002a 01D1     		bne	.L136
 2349              	.L135:
 2350              		.loc 1 1111 0 discriminator 3
 2351 002c 0123     		movs	r3, #1
 2352 002e 00E0     		b	.L137
 2353              	.L136:
 2354              		.loc 1 1111 0 discriminator 4
 2355 0030 0023     		movs	r3, #0
 2356              	.L137:
 2357              		.loc 1 1111 0 discriminator 6
 2358 0032 002B     		cmp	r3, #0
ARM GAS  /tmp/ccvK2xU6.s 			page 61


 2359 0034 07D0     		beq	.L138
1112:Drivers/STM32F4xx_HAL_Driver/Src/stm32f4xx_hal_tim.c ****   {
1113:Drivers/STM32F4xx_HAL_Driver/Src/stm32f4xx_hal_tim.c ****     /* Enable the main output */
1114:Drivers/STM32F4xx_HAL_Driver/Src/stm32f4xx_hal_tim.c ****     __HAL_TIM_MOE_ENABLE(htim);
 2360              		.loc 1 1114 0 is_stmt 1
 2361 0036 7B68     		ldr	r3, [r7, #4]
 2362 0038 1B68     		ldr	r3, [r3]
 2363 003a 7A68     		ldr	r2, [r7, #4]
 2364 003c 1268     		ldr	r2, [r2]
 2365 003e 526C     		ldr	r2, [r2, #68]
 2366 0040 42F40042 		orr	r2, r2, #32768
 2367 0044 5A64     		str	r2, [r3, #68]
 2368              	.L138:
1115:Drivers/STM32F4xx_HAL_Driver/Src/stm32f4xx_hal_tim.c ****   }
1116:Drivers/STM32F4xx_HAL_Driver/Src/stm32f4xx_hal_tim.c ****     
1117:Drivers/STM32F4xx_HAL_Driver/Src/stm32f4xx_hal_tim.c ****   /* Enable the Peripheral */
1118:Drivers/STM32F4xx_HAL_Driver/Src/stm32f4xx_hal_tim.c ****   __HAL_TIM_ENABLE(htim);
 2369              		.loc 1 1118 0
 2370 0046 7B68     		ldr	r3, [r7, #4]
 2371 0048 1B68     		ldr	r3, [r3]
 2372 004a 7A68     		ldr	r2, [r7, #4]
 2373 004c 1268     		ldr	r2, [r2]
 2374 004e 1268     		ldr	r2, [r2]
 2375 0050 42F00102 		orr	r2, r2, #1
 2376 0054 1A60     		str	r2, [r3]
1119:Drivers/STM32F4xx_HAL_Driver/Src/stm32f4xx_hal_tim.c ****   
1120:Drivers/STM32F4xx_HAL_Driver/Src/stm32f4xx_hal_tim.c ****   /* Return function status */
1121:Drivers/STM32F4xx_HAL_Driver/Src/stm32f4xx_hal_tim.c ****   return HAL_OK;
 2377              		.loc 1 1121 0
 2378 0056 0023     		movs	r3, #0
1122:Drivers/STM32F4xx_HAL_Driver/Src/stm32f4xx_hal_tim.c **** } 
 2379              		.loc 1 1122 0
 2380 0058 1846     		mov	r0, r3
 2381 005a 0837     		adds	r7, r7, #8
 2382              	.LCFI134:
 2383              		.cfi_def_cfa_offset 8
 2384 005c BD46     		mov	sp, r7
 2385              	.LCFI135:
 2386              		.cfi_def_cfa_register 13
 2387              		@ sp needed
 2388 005e 80BD     		pop	{r7, pc}
 2389              	.L141:
 2390              		.align	2
 2391              	.L140:
 2392 0060 00000140 		.word	1073807360
 2393 0064 00040140 		.word	1073808384
 2394              		.cfi_endproc
 2395              	.LFE148:
 2397              		.section	.text.HAL_TIM_PWM_Stop,"ax",%progbits
 2398              		.align	1
 2399              		.global	HAL_TIM_PWM_Stop
 2400              		.syntax unified
 2401              		.thumb
 2402              		.thumb_func
 2403              		.fpu fpv4-sp-d16
 2405              	HAL_TIM_PWM_Stop:
 2406              	.LFB149:
ARM GAS  /tmp/ccvK2xU6.s 			page 62


1123:Drivers/STM32F4xx_HAL_Driver/Src/stm32f4xx_hal_tim.c **** 
1124:Drivers/STM32F4xx_HAL_Driver/Src/stm32f4xx_hal_tim.c **** /**
1125:Drivers/STM32F4xx_HAL_Driver/Src/stm32f4xx_hal_tim.c ****   * @brief  Stops the PWM signal generation.
1126:Drivers/STM32F4xx_HAL_Driver/Src/stm32f4xx_hal_tim.c ****   * @param  htim pointer to a TIM_HandleTypeDef structure that contains
1127:Drivers/STM32F4xx_HAL_Driver/Src/stm32f4xx_hal_tim.c ****   *                the configuration information for TIM module.
1128:Drivers/STM32F4xx_HAL_Driver/Src/stm32f4xx_hal_tim.c ****   * @param  Channel TIM Channels to be disabled.
1129:Drivers/STM32F4xx_HAL_Driver/Src/stm32f4xx_hal_tim.c ****   *          This parameter can be one of the following values:
1130:Drivers/STM32F4xx_HAL_Driver/Src/stm32f4xx_hal_tim.c ****   *            @arg TIM_CHANNEL_1: TIM Channel 1 selected
1131:Drivers/STM32F4xx_HAL_Driver/Src/stm32f4xx_hal_tim.c ****   *            @arg TIM_CHANNEL_2: TIM Channel 2 selected
1132:Drivers/STM32F4xx_HAL_Driver/Src/stm32f4xx_hal_tim.c ****   *            @arg TIM_CHANNEL_3: TIM Channel 3 selected
1133:Drivers/STM32F4xx_HAL_Driver/Src/stm32f4xx_hal_tim.c ****   *            @arg TIM_CHANNEL_4: TIM Channel 4 selected
1134:Drivers/STM32F4xx_HAL_Driver/Src/stm32f4xx_hal_tim.c ****   * @retval HAL status
1135:Drivers/STM32F4xx_HAL_Driver/Src/stm32f4xx_hal_tim.c ****   */
1136:Drivers/STM32F4xx_HAL_Driver/Src/stm32f4xx_hal_tim.c **** HAL_StatusTypeDef HAL_TIM_PWM_Stop(TIM_HandleTypeDef *htim, uint32_t Channel)
1137:Drivers/STM32F4xx_HAL_Driver/Src/stm32f4xx_hal_tim.c **** { 
 2407              		.loc 1 1137 0
 2408              		.cfi_startproc
 2409              		@ args = 0, pretend = 0, frame = 8
 2410              		@ frame_needed = 1, uses_anonymous_args = 0
 2411 0000 80B5     		push	{r7, lr}
 2412              	.LCFI136:
 2413              		.cfi_def_cfa_offset 8
 2414              		.cfi_offset 7, -8
 2415              		.cfi_offset 14, -4
 2416 0002 82B0     		sub	sp, sp, #8
 2417              	.LCFI137:
 2418              		.cfi_def_cfa_offset 16
 2419 0004 00AF     		add	r7, sp, #0
 2420              	.LCFI138:
 2421              		.cfi_def_cfa_register 7
 2422 0006 7860     		str	r0, [r7, #4]
 2423 0008 3960     		str	r1, [r7]
1138:Drivers/STM32F4xx_HAL_Driver/Src/stm32f4xx_hal_tim.c ****   /* Check the parameters */
1139:Drivers/STM32F4xx_HAL_Driver/Src/stm32f4xx_hal_tim.c ****   assert_param(IS_TIM_CCX_INSTANCE(htim->Instance, Channel));
1140:Drivers/STM32F4xx_HAL_Driver/Src/stm32f4xx_hal_tim.c ****     
1141:Drivers/STM32F4xx_HAL_Driver/Src/stm32f4xx_hal_tim.c ****   /* Disable the Capture compare channel */
1142:Drivers/STM32F4xx_HAL_Driver/Src/stm32f4xx_hal_tim.c ****   TIM_CCxChannelCmd(htim->Instance, Channel, TIM_CCx_DISABLE);
 2424              		.loc 1 1142 0
 2425 000a 7B68     		ldr	r3, [r7, #4]
 2426 000c 1B68     		ldr	r3, [r3]
 2427 000e 0022     		movs	r2, #0
 2428 0010 3968     		ldr	r1, [r7]
 2429 0012 1846     		mov	r0, r3
 2430 0014 FFF7FEFF 		bl	TIM_CCxChannelCmd
1143:Drivers/STM32F4xx_HAL_Driver/Src/stm32f4xx_hal_tim.c ****   
1144:Drivers/STM32F4xx_HAL_Driver/Src/stm32f4xx_hal_tim.c ****   if(IS_TIM_ADVANCED_INSTANCE(htim->Instance) != RESET)  
 2431              		.loc 1 1144 0
 2432 0018 7B68     		ldr	r3, [r7, #4]
 2433 001a 1B68     		ldr	r3, [r3]
 2434 001c 224A     		ldr	r2, .L149
 2435 001e 9342     		cmp	r3, r2
 2436 0020 04D0     		beq	.L143
 2437              		.loc 1 1144 0 is_stmt 0 discriminator 2
 2438 0022 7B68     		ldr	r3, [r7, #4]
 2439 0024 1B68     		ldr	r3, [r3]
 2440 0026 214A     		ldr	r2, .L149+4
 2441 0028 9342     		cmp	r3, r2
ARM GAS  /tmp/ccvK2xU6.s 			page 63


 2442 002a 01D1     		bne	.L144
 2443              	.L143:
 2444              		.loc 1 1144 0 discriminator 3
 2445 002c 0123     		movs	r3, #1
 2446 002e 00E0     		b	.L145
 2447              	.L144:
 2448              		.loc 1 1144 0 discriminator 4
 2449 0030 0023     		movs	r3, #0
 2450              	.L145:
 2451              		.loc 1 1144 0 discriminator 6
 2452 0032 002B     		cmp	r3, #0
 2453 0034 17D0     		beq	.L146
1145:Drivers/STM32F4xx_HAL_Driver/Src/stm32f4xx_hal_tim.c ****   {
1146:Drivers/STM32F4xx_HAL_Driver/Src/stm32f4xx_hal_tim.c ****     /* Disable the Main Output */
1147:Drivers/STM32F4xx_HAL_Driver/Src/stm32f4xx_hal_tim.c ****     __HAL_TIM_MOE_DISABLE(htim);
 2454              		.loc 1 1147 0 is_stmt 1
 2455 0036 7B68     		ldr	r3, [r7, #4]
 2456 0038 1B68     		ldr	r3, [r3]
 2457 003a 1A6A     		ldr	r2, [r3, #32]
 2458 003c 41F21113 		movw	r3, #4369
 2459 0040 1340     		ands	r3, r3, r2
 2460 0042 002B     		cmp	r3, #0
 2461 0044 0FD1     		bne	.L146
 2462              		.loc 1 1147 0 is_stmt 0 discriminator 1
 2463 0046 7B68     		ldr	r3, [r7, #4]
 2464 0048 1B68     		ldr	r3, [r3]
 2465 004a 1A6A     		ldr	r2, [r3, #32]
 2466 004c 40F24443 		movw	r3, #1092
 2467 0050 1340     		ands	r3, r3, r2
 2468 0052 002B     		cmp	r3, #0
 2469 0054 07D1     		bne	.L146
 2470              		.loc 1 1147 0 discriminator 2
 2471 0056 7B68     		ldr	r3, [r7, #4]
 2472 0058 1B68     		ldr	r3, [r3]
 2473 005a 7A68     		ldr	r2, [r7, #4]
 2474 005c 1268     		ldr	r2, [r2]
 2475 005e 526C     		ldr	r2, [r2, #68]
 2476 0060 22F40042 		bic	r2, r2, #32768
 2477 0064 5A64     		str	r2, [r3, #68]
 2478              	.L146:
1148:Drivers/STM32F4xx_HAL_Driver/Src/stm32f4xx_hal_tim.c ****   }
1149:Drivers/STM32F4xx_HAL_Driver/Src/stm32f4xx_hal_tim.c ****   
1150:Drivers/STM32F4xx_HAL_Driver/Src/stm32f4xx_hal_tim.c ****   /* Disable the Peripheral */
1151:Drivers/STM32F4xx_HAL_Driver/Src/stm32f4xx_hal_tim.c ****   __HAL_TIM_DISABLE(htim);
 2479              		.loc 1 1151 0 is_stmt 1
 2480 0066 7B68     		ldr	r3, [r7, #4]
 2481 0068 1B68     		ldr	r3, [r3]
 2482 006a 1A6A     		ldr	r2, [r3, #32]
 2483 006c 41F21113 		movw	r3, #4369
 2484 0070 1340     		ands	r3, r3, r2
 2485 0072 002B     		cmp	r3, #0
 2486 0074 0FD1     		bne	.L147
 2487              		.loc 1 1151 0 is_stmt 0 discriminator 1
 2488 0076 7B68     		ldr	r3, [r7, #4]
 2489 0078 1B68     		ldr	r3, [r3]
 2490 007a 1A6A     		ldr	r2, [r3, #32]
 2491 007c 40F24443 		movw	r3, #1092
ARM GAS  /tmp/ccvK2xU6.s 			page 64


 2492 0080 1340     		ands	r3, r3, r2
 2493 0082 002B     		cmp	r3, #0
 2494 0084 07D1     		bne	.L147
 2495              		.loc 1 1151 0 discriminator 2
 2496 0086 7B68     		ldr	r3, [r7, #4]
 2497 0088 1B68     		ldr	r3, [r3]
 2498 008a 7A68     		ldr	r2, [r7, #4]
 2499 008c 1268     		ldr	r2, [r2]
 2500 008e 1268     		ldr	r2, [r2]
 2501 0090 22F00102 		bic	r2, r2, #1
 2502 0094 1A60     		str	r2, [r3]
 2503              	.L147:
1152:Drivers/STM32F4xx_HAL_Driver/Src/stm32f4xx_hal_tim.c ****   
1153:Drivers/STM32F4xx_HAL_Driver/Src/stm32f4xx_hal_tim.c ****   /* Change the htim state */
1154:Drivers/STM32F4xx_HAL_Driver/Src/stm32f4xx_hal_tim.c ****   htim->State = HAL_TIM_STATE_READY;
 2504              		.loc 1 1154 0 is_stmt 1
 2505 0096 7B68     		ldr	r3, [r7, #4]
 2506 0098 0122     		movs	r2, #1
 2507 009a 83F83920 		strb	r2, [r3, #57]
1155:Drivers/STM32F4xx_HAL_Driver/Src/stm32f4xx_hal_tim.c ****   
1156:Drivers/STM32F4xx_HAL_Driver/Src/stm32f4xx_hal_tim.c ****   /* Return function status */
1157:Drivers/STM32F4xx_HAL_Driver/Src/stm32f4xx_hal_tim.c ****   return HAL_OK;
 2508              		.loc 1 1157 0
 2509 009e 0023     		movs	r3, #0
1158:Drivers/STM32F4xx_HAL_Driver/Src/stm32f4xx_hal_tim.c **** } 
 2510              		.loc 1 1158 0
 2511 00a0 1846     		mov	r0, r3
 2512 00a2 0837     		adds	r7, r7, #8
 2513              	.LCFI139:
 2514              		.cfi_def_cfa_offset 8
 2515 00a4 BD46     		mov	sp, r7
 2516              	.LCFI140:
 2517              		.cfi_def_cfa_register 13
 2518              		@ sp needed
 2519 00a6 80BD     		pop	{r7, pc}
 2520              	.L150:
 2521              		.align	2
 2522              	.L149:
 2523 00a8 00000140 		.word	1073807360
 2524 00ac 00040140 		.word	1073808384
 2525              		.cfi_endproc
 2526              	.LFE149:
 2528              		.section	.text.HAL_TIM_PWM_Start_IT,"ax",%progbits
 2529              		.align	1
 2530              		.global	HAL_TIM_PWM_Start_IT
 2531              		.syntax unified
 2532              		.thumb
 2533              		.thumb_func
 2534              		.fpu fpv4-sp-d16
 2536              	HAL_TIM_PWM_Start_IT:
 2537              	.LFB150:
1159:Drivers/STM32F4xx_HAL_Driver/Src/stm32f4xx_hal_tim.c **** 
1160:Drivers/STM32F4xx_HAL_Driver/Src/stm32f4xx_hal_tim.c **** /**
1161:Drivers/STM32F4xx_HAL_Driver/Src/stm32f4xx_hal_tim.c ****   * @brief  Starts the PWM signal generation in interrupt mode.
1162:Drivers/STM32F4xx_HAL_Driver/Src/stm32f4xx_hal_tim.c ****   * @param  htim pointer to a TIM_HandleTypeDef structure that contains
1163:Drivers/STM32F4xx_HAL_Driver/Src/stm32f4xx_hal_tim.c ****   *                the configuration information for TIM module.
1164:Drivers/STM32F4xx_HAL_Driver/Src/stm32f4xx_hal_tim.c ****   * @param  Channel TIM Channel to be enabled.
ARM GAS  /tmp/ccvK2xU6.s 			page 65


1165:Drivers/STM32F4xx_HAL_Driver/Src/stm32f4xx_hal_tim.c ****   *          This parameter can be one of the following values:
1166:Drivers/STM32F4xx_HAL_Driver/Src/stm32f4xx_hal_tim.c ****   *            @arg TIM_CHANNEL_1: TIM Channel 1 selected
1167:Drivers/STM32F4xx_HAL_Driver/Src/stm32f4xx_hal_tim.c ****   *            @arg TIM_CHANNEL_2: TIM Channel 2 selected
1168:Drivers/STM32F4xx_HAL_Driver/Src/stm32f4xx_hal_tim.c ****   *            @arg TIM_CHANNEL_3: TIM Channel 3 selected
1169:Drivers/STM32F4xx_HAL_Driver/Src/stm32f4xx_hal_tim.c ****   *            @arg TIM_CHANNEL_4: TIM Channel 4 selected
1170:Drivers/STM32F4xx_HAL_Driver/Src/stm32f4xx_hal_tim.c ****   * @retval HAL status
1171:Drivers/STM32F4xx_HAL_Driver/Src/stm32f4xx_hal_tim.c ****   */
1172:Drivers/STM32F4xx_HAL_Driver/Src/stm32f4xx_hal_tim.c **** HAL_StatusTypeDef HAL_TIM_PWM_Start_IT(TIM_HandleTypeDef *htim, uint32_t Channel)
1173:Drivers/STM32F4xx_HAL_Driver/Src/stm32f4xx_hal_tim.c **** {
 2538              		.loc 1 1173 0
 2539              		.cfi_startproc
 2540              		@ args = 0, pretend = 0, frame = 8
 2541              		@ frame_needed = 1, uses_anonymous_args = 0
 2542 0000 80B5     		push	{r7, lr}
 2543              	.LCFI141:
 2544              		.cfi_def_cfa_offset 8
 2545              		.cfi_offset 7, -8
 2546              		.cfi_offset 14, -4
 2547 0002 82B0     		sub	sp, sp, #8
 2548              	.LCFI142:
 2549              		.cfi_def_cfa_offset 16
 2550 0004 00AF     		add	r7, sp, #0
 2551              	.LCFI143:
 2552              		.cfi_def_cfa_register 7
 2553 0006 7860     		str	r0, [r7, #4]
 2554 0008 3960     		str	r1, [r7]
1174:Drivers/STM32F4xx_HAL_Driver/Src/stm32f4xx_hal_tim.c ****   /* Check the parameters */
1175:Drivers/STM32F4xx_HAL_Driver/Src/stm32f4xx_hal_tim.c ****   assert_param(IS_TIM_CCX_INSTANCE(htim->Instance, Channel));
1176:Drivers/STM32F4xx_HAL_Driver/Src/stm32f4xx_hal_tim.c ****   
1177:Drivers/STM32F4xx_HAL_Driver/Src/stm32f4xx_hal_tim.c ****   switch (Channel)
 2555              		.loc 1 1177 0
 2556 000a 3B68     		ldr	r3, [r7]
 2557 000c 0C2B     		cmp	r3, #12
 2558 000e 41D8     		bhi	.L164
 2559 0010 01A2     		adr	r2, .L154
 2560 0012 52F823F0 		ldr	pc, [r2, r3, lsl #2]
 2561 0016 00BF     		.p2align 2
 2562              	.L154:
 2563 0018 4D000000 		.word	.L153+1
 2564 001c 95000000 		.word	.L164+1
 2565 0020 95000000 		.word	.L164+1
 2566 0024 95000000 		.word	.L164+1
 2567 0028 5F000000 		.word	.L155+1
 2568 002c 95000000 		.word	.L164+1
 2569 0030 95000000 		.word	.L164+1
 2570 0034 95000000 		.word	.L164+1
 2571 0038 71000000 		.word	.L156+1
 2572 003c 95000000 		.word	.L164+1
 2573 0040 95000000 		.word	.L164+1
 2574 0044 95000000 		.word	.L164+1
 2575 0048 83000000 		.word	.L157+1
 2576              		.p2align 1
 2577              	.L153:
1178:Drivers/STM32F4xx_HAL_Driver/Src/stm32f4xx_hal_tim.c ****   {
1179:Drivers/STM32F4xx_HAL_Driver/Src/stm32f4xx_hal_tim.c ****     case TIM_CHANNEL_1:
1180:Drivers/STM32F4xx_HAL_Driver/Src/stm32f4xx_hal_tim.c ****     {       
1181:Drivers/STM32F4xx_HAL_Driver/Src/stm32f4xx_hal_tim.c ****       /* Enable the TIM Capture/Compare 1 interrupt */
ARM GAS  /tmp/ccvK2xU6.s 			page 66


1182:Drivers/STM32F4xx_HAL_Driver/Src/stm32f4xx_hal_tim.c ****       __HAL_TIM_ENABLE_IT(htim, TIM_IT_CC1);
 2578              		.loc 1 1182 0
 2579 004c 7B68     		ldr	r3, [r7, #4]
 2580 004e 1B68     		ldr	r3, [r3]
 2581 0050 7A68     		ldr	r2, [r7, #4]
 2582 0052 1268     		ldr	r2, [r2]
 2583 0054 D268     		ldr	r2, [r2, #12]
 2584 0056 42F00202 		orr	r2, r2, #2
 2585 005a DA60     		str	r2, [r3, #12]
1183:Drivers/STM32F4xx_HAL_Driver/Src/stm32f4xx_hal_tim.c ****     }
1184:Drivers/STM32F4xx_HAL_Driver/Src/stm32f4xx_hal_tim.c ****     break;
 2586              		.loc 1 1184 0
 2587 005c 1BE0     		b	.L158
 2588              	.L155:
1185:Drivers/STM32F4xx_HAL_Driver/Src/stm32f4xx_hal_tim.c ****     
1186:Drivers/STM32F4xx_HAL_Driver/Src/stm32f4xx_hal_tim.c ****     case TIM_CHANNEL_2:
1187:Drivers/STM32F4xx_HAL_Driver/Src/stm32f4xx_hal_tim.c ****     {
1188:Drivers/STM32F4xx_HAL_Driver/Src/stm32f4xx_hal_tim.c ****       /* Enable the TIM Capture/Compare 2 interrupt */
1189:Drivers/STM32F4xx_HAL_Driver/Src/stm32f4xx_hal_tim.c ****       __HAL_TIM_ENABLE_IT(htim, TIM_IT_CC2);
 2589              		.loc 1 1189 0
 2590 005e 7B68     		ldr	r3, [r7, #4]
 2591 0060 1B68     		ldr	r3, [r3]
 2592 0062 7A68     		ldr	r2, [r7, #4]
 2593 0064 1268     		ldr	r2, [r2]
 2594 0066 D268     		ldr	r2, [r2, #12]
 2595 0068 42F00402 		orr	r2, r2, #4
 2596 006c DA60     		str	r2, [r3, #12]
1190:Drivers/STM32F4xx_HAL_Driver/Src/stm32f4xx_hal_tim.c ****     }
1191:Drivers/STM32F4xx_HAL_Driver/Src/stm32f4xx_hal_tim.c ****     break;
 2597              		.loc 1 1191 0
 2598 006e 12E0     		b	.L158
 2599              	.L156:
1192:Drivers/STM32F4xx_HAL_Driver/Src/stm32f4xx_hal_tim.c ****     
1193:Drivers/STM32F4xx_HAL_Driver/Src/stm32f4xx_hal_tim.c ****     case TIM_CHANNEL_3:
1194:Drivers/STM32F4xx_HAL_Driver/Src/stm32f4xx_hal_tim.c ****     {
1195:Drivers/STM32F4xx_HAL_Driver/Src/stm32f4xx_hal_tim.c ****       /* Enable the TIM Capture/Compare 3 interrupt */
1196:Drivers/STM32F4xx_HAL_Driver/Src/stm32f4xx_hal_tim.c ****       __HAL_TIM_ENABLE_IT(htim, TIM_IT_CC3);
 2600              		.loc 1 1196 0
 2601 0070 7B68     		ldr	r3, [r7, #4]
 2602 0072 1B68     		ldr	r3, [r3]
 2603 0074 7A68     		ldr	r2, [r7, #4]
 2604 0076 1268     		ldr	r2, [r2]
 2605 0078 D268     		ldr	r2, [r2, #12]
 2606 007a 42F00802 		orr	r2, r2, #8
 2607 007e DA60     		str	r2, [r3, #12]
1197:Drivers/STM32F4xx_HAL_Driver/Src/stm32f4xx_hal_tim.c ****     }
1198:Drivers/STM32F4xx_HAL_Driver/Src/stm32f4xx_hal_tim.c ****     break;
 2608              		.loc 1 1198 0
 2609 0080 09E0     		b	.L158
 2610              	.L157:
1199:Drivers/STM32F4xx_HAL_Driver/Src/stm32f4xx_hal_tim.c ****     
1200:Drivers/STM32F4xx_HAL_Driver/Src/stm32f4xx_hal_tim.c ****     case TIM_CHANNEL_4:
1201:Drivers/STM32F4xx_HAL_Driver/Src/stm32f4xx_hal_tim.c ****     {
1202:Drivers/STM32F4xx_HAL_Driver/Src/stm32f4xx_hal_tim.c ****       /* Enable the TIM Capture/Compare 4 interrupt */
1203:Drivers/STM32F4xx_HAL_Driver/Src/stm32f4xx_hal_tim.c ****       __HAL_TIM_ENABLE_IT(htim, TIM_IT_CC4);
 2611              		.loc 1 1203 0
 2612 0082 7B68     		ldr	r3, [r7, #4]
ARM GAS  /tmp/ccvK2xU6.s 			page 67


 2613 0084 1B68     		ldr	r3, [r3]
 2614 0086 7A68     		ldr	r2, [r7, #4]
 2615 0088 1268     		ldr	r2, [r2]
 2616 008a D268     		ldr	r2, [r2, #12]
 2617 008c 42F01002 		orr	r2, r2, #16
 2618 0090 DA60     		str	r2, [r3, #12]
1204:Drivers/STM32F4xx_HAL_Driver/Src/stm32f4xx_hal_tim.c ****     }
1205:Drivers/STM32F4xx_HAL_Driver/Src/stm32f4xx_hal_tim.c ****     break;
 2619              		.loc 1 1205 0
 2620 0092 00E0     		b	.L158
 2621              	.L164:
1206:Drivers/STM32F4xx_HAL_Driver/Src/stm32f4xx_hal_tim.c ****     
1207:Drivers/STM32F4xx_HAL_Driver/Src/stm32f4xx_hal_tim.c ****     default:
1208:Drivers/STM32F4xx_HAL_Driver/Src/stm32f4xx_hal_tim.c ****     break;
 2622              		.loc 1 1208 0
 2623 0094 00BF     		nop
 2624              	.L158:
1209:Drivers/STM32F4xx_HAL_Driver/Src/stm32f4xx_hal_tim.c ****   } 
1210:Drivers/STM32F4xx_HAL_Driver/Src/stm32f4xx_hal_tim.c ****   
1211:Drivers/STM32F4xx_HAL_Driver/Src/stm32f4xx_hal_tim.c ****   /* Enable the Capture compare channel */
1212:Drivers/STM32F4xx_HAL_Driver/Src/stm32f4xx_hal_tim.c ****   TIM_CCxChannelCmd(htim->Instance, Channel, TIM_CCx_ENABLE);
 2625              		.loc 1 1212 0
 2626 0096 7B68     		ldr	r3, [r7, #4]
 2627 0098 1B68     		ldr	r3, [r3]
 2628 009a 0122     		movs	r2, #1
 2629 009c 3968     		ldr	r1, [r7]
 2630 009e 1846     		mov	r0, r3
 2631 00a0 FFF7FEFF 		bl	TIM_CCxChannelCmd
1213:Drivers/STM32F4xx_HAL_Driver/Src/stm32f4xx_hal_tim.c ****   
1214:Drivers/STM32F4xx_HAL_Driver/Src/stm32f4xx_hal_tim.c ****   if(IS_TIM_ADVANCED_INSTANCE(htim->Instance) != RESET)  
 2632              		.loc 1 1214 0
 2633 00a4 7B68     		ldr	r3, [r7, #4]
 2634 00a6 1B68     		ldr	r3, [r3]
 2635 00a8 104A     		ldr	r2, .L165
 2636 00aa 9342     		cmp	r3, r2
 2637 00ac 04D0     		beq	.L159
 2638              		.loc 1 1214 0 is_stmt 0 discriminator 2
 2639 00ae 7B68     		ldr	r3, [r7, #4]
 2640 00b0 1B68     		ldr	r3, [r3]
 2641 00b2 0F4A     		ldr	r2, .L165+4
 2642 00b4 9342     		cmp	r3, r2
 2643 00b6 01D1     		bne	.L160
 2644              	.L159:
 2645              		.loc 1 1214 0 discriminator 3
 2646 00b8 0123     		movs	r3, #1
 2647 00ba 00E0     		b	.L161
 2648              	.L160:
 2649              		.loc 1 1214 0 discriminator 4
 2650 00bc 0023     		movs	r3, #0
 2651              	.L161:
 2652              		.loc 1 1214 0 discriminator 6
 2653 00be 002B     		cmp	r3, #0
 2654 00c0 07D0     		beq	.L162
1215:Drivers/STM32F4xx_HAL_Driver/Src/stm32f4xx_hal_tim.c ****   {
1216:Drivers/STM32F4xx_HAL_Driver/Src/stm32f4xx_hal_tim.c ****     /* Enable the main output */
1217:Drivers/STM32F4xx_HAL_Driver/Src/stm32f4xx_hal_tim.c ****     __HAL_TIM_MOE_ENABLE(htim);
 2655              		.loc 1 1217 0 is_stmt 1
ARM GAS  /tmp/ccvK2xU6.s 			page 68


 2656 00c2 7B68     		ldr	r3, [r7, #4]
 2657 00c4 1B68     		ldr	r3, [r3]
 2658 00c6 7A68     		ldr	r2, [r7, #4]
 2659 00c8 1268     		ldr	r2, [r2]
 2660 00ca 526C     		ldr	r2, [r2, #68]
 2661 00cc 42F40042 		orr	r2, r2, #32768
 2662 00d0 5A64     		str	r2, [r3, #68]
 2663              	.L162:
1218:Drivers/STM32F4xx_HAL_Driver/Src/stm32f4xx_hal_tim.c ****   }
1219:Drivers/STM32F4xx_HAL_Driver/Src/stm32f4xx_hal_tim.c **** 
1220:Drivers/STM32F4xx_HAL_Driver/Src/stm32f4xx_hal_tim.c ****   /* Enable the Peripheral */
1221:Drivers/STM32F4xx_HAL_Driver/Src/stm32f4xx_hal_tim.c ****   __HAL_TIM_ENABLE(htim);
 2664              		.loc 1 1221 0
 2665 00d2 7B68     		ldr	r3, [r7, #4]
 2666 00d4 1B68     		ldr	r3, [r3]
 2667 00d6 7A68     		ldr	r2, [r7, #4]
 2668 00d8 1268     		ldr	r2, [r2]
 2669 00da 1268     		ldr	r2, [r2]
 2670 00dc 42F00102 		orr	r2, r2, #1
 2671 00e0 1A60     		str	r2, [r3]
1222:Drivers/STM32F4xx_HAL_Driver/Src/stm32f4xx_hal_tim.c ****   
1223:Drivers/STM32F4xx_HAL_Driver/Src/stm32f4xx_hal_tim.c ****   /* Return function status */
1224:Drivers/STM32F4xx_HAL_Driver/Src/stm32f4xx_hal_tim.c ****   return HAL_OK;
 2672              		.loc 1 1224 0
 2673 00e2 0023     		movs	r3, #0
1225:Drivers/STM32F4xx_HAL_Driver/Src/stm32f4xx_hal_tim.c **** } 
 2674              		.loc 1 1225 0
 2675 00e4 1846     		mov	r0, r3
 2676 00e6 0837     		adds	r7, r7, #8
 2677              	.LCFI144:
 2678              		.cfi_def_cfa_offset 8
 2679 00e8 BD46     		mov	sp, r7
 2680              	.LCFI145:
 2681              		.cfi_def_cfa_register 13
 2682              		@ sp needed
 2683 00ea 80BD     		pop	{r7, pc}
 2684              	.L166:
 2685              		.align	2
 2686              	.L165:
 2687 00ec 00000140 		.word	1073807360
 2688 00f0 00040140 		.word	1073808384
 2689              		.cfi_endproc
 2690              	.LFE150:
 2692              		.section	.text.HAL_TIM_PWM_Stop_IT,"ax",%progbits
 2693              		.align	1
 2694              		.global	HAL_TIM_PWM_Stop_IT
 2695              		.syntax unified
 2696              		.thumb
 2697              		.thumb_func
 2698              		.fpu fpv4-sp-d16
 2700              	HAL_TIM_PWM_Stop_IT:
 2701              	.LFB151:
1226:Drivers/STM32F4xx_HAL_Driver/Src/stm32f4xx_hal_tim.c **** 
1227:Drivers/STM32F4xx_HAL_Driver/Src/stm32f4xx_hal_tim.c **** /**
1228:Drivers/STM32F4xx_HAL_Driver/Src/stm32f4xx_hal_tim.c ****   * @brief  Stops the PWM signal generation in interrupt mode.
1229:Drivers/STM32F4xx_HAL_Driver/Src/stm32f4xx_hal_tim.c ****   * @param  htim pointer to a TIM_HandleTypeDef structure that contains
1230:Drivers/STM32F4xx_HAL_Driver/Src/stm32f4xx_hal_tim.c ****   *                the configuration information for TIM module.
ARM GAS  /tmp/ccvK2xU6.s 			page 69


1231:Drivers/STM32F4xx_HAL_Driver/Src/stm32f4xx_hal_tim.c ****   * @param  Channel TIM Channels to be disabled.
1232:Drivers/STM32F4xx_HAL_Driver/Src/stm32f4xx_hal_tim.c ****   *          This parameter can be one of the following values:
1233:Drivers/STM32F4xx_HAL_Driver/Src/stm32f4xx_hal_tim.c ****   *            @arg TIM_CHANNEL_1: TIM Channel 1 selected
1234:Drivers/STM32F4xx_HAL_Driver/Src/stm32f4xx_hal_tim.c ****   *            @arg TIM_CHANNEL_2: TIM Channel 2 selected
1235:Drivers/STM32F4xx_HAL_Driver/Src/stm32f4xx_hal_tim.c ****   *            @arg TIM_CHANNEL_3: TIM Channel 3 selected
1236:Drivers/STM32F4xx_HAL_Driver/Src/stm32f4xx_hal_tim.c ****   *            @arg TIM_CHANNEL_4: TIM Channel 4 selected
1237:Drivers/STM32F4xx_HAL_Driver/Src/stm32f4xx_hal_tim.c ****   * @retval HAL status
1238:Drivers/STM32F4xx_HAL_Driver/Src/stm32f4xx_hal_tim.c ****   */
1239:Drivers/STM32F4xx_HAL_Driver/Src/stm32f4xx_hal_tim.c **** HAL_StatusTypeDef HAL_TIM_PWM_Stop_IT (TIM_HandleTypeDef *htim, uint32_t Channel)
1240:Drivers/STM32F4xx_HAL_Driver/Src/stm32f4xx_hal_tim.c **** {
 2702              		.loc 1 1240 0
 2703              		.cfi_startproc
 2704              		@ args = 0, pretend = 0, frame = 8
 2705              		@ frame_needed = 1, uses_anonymous_args = 0
 2706 0000 80B5     		push	{r7, lr}
 2707              	.LCFI146:
 2708              		.cfi_def_cfa_offset 8
 2709              		.cfi_offset 7, -8
 2710              		.cfi_offset 14, -4
 2711 0002 82B0     		sub	sp, sp, #8
 2712              	.LCFI147:
 2713              		.cfi_def_cfa_offset 16
 2714 0004 00AF     		add	r7, sp, #0
 2715              	.LCFI148:
 2716              		.cfi_def_cfa_register 7
 2717 0006 7860     		str	r0, [r7, #4]
 2718 0008 3960     		str	r1, [r7]
1241:Drivers/STM32F4xx_HAL_Driver/Src/stm32f4xx_hal_tim.c ****   /* Check the parameters */
1242:Drivers/STM32F4xx_HAL_Driver/Src/stm32f4xx_hal_tim.c ****   assert_param(IS_TIM_CCX_INSTANCE(htim->Instance, Channel));
1243:Drivers/STM32F4xx_HAL_Driver/Src/stm32f4xx_hal_tim.c ****   
1244:Drivers/STM32F4xx_HAL_Driver/Src/stm32f4xx_hal_tim.c ****   switch (Channel)
 2719              		.loc 1 1244 0
 2720 000a 3B68     		ldr	r3, [r7]
 2721 000c 0C2B     		cmp	r3, #12
 2722 000e 41D8     		bhi	.L181
 2723 0010 01A2     		adr	r2, .L170
 2724 0012 52F823F0 		ldr	pc, [r2, r3, lsl #2]
 2725 0016 00BF     		.p2align 2
 2726              	.L170:
 2727 0018 4D000000 		.word	.L169+1
 2728 001c 95000000 		.word	.L181+1
 2729 0020 95000000 		.word	.L181+1
 2730 0024 95000000 		.word	.L181+1
 2731 0028 5F000000 		.word	.L171+1
 2732 002c 95000000 		.word	.L181+1
 2733 0030 95000000 		.word	.L181+1
 2734 0034 95000000 		.word	.L181+1
 2735 0038 71000000 		.word	.L172+1
 2736 003c 95000000 		.word	.L181+1
 2737 0040 95000000 		.word	.L181+1
 2738 0044 95000000 		.word	.L181+1
 2739 0048 83000000 		.word	.L173+1
 2740              		.p2align 1
 2741              	.L169:
1245:Drivers/STM32F4xx_HAL_Driver/Src/stm32f4xx_hal_tim.c ****   {
1246:Drivers/STM32F4xx_HAL_Driver/Src/stm32f4xx_hal_tim.c ****     case TIM_CHANNEL_1:
1247:Drivers/STM32F4xx_HAL_Driver/Src/stm32f4xx_hal_tim.c ****     {       
ARM GAS  /tmp/ccvK2xU6.s 			page 70


1248:Drivers/STM32F4xx_HAL_Driver/Src/stm32f4xx_hal_tim.c ****       /* Disable the TIM Capture/Compare 1 interrupt */
1249:Drivers/STM32F4xx_HAL_Driver/Src/stm32f4xx_hal_tim.c ****       __HAL_TIM_DISABLE_IT(htim, TIM_IT_CC1);
 2742              		.loc 1 1249 0
 2743 004c 7B68     		ldr	r3, [r7, #4]
 2744 004e 1B68     		ldr	r3, [r3]
 2745 0050 7A68     		ldr	r2, [r7, #4]
 2746 0052 1268     		ldr	r2, [r2]
 2747 0054 D268     		ldr	r2, [r2, #12]
 2748 0056 22F00202 		bic	r2, r2, #2
 2749 005a DA60     		str	r2, [r3, #12]
1250:Drivers/STM32F4xx_HAL_Driver/Src/stm32f4xx_hal_tim.c ****     }
1251:Drivers/STM32F4xx_HAL_Driver/Src/stm32f4xx_hal_tim.c ****     break;
 2750              		.loc 1 1251 0
 2751 005c 1BE0     		b	.L174
 2752              	.L171:
1252:Drivers/STM32F4xx_HAL_Driver/Src/stm32f4xx_hal_tim.c ****     
1253:Drivers/STM32F4xx_HAL_Driver/Src/stm32f4xx_hal_tim.c ****     case TIM_CHANNEL_2:
1254:Drivers/STM32F4xx_HAL_Driver/Src/stm32f4xx_hal_tim.c ****     {
1255:Drivers/STM32F4xx_HAL_Driver/Src/stm32f4xx_hal_tim.c ****       /* Disable the TIM Capture/Compare 2 interrupt */
1256:Drivers/STM32F4xx_HAL_Driver/Src/stm32f4xx_hal_tim.c ****       __HAL_TIM_DISABLE_IT(htim, TIM_IT_CC2);
 2753              		.loc 1 1256 0
 2754 005e 7B68     		ldr	r3, [r7, #4]
 2755 0060 1B68     		ldr	r3, [r3]
 2756 0062 7A68     		ldr	r2, [r7, #4]
 2757 0064 1268     		ldr	r2, [r2]
 2758 0066 D268     		ldr	r2, [r2, #12]
 2759 0068 22F00402 		bic	r2, r2, #4
 2760 006c DA60     		str	r2, [r3, #12]
1257:Drivers/STM32F4xx_HAL_Driver/Src/stm32f4xx_hal_tim.c ****     }
1258:Drivers/STM32F4xx_HAL_Driver/Src/stm32f4xx_hal_tim.c ****     break;
 2761              		.loc 1 1258 0
 2762 006e 12E0     		b	.L174
 2763              	.L172:
1259:Drivers/STM32F4xx_HAL_Driver/Src/stm32f4xx_hal_tim.c ****     
1260:Drivers/STM32F4xx_HAL_Driver/Src/stm32f4xx_hal_tim.c ****     case TIM_CHANNEL_3:
1261:Drivers/STM32F4xx_HAL_Driver/Src/stm32f4xx_hal_tim.c ****     {
1262:Drivers/STM32F4xx_HAL_Driver/Src/stm32f4xx_hal_tim.c ****       /* Disable the TIM Capture/Compare 3 interrupt */
1263:Drivers/STM32F4xx_HAL_Driver/Src/stm32f4xx_hal_tim.c ****       __HAL_TIM_DISABLE_IT(htim, TIM_IT_CC3);
 2764              		.loc 1 1263 0
 2765 0070 7B68     		ldr	r3, [r7, #4]
 2766 0072 1B68     		ldr	r3, [r3]
 2767 0074 7A68     		ldr	r2, [r7, #4]
 2768 0076 1268     		ldr	r2, [r2]
 2769 0078 D268     		ldr	r2, [r2, #12]
 2770 007a 22F00802 		bic	r2, r2, #8
 2771 007e DA60     		str	r2, [r3, #12]
1264:Drivers/STM32F4xx_HAL_Driver/Src/stm32f4xx_hal_tim.c ****     }
1265:Drivers/STM32F4xx_HAL_Driver/Src/stm32f4xx_hal_tim.c ****     break;
 2772              		.loc 1 1265 0
 2773 0080 09E0     		b	.L174
 2774              	.L173:
1266:Drivers/STM32F4xx_HAL_Driver/Src/stm32f4xx_hal_tim.c ****     
1267:Drivers/STM32F4xx_HAL_Driver/Src/stm32f4xx_hal_tim.c ****     case TIM_CHANNEL_4:
1268:Drivers/STM32F4xx_HAL_Driver/Src/stm32f4xx_hal_tim.c ****     {
1269:Drivers/STM32F4xx_HAL_Driver/Src/stm32f4xx_hal_tim.c ****       /* Disable the TIM Capture/Compare 4 interrupt */
1270:Drivers/STM32F4xx_HAL_Driver/Src/stm32f4xx_hal_tim.c ****       __HAL_TIM_DISABLE_IT(htim, TIM_IT_CC4);
 2775              		.loc 1 1270 0
ARM GAS  /tmp/ccvK2xU6.s 			page 71


 2776 0082 7B68     		ldr	r3, [r7, #4]
 2777 0084 1B68     		ldr	r3, [r3]
 2778 0086 7A68     		ldr	r2, [r7, #4]
 2779 0088 1268     		ldr	r2, [r2]
 2780 008a D268     		ldr	r2, [r2, #12]
 2781 008c 22F01002 		bic	r2, r2, #16
 2782 0090 DA60     		str	r2, [r3, #12]
1271:Drivers/STM32F4xx_HAL_Driver/Src/stm32f4xx_hal_tim.c ****     }
1272:Drivers/STM32F4xx_HAL_Driver/Src/stm32f4xx_hal_tim.c ****     break;
 2783              		.loc 1 1272 0
 2784 0092 00E0     		b	.L174
 2785              	.L181:
1273:Drivers/STM32F4xx_HAL_Driver/Src/stm32f4xx_hal_tim.c ****     
1274:Drivers/STM32F4xx_HAL_Driver/Src/stm32f4xx_hal_tim.c ****     default:
1275:Drivers/STM32F4xx_HAL_Driver/Src/stm32f4xx_hal_tim.c ****     break; 
 2786              		.loc 1 1275 0
 2787 0094 00BF     		nop
 2788              	.L174:
1276:Drivers/STM32F4xx_HAL_Driver/Src/stm32f4xx_hal_tim.c ****   }
1277:Drivers/STM32F4xx_HAL_Driver/Src/stm32f4xx_hal_tim.c ****   
1278:Drivers/STM32F4xx_HAL_Driver/Src/stm32f4xx_hal_tim.c ****   /* Disable the Capture compare channel */
1279:Drivers/STM32F4xx_HAL_Driver/Src/stm32f4xx_hal_tim.c ****   TIM_CCxChannelCmd(htim->Instance, Channel, TIM_CCx_DISABLE);
 2789              		.loc 1 1279 0
 2790 0096 7B68     		ldr	r3, [r7, #4]
 2791 0098 1B68     		ldr	r3, [r3]
 2792 009a 0022     		movs	r2, #0
 2793 009c 3968     		ldr	r1, [r7]
 2794 009e 1846     		mov	r0, r3
 2795 00a0 FFF7FEFF 		bl	TIM_CCxChannelCmd
1280:Drivers/STM32F4xx_HAL_Driver/Src/stm32f4xx_hal_tim.c ****   
1281:Drivers/STM32F4xx_HAL_Driver/Src/stm32f4xx_hal_tim.c ****   if(IS_TIM_ADVANCED_INSTANCE(htim->Instance) != RESET)  
 2796              		.loc 1 1281 0
 2797 00a4 7B68     		ldr	r3, [r7, #4]
 2798 00a6 1B68     		ldr	r3, [r3]
 2799 00a8 204A     		ldr	r2, .L182
 2800 00aa 9342     		cmp	r3, r2
 2801 00ac 04D0     		beq	.L175
 2802              		.loc 1 1281 0 is_stmt 0 discriminator 2
 2803 00ae 7B68     		ldr	r3, [r7, #4]
 2804 00b0 1B68     		ldr	r3, [r3]
 2805 00b2 1F4A     		ldr	r2, .L182+4
 2806 00b4 9342     		cmp	r3, r2
 2807 00b6 01D1     		bne	.L176
 2808              	.L175:
 2809              		.loc 1 1281 0 discriminator 3
 2810 00b8 0123     		movs	r3, #1
 2811 00ba 00E0     		b	.L177
 2812              	.L176:
 2813              		.loc 1 1281 0 discriminator 4
 2814 00bc 0023     		movs	r3, #0
 2815              	.L177:
 2816              		.loc 1 1281 0 discriminator 6
 2817 00be 002B     		cmp	r3, #0
 2818 00c0 17D0     		beq	.L178
1282:Drivers/STM32F4xx_HAL_Driver/Src/stm32f4xx_hal_tim.c ****   {
1283:Drivers/STM32F4xx_HAL_Driver/Src/stm32f4xx_hal_tim.c ****     /* Disable the Main Output */
1284:Drivers/STM32F4xx_HAL_Driver/Src/stm32f4xx_hal_tim.c ****     __HAL_TIM_MOE_DISABLE(htim);
ARM GAS  /tmp/ccvK2xU6.s 			page 72


 2819              		.loc 1 1284 0 is_stmt 1
 2820 00c2 7B68     		ldr	r3, [r7, #4]
 2821 00c4 1B68     		ldr	r3, [r3]
 2822 00c6 1A6A     		ldr	r2, [r3, #32]
 2823 00c8 41F21113 		movw	r3, #4369
 2824 00cc 1340     		ands	r3, r3, r2
 2825 00ce 002B     		cmp	r3, #0
 2826 00d0 0FD1     		bne	.L178
 2827              		.loc 1 1284 0 is_stmt 0 discriminator 1
 2828 00d2 7B68     		ldr	r3, [r7, #4]
 2829 00d4 1B68     		ldr	r3, [r3]
 2830 00d6 1A6A     		ldr	r2, [r3, #32]
 2831 00d8 40F24443 		movw	r3, #1092
 2832 00dc 1340     		ands	r3, r3, r2
 2833 00de 002B     		cmp	r3, #0
 2834 00e0 07D1     		bne	.L178
 2835              		.loc 1 1284 0 discriminator 2
 2836 00e2 7B68     		ldr	r3, [r7, #4]
 2837 00e4 1B68     		ldr	r3, [r3]
 2838 00e6 7A68     		ldr	r2, [r7, #4]
 2839 00e8 1268     		ldr	r2, [r2]
 2840 00ea 526C     		ldr	r2, [r2, #68]
 2841 00ec 22F40042 		bic	r2, r2, #32768
 2842 00f0 5A64     		str	r2, [r3, #68]
 2843              	.L178:
1285:Drivers/STM32F4xx_HAL_Driver/Src/stm32f4xx_hal_tim.c ****   }
1286:Drivers/STM32F4xx_HAL_Driver/Src/stm32f4xx_hal_tim.c ****   
1287:Drivers/STM32F4xx_HAL_Driver/Src/stm32f4xx_hal_tim.c ****   /* Disable the Peripheral */
1288:Drivers/STM32F4xx_HAL_Driver/Src/stm32f4xx_hal_tim.c ****   __HAL_TIM_DISABLE(htim);
 2844              		.loc 1 1288 0 is_stmt 1
 2845 00f2 7B68     		ldr	r3, [r7, #4]
 2846 00f4 1B68     		ldr	r3, [r3]
 2847 00f6 1A6A     		ldr	r2, [r3, #32]
 2848 00f8 41F21113 		movw	r3, #4369
 2849 00fc 1340     		ands	r3, r3, r2
 2850 00fe 002B     		cmp	r3, #0
 2851 0100 0FD1     		bne	.L179
 2852              		.loc 1 1288 0 is_stmt 0 discriminator 1
 2853 0102 7B68     		ldr	r3, [r7, #4]
 2854 0104 1B68     		ldr	r3, [r3]
 2855 0106 1A6A     		ldr	r2, [r3, #32]
 2856 0108 40F24443 		movw	r3, #1092
 2857 010c 1340     		ands	r3, r3, r2
 2858 010e 002B     		cmp	r3, #0
 2859 0110 07D1     		bne	.L179
 2860              		.loc 1 1288 0 discriminator 2
 2861 0112 7B68     		ldr	r3, [r7, #4]
 2862 0114 1B68     		ldr	r3, [r3]
 2863 0116 7A68     		ldr	r2, [r7, #4]
 2864 0118 1268     		ldr	r2, [r2]
 2865 011a 1268     		ldr	r2, [r2]
 2866 011c 22F00102 		bic	r2, r2, #1
 2867 0120 1A60     		str	r2, [r3]
 2868              	.L179:
1289:Drivers/STM32F4xx_HAL_Driver/Src/stm32f4xx_hal_tim.c ****   
1290:Drivers/STM32F4xx_HAL_Driver/Src/stm32f4xx_hal_tim.c ****   /* Return function status */
1291:Drivers/STM32F4xx_HAL_Driver/Src/stm32f4xx_hal_tim.c ****   return HAL_OK;
ARM GAS  /tmp/ccvK2xU6.s 			page 73


 2869              		.loc 1 1291 0 is_stmt 1
 2870 0122 0023     		movs	r3, #0
1292:Drivers/STM32F4xx_HAL_Driver/Src/stm32f4xx_hal_tim.c **** } 
 2871              		.loc 1 1292 0
 2872 0124 1846     		mov	r0, r3
 2873 0126 0837     		adds	r7, r7, #8
 2874              	.LCFI149:
 2875              		.cfi_def_cfa_offset 8
 2876 0128 BD46     		mov	sp, r7
 2877              	.LCFI150:
 2878              		.cfi_def_cfa_register 13
 2879              		@ sp needed
 2880 012a 80BD     		pop	{r7, pc}
 2881              	.L183:
 2882              		.align	2
 2883              	.L182:
 2884 012c 00000140 		.word	1073807360
 2885 0130 00040140 		.word	1073808384
 2886              		.cfi_endproc
 2887              	.LFE151:
 2889              		.section	.text.HAL_TIM_PWM_Start_DMA,"ax",%progbits
 2890              		.align	1
 2891              		.global	HAL_TIM_PWM_Start_DMA
 2892              		.syntax unified
 2893              		.thumb
 2894              		.thumb_func
 2895              		.fpu fpv4-sp-d16
 2897              	HAL_TIM_PWM_Start_DMA:
 2898              	.LFB152:
1293:Drivers/STM32F4xx_HAL_Driver/Src/stm32f4xx_hal_tim.c **** 
1294:Drivers/STM32F4xx_HAL_Driver/Src/stm32f4xx_hal_tim.c **** /**
1295:Drivers/STM32F4xx_HAL_Driver/Src/stm32f4xx_hal_tim.c ****   * @brief  Starts the TIM PWM signal generation in DMA mode.
1296:Drivers/STM32F4xx_HAL_Driver/Src/stm32f4xx_hal_tim.c ****   * @param  htim pointer to a TIM_HandleTypeDef structure that contains
1297:Drivers/STM32F4xx_HAL_Driver/Src/stm32f4xx_hal_tim.c ****   *                the configuration information for TIM module.
1298:Drivers/STM32F4xx_HAL_Driver/Src/stm32f4xx_hal_tim.c ****   * @param  Channel TIM Channels to be enabled.
1299:Drivers/STM32F4xx_HAL_Driver/Src/stm32f4xx_hal_tim.c ****   *          This parameter can be one of the following values:
1300:Drivers/STM32F4xx_HAL_Driver/Src/stm32f4xx_hal_tim.c ****   *            @arg TIM_CHANNEL_1: TIM Channel 1 selected
1301:Drivers/STM32F4xx_HAL_Driver/Src/stm32f4xx_hal_tim.c ****   *            @arg TIM_CHANNEL_2: TIM Channel 2 selected
1302:Drivers/STM32F4xx_HAL_Driver/Src/stm32f4xx_hal_tim.c ****   *            @arg TIM_CHANNEL_3: TIM Channel 3 selected
1303:Drivers/STM32F4xx_HAL_Driver/Src/stm32f4xx_hal_tim.c ****   *            @arg TIM_CHANNEL_4: TIM Channel 4 selected
1304:Drivers/STM32F4xx_HAL_Driver/Src/stm32f4xx_hal_tim.c ****   * @param  pData The source Buffer address.
1305:Drivers/STM32F4xx_HAL_Driver/Src/stm32f4xx_hal_tim.c ****   * @param  Length The length of data to be transferred from memory to TIM peripheral
1306:Drivers/STM32F4xx_HAL_Driver/Src/stm32f4xx_hal_tim.c ****   * @retval HAL status
1307:Drivers/STM32F4xx_HAL_Driver/Src/stm32f4xx_hal_tim.c ****   */
1308:Drivers/STM32F4xx_HAL_Driver/Src/stm32f4xx_hal_tim.c **** HAL_StatusTypeDef HAL_TIM_PWM_Start_DMA(TIM_HandleTypeDef *htim, uint32_t Channel, uint32_t *pData,
1309:Drivers/STM32F4xx_HAL_Driver/Src/stm32f4xx_hal_tim.c **** {
 2899              		.loc 1 1309 0
 2900              		.cfi_startproc
 2901              		@ args = 0, pretend = 0, frame = 16
 2902              		@ frame_needed = 1, uses_anonymous_args = 0
 2903 0000 80B5     		push	{r7, lr}
 2904              	.LCFI151:
 2905              		.cfi_def_cfa_offset 8
 2906              		.cfi_offset 7, -8
 2907              		.cfi_offset 14, -4
 2908 0002 84B0     		sub	sp, sp, #16
 2909              	.LCFI152:
ARM GAS  /tmp/ccvK2xU6.s 			page 74


 2910              		.cfi_def_cfa_offset 24
 2911 0004 00AF     		add	r7, sp, #0
 2912              	.LCFI153:
 2913              		.cfi_def_cfa_register 7
 2914 0006 F860     		str	r0, [r7, #12]
 2915 0008 B960     		str	r1, [r7, #8]
 2916 000a 7A60     		str	r2, [r7, #4]
 2917 000c 7B80     		strh	r3, [r7, #2]	@ movhi
1310:Drivers/STM32F4xx_HAL_Driver/Src/stm32f4xx_hal_tim.c ****   /* Check the parameters */
1311:Drivers/STM32F4xx_HAL_Driver/Src/stm32f4xx_hal_tim.c ****   assert_param(IS_TIM_CCX_INSTANCE(htim->Instance, Channel));
1312:Drivers/STM32F4xx_HAL_Driver/Src/stm32f4xx_hal_tim.c ****   
1313:Drivers/STM32F4xx_HAL_Driver/Src/stm32f4xx_hal_tim.c ****   if((htim->State == HAL_TIM_STATE_BUSY))
 2918              		.loc 1 1313 0
 2919 000e FB68     		ldr	r3, [r7, #12]
 2920 0010 93F83930 		ldrb	r3, [r3, #57]
 2921 0014 DBB2     		uxtb	r3, r3
 2922 0016 022B     		cmp	r3, #2
 2923 0018 01D1     		bne	.L185
1314:Drivers/STM32F4xx_HAL_Driver/Src/stm32f4xx_hal_tim.c ****   {
1315:Drivers/STM32F4xx_HAL_Driver/Src/stm32f4xx_hal_tim.c ****      return HAL_BUSY;
 2924              		.loc 1 1315 0
 2925 001a 0223     		movs	r3, #2
 2926 001c C6E0     		b	.L186
 2927              	.L185:
1316:Drivers/STM32F4xx_HAL_Driver/Src/stm32f4xx_hal_tim.c ****   }
1317:Drivers/STM32F4xx_HAL_Driver/Src/stm32f4xx_hal_tim.c ****   else if((htim->State == HAL_TIM_STATE_READY))
 2928              		.loc 1 1317 0
 2929 001e FB68     		ldr	r3, [r7, #12]
 2930 0020 93F83930 		ldrb	r3, [r3, #57]
 2931 0024 DBB2     		uxtb	r3, r3
 2932 0026 012B     		cmp	r3, #1
 2933 0028 0BD1     		bne	.L187
1318:Drivers/STM32F4xx_HAL_Driver/Src/stm32f4xx_hal_tim.c ****   {
1319:Drivers/STM32F4xx_HAL_Driver/Src/stm32f4xx_hal_tim.c ****     if(((uint32_t)pData == 0U) && (Length > 0)) 
 2934              		.loc 1 1319 0
 2935 002a 7B68     		ldr	r3, [r7, #4]
 2936 002c 002B     		cmp	r3, #0
 2937 002e 04D1     		bne	.L188
 2938              		.loc 1 1319 0 is_stmt 0 discriminator 1
 2939 0030 7B88     		ldrh	r3, [r7, #2]
 2940 0032 002B     		cmp	r3, #0
 2941 0034 01D0     		beq	.L188
1320:Drivers/STM32F4xx_HAL_Driver/Src/stm32f4xx_hal_tim.c ****     {
1321:Drivers/STM32F4xx_HAL_Driver/Src/stm32f4xx_hal_tim.c ****       return HAL_ERROR;                                    
 2942              		.loc 1 1321 0 is_stmt 1
 2943 0036 0123     		movs	r3, #1
 2944 0038 B8E0     		b	.L186
 2945              	.L188:
1322:Drivers/STM32F4xx_HAL_Driver/Src/stm32f4xx_hal_tim.c ****     }
1323:Drivers/STM32F4xx_HAL_Driver/Src/stm32f4xx_hal_tim.c ****     else
1324:Drivers/STM32F4xx_HAL_Driver/Src/stm32f4xx_hal_tim.c ****     {
1325:Drivers/STM32F4xx_HAL_Driver/Src/stm32f4xx_hal_tim.c ****       htim->State = HAL_TIM_STATE_BUSY;
 2946              		.loc 1 1325 0
 2947 003a FB68     		ldr	r3, [r7, #12]
 2948 003c 0222     		movs	r2, #2
 2949 003e 83F83920 		strb	r2, [r3, #57]
 2950              	.L187:
ARM GAS  /tmp/ccvK2xU6.s 			page 75


1326:Drivers/STM32F4xx_HAL_Driver/Src/stm32f4xx_hal_tim.c ****     }
1327:Drivers/STM32F4xx_HAL_Driver/Src/stm32f4xx_hal_tim.c ****   }    
1328:Drivers/STM32F4xx_HAL_Driver/Src/stm32f4xx_hal_tim.c ****   switch (Channel)
 2951              		.loc 1 1328 0
 2952 0042 BB68     		ldr	r3, [r7, #8]
 2953 0044 0C2B     		cmp	r3, #12
 2954 0046 00F28980 		bhi	.L200
 2955 004a 01A2     		adr	r2, .L191
 2956 004c 52F823F0 		ldr	pc, [r2, r3, lsl #2]
 2957              		.p2align 2
 2958              	.L191:
 2959 0050 85000000 		.word	.L190+1
 2960 0054 5D010000 		.word	.L200+1
 2961 0058 5D010000 		.word	.L200+1
 2962 005c 5D010000 		.word	.L200+1
 2963 0060 BB000000 		.word	.L192+1
 2964 0064 5D010000 		.word	.L200+1
 2965 0068 5D010000 		.word	.L200+1
 2966 006c 5D010000 		.word	.L200+1
 2967 0070 F1000000 		.word	.L193+1
 2968 0074 5D010000 		.word	.L200+1
 2969 0078 5D010000 		.word	.L200+1
 2970 007c 5D010000 		.word	.L200+1
 2971 0080 27010000 		.word	.L194+1
 2972              		.p2align 1
 2973              	.L190:
1329:Drivers/STM32F4xx_HAL_Driver/Src/stm32f4xx_hal_tim.c ****   {
1330:Drivers/STM32F4xx_HAL_Driver/Src/stm32f4xx_hal_tim.c ****     case TIM_CHANNEL_1:
1331:Drivers/STM32F4xx_HAL_Driver/Src/stm32f4xx_hal_tim.c ****     {      
1332:Drivers/STM32F4xx_HAL_Driver/Src/stm32f4xx_hal_tim.c ****       /* Set the DMA Period elapsed callback */
1333:Drivers/STM32F4xx_HAL_Driver/Src/stm32f4xx_hal_tim.c ****       htim->hdma[TIM_DMA_ID_CC1]->XferCpltCallback = TIM_DMADelayPulseCplt;
 2974              		.loc 1 1333 0
 2975 0084 FB68     		ldr	r3, [r7, #12]
 2976 0086 1B6A     		ldr	r3, [r3, #32]
 2977 0088 4A4A     		ldr	r2, .L201
 2978 008a DA63     		str	r2, [r3, #60]
1334:Drivers/STM32F4xx_HAL_Driver/Src/stm32f4xx_hal_tim.c ****      
1335:Drivers/STM32F4xx_HAL_Driver/Src/stm32f4xx_hal_tim.c ****       /* Set the DMA error callback */
1336:Drivers/STM32F4xx_HAL_Driver/Src/stm32f4xx_hal_tim.c ****       htim->hdma[TIM_DMA_ID_CC1]->XferErrorCallback = TIM_DMAError ;
 2979              		.loc 1 1336 0
 2980 008c FB68     		ldr	r3, [r7, #12]
 2981 008e 1B6A     		ldr	r3, [r3, #32]
 2982 0090 494A     		ldr	r2, .L201+4
 2983 0092 DA64     		str	r2, [r3, #76]
1337:Drivers/STM32F4xx_HAL_Driver/Src/stm32f4xx_hal_tim.c ****       
1338:Drivers/STM32F4xx_HAL_Driver/Src/stm32f4xx_hal_tim.c ****       /* Enable the DMA Stream */
1339:Drivers/STM32F4xx_HAL_Driver/Src/stm32f4xx_hal_tim.c ****       HAL_DMA_Start_IT(htim->hdma[TIM_DMA_ID_CC1], (uint32_t)pData, (uint32_t)&htim->Instance->CCR1
 2984              		.loc 1 1339 0
 2985 0094 FB68     		ldr	r3, [r7, #12]
 2986 0096 186A     		ldr	r0, [r3, #32]
 2987 0098 7968     		ldr	r1, [r7, #4]
 2988 009a FB68     		ldr	r3, [r7, #12]
 2989 009c 1B68     		ldr	r3, [r3]
 2990 009e 3433     		adds	r3, r3, #52
 2991 00a0 1A46     		mov	r2, r3
 2992 00a2 7B88     		ldrh	r3, [r7, #2]
 2993 00a4 FFF7FEFF 		bl	HAL_DMA_Start_IT
ARM GAS  /tmp/ccvK2xU6.s 			page 76


1340:Drivers/STM32F4xx_HAL_Driver/Src/stm32f4xx_hal_tim.c ****       
1341:Drivers/STM32F4xx_HAL_Driver/Src/stm32f4xx_hal_tim.c ****       /* Enable the TIM Capture/Compare 1 DMA request */
1342:Drivers/STM32F4xx_HAL_Driver/Src/stm32f4xx_hal_tim.c ****       __HAL_TIM_ENABLE_DMA(htim, TIM_DMA_CC1);
 2994              		.loc 1 1342 0
 2995 00a8 FB68     		ldr	r3, [r7, #12]
 2996 00aa 1B68     		ldr	r3, [r3]
 2997 00ac FA68     		ldr	r2, [r7, #12]
 2998 00ae 1268     		ldr	r2, [r2]
 2999 00b0 D268     		ldr	r2, [r2, #12]
 3000 00b2 42F40072 		orr	r2, r2, #512
 3001 00b6 DA60     		str	r2, [r3, #12]
1343:Drivers/STM32F4xx_HAL_Driver/Src/stm32f4xx_hal_tim.c ****     }
1344:Drivers/STM32F4xx_HAL_Driver/Src/stm32f4xx_hal_tim.c ****     break;
 3002              		.loc 1 1344 0
 3003 00b8 51E0     		b	.L195
 3004              	.L192:
1345:Drivers/STM32F4xx_HAL_Driver/Src/stm32f4xx_hal_tim.c ****     
1346:Drivers/STM32F4xx_HAL_Driver/Src/stm32f4xx_hal_tim.c ****     case TIM_CHANNEL_2:
1347:Drivers/STM32F4xx_HAL_Driver/Src/stm32f4xx_hal_tim.c ****     {
1348:Drivers/STM32F4xx_HAL_Driver/Src/stm32f4xx_hal_tim.c ****       /* Set the DMA Period elapsed callback */
1349:Drivers/STM32F4xx_HAL_Driver/Src/stm32f4xx_hal_tim.c ****       htim->hdma[TIM_DMA_ID_CC2]->XferCpltCallback = TIM_DMADelayPulseCplt;
 3005              		.loc 1 1349 0
 3006 00ba FB68     		ldr	r3, [r7, #12]
 3007 00bc 5B6A     		ldr	r3, [r3, #36]
 3008 00be 3D4A     		ldr	r2, .L201
 3009 00c0 DA63     		str	r2, [r3, #60]
1350:Drivers/STM32F4xx_HAL_Driver/Src/stm32f4xx_hal_tim.c ****      
1351:Drivers/STM32F4xx_HAL_Driver/Src/stm32f4xx_hal_tim.c ****       /* Set the DMA error callback */
1352:Drivers/STM32F4xx_HAL_Driver/Src/stm32f4xx_hal_tim.c ****       htim->hdma[TIM_DMA_ID_CC2]->XferErrorCallback = TIM_DMAError ;
 3010              		.loc 1 1352 0
 3011 00c2 FB68     		ldr	r3, [r7, #12]
 3012 00c4 5B6A     		ldr	r3, [r3, #36]
 3013 00c6 3C4A     		ldr	r2, .L201+4
 3014 00c8 DA64     		str	r2, [r3, #76]
1353:Drivers/STM32F4xx_HAL_Driver/Src/stm32f4xx_hal_tim.c ****       
1354:Drivers/STM32F4xx_HAL_Driver/Src/stm32f4xx_hal_tim.c ****       /* Enable the DMA Stream */
1355:Drivers/STM32F4xx_HAL_Driver/Src/stm32f4xx_hal_tim.c ****       HAL_DMA_Start_IT(htim->hdma[TIM_DMA_ID_CC2], (uint32_t)pData, (uint32_t)&htim->Instance->CCR2
 3015              		.loc 1 1355 0
 3016 00ca FB68     		ldr	r3, [r7, #12]
 3017 00cc 586A     		ldr	r0, [r3, #36]
 3018 00ce 7968     		ldr	r1, [r7, #4]
 3019 00d0 FB68     		ldr	r3, [r7, #12]
 3020 00d2 1B68     		ldr	r3, [r3]
 3021 00d4 3833     		adds	r3, r3, #56
 3022 00d6 1A46     		mov	r2, r3
 3023 00d8 7B88     		ldrh	r3, [r7, #2]
 3024 00da FFF7FEFF 		bl	HAL_DMA_Start_IT
1356:Drivers/STM32F4xx_HAL_Driver/Src/stm32f4xx_hal_tim.c ****       
1357:Drivers/STM32F4xx_HAL_Driver/Src/stm32f4xx_hal_tim.c ****       /* Enable the TIM Capture/Compare 2 DMA request */
1358:Drivers/STM32F4xx_HAL_Driver/Src/stm32f4xx_hal_tim.c ****       __HAL_TIM_ENABLE_DMA(htim, TIM_DMA_CC2);
 3025              		.loc 1 1358 0
 3026 00de FB68     		ldr	r3, [r7, #12]
 3027 00e0 1B68     		ldr	r3, [r3]
 3028 00e2 FA68     		ldr	r2, [r7, #12]
 3029 00e4 1268     		ldr	r2, [r2]
 3030 00e6 D268     		ldr	r2, [r2, #12]
 3031 00e8 42F48062 		orr	r2, r2, #1024
ARM GAS  /tmp/ccvK2xU6.s 			page 77


 3032 00ec DA60     		str	r2, [r3, #12]
1359:Drivers/STM32F4xx_HAL_Driver/Src/stm32f4xx_hal_tim.c ****     }
1360:Drivers/STM32F4xx_HAL_Driver/Src/stm32f4xx_hal_tim.c ****     break;
 3033              		.loc 1 1360 0
 3034 00ee 36E0     		b	.L195
 3035              	.L193:
1361:Drivers/STM32F4xx_HAL_Driver/Src/stm32f4xx_hal_tim.c ****     
1362:Drivers/STM32F4xx_HAL_Driver/Src/stm32f4xx_hal_tim.c ****     case TIM_CHANNEL_3:
1363:Drivers/STM32F4xx_HAL_Driver/Src/stm32f4xx_hal_tim.c ****     {
1364:Drivers/STM32F4xx_HAL_Driver/Src/stm32f4xx_hal_tim.c ****       /* Set the DMA Period elapsed callback */
1365:Drivers/STM32F4xx_HAL_Driver/Src/stm32f4xx_hal_tim.c ****       htim->hdma[TIM_DMA_ID_CC3]->XferCpltCallback = TIM_DMADelayPulseCplt;
 3036              		.loc 1 1365 0
 3037 00f0 FB68     		ldr	r3, [r7, #12]
 3038 00f2 9B6A     		ldr	r3, [r3, #40]
 3039 00f4 2F4A     		ldr	r2, .L201
 3040 00f6 DA63     		str	r2, [r3, #60]
1366:Drivers/STM32F4xx_HAL_Driver/Src/stm32f4xx_hal_tim.c ****      
1367:Drivers/STM32F4xx_HAL_Driver/Src/stm32f4xx_hal_tim.c ****       /* Set the DMA error callback */
1368:Drivers/STM32F4xx_HAL_Driver/Src/stm32f4xx_hal_tim.c ****       htim->hdma[TIM_DMA_ID_CC3]->XferErrorCallback = TIM_DMAError ;
 3041              		.loc 1 1368 0
 3042 00f8 FB68     		ldr	r3, [r7, #12]
 3043 00fa 9B6A     		ldr	r3, [r3, #40]
 3044 00fc 2E4A     		ldr	r2, .L201+4
 3045 00fe DA64     		str	r2, [r3, #76]
1369:Drivers/STM32F4xx_HAL_Driver/Src/stm32f4xx_hal_tim.c ****       
1370:Drivers/STM32F4xx_HAL_Driver/Src/stm32f4xx_hal_tim.c ****       /* Enable the DMA Stream */
1371:Drivers/STM32F4xx_HAL_Driver/Src/stm32f4xx_hal_tim.c ****       HAL_DMA_Start_IT(htim->hdma[TIM_DMA_ID_CC3], (uint32_t)pData, (uint32_t)&htim->Instance->CCR3
 3046              		.loc 1 1371 0
 3047 0100 FB68     		ldr	r3, [r7, #12]
 3048 0102 986A     		ldr	r0, [r3, #40]
 3049 0104 7968     		ldr	r1, [r7, #4]
 3050 0106 FB68     		ldr	r3, [r7, #12]
 3051 0108 1B68     		ldr	r3, [r3]
 3052 010a 3C33     		adds	r3, r3, #60
 3053 010c 1A46     		mov	r2, r3
 3054 010e 7B88     		ldrh	r3, [r7, #2]
 3055 0110 FFF7FEFF 		bl	HAL_DMA_Start_IT
1372:Drivers/STM32F4xx_HAL_Driver/Src/stm32f4xx_hal_tim.c ****       
1373:Drivers/STM32F4xx_HAL_Driver/Src/stm32f4xx_hal_tim.c ****       /* Enable the TIM Output Capture/Compare 3 request */
1374:Drivers/STM32F4xx_HAL_Driver/Src/stm32f4xx_hal_tim.c ****       __HAL_TIM_ENABLE_DMA(htim, TIM_DMA_CC3);
 3056              		.loc 1 1374 0
 3057 0114 FB68     		ldr	r3, [r7, #12]
 3058 0116 1B68     		ldr	r3, [r3]
 3059 0118 FA68     		ldr	r2, [r7, #12]
 3060 011a 1268     		ldr	r2, [r2]
 3061 011c D268     		ldr	r2, [r2, #12]
 3062 011e 42F40062 		orr	r2, r2, #2048
 3063 0122 DA60     		str	r2, [r3, #12]
1375:Drivers/STM32F4xx_HAL_Driver/Src/stm32f4xx_hal_tim.c ****     }
1376:Drivers/STM32F4xx_HAL_Driver/Src/stm32f4xx_hal_tim.c ****     break;
 3064              		.loc 1 1376 0
 3065 0124 1BE0     		b	.L195
 3066              	.L194:
1377:Drivers/STM32F4xx_HAL_Driver/Src/stm32f4xx_hal_tim.c ****     
1378:Drivers/STM32F4xx_HAL_Driver/Src/stm32f4xx_hal_tim.c ****     case TIM_CHANNEL_4:
1379:Drivers/STM32F4xx_HAL_Driver/Src/stm32f4xx_hal_tim.c ****     {
1380:Drivers/STM32F4xx_HAL_Driver/Src/stm32f4xx_hal_tim.c ****      /* Set the DMA Period elapsed callback */
ARM GAS  /tmp/ccvK2xU6.s 			page 78


1381:Drivers/STM32F4xx_HAL_Driver/Src/stm32f4xx_hal_tim.c ****       htim->hdma[TIM_DMA_ID_CC4]->XferCpltCallback = TIM_DMADelayPulseCplt;
 3067              		.loc 1 1381 0
 3068 0126 FB68     		ldr	r3, [r7, #12]
 3069 0128 DB6A     		ldr	r3, [r3, #44]
 3070 012a 224A     		ldr	r2, .L201
 3071 012c DA63     		str	r2, [r3, #60]
1382:Drivers/STM32F4xx_HAL_Driver/Src/stm32f4xx_hal_tim.c ****      
1383:Drivers/STM32F4xx_HAL_Driver/Src/stm32f4xx_hal_tim.c ****       /* Set the DMA error callback */
1384:Drivers/STM32F4xx_HAL_Driver/Src/stm32f4xx_hal_tim.c ****       htim->hdma[TIM_DMA_ID_CC4]->XferErrorCallback = TIM_DMAError ;
 3072              		.loc 1 1384 0
 3073 012e FB68     		ldr	r3, [r7, #12]
 3074 0130 DB6A     		ldr	r3, [r3, #44]
 3075 0132 214A     		ldr	r2, .L201+4
 3076 0134 DA64     		str	r2, [r3, #76]
1385:Drivers/STM32F4xx_HAL_Driver/Src/stm32f4xx_hal_tim.c ****       
1386:Drivers/STM32F4xx_HAL_Driver/Src/stm32f4xx_hal_tim.c ****       /* Enable the DMA Stream */
1387:Drivers/STM32F4xx_HAL_Driver/Src/stm32f4xx_hal_tim.c ****       HAL_DMA_Start_IT(htim->hdma[TIM_DMA_ID_CC4], (uint32_t)pData, (uint32_t)&htim->Instance->CCR4
 3077              		.loc 1 1387 0
 3078 0136 FB68     		ldr	r3, [r7, #12]
 3079 0138 D86A     		ldr	r0, [r3, #44]
 3080 013a 7968     		ldr	r1, [r7, #4]
 3081 013c FB68     		ldr	r3, [r7, #12]
 3082 013e 1B68     		ldr	r3, [r3]
 3083 0140 4033     		adds	r3, r3, #64
 3084 0142 1A46     		mov	r2, r3
 3085 0144 7B88     		ldrh	r3, [r7, #2]
 3086 0146 FFF7FEFF 		bl	HAL_DMA_Start_IT
1388:Drivers/STM32F4xx_HAL_Driver/Src/stm32f4xx_hal_tim.c ****       
1389:Drivers/STM32F4xx_HAL_Driver/Src/stm32f4xx_hal_tim.c ****       /* Enable the TIM Capture/Compare 4 DMA request */
1390:Drivers/STM32F4xx_HAL_Driver/Src/stm32f4xx_hal_tim.c ****       __HAL_TIM_ENABLE_DMA(htim, TIM_DMA_CC4);
 3087              		.loc 1 1390 0
 3088 014a FB68     		ldr	r3, [r7, #12]
 3089 014c 1B68     		ldr	r3, [r3]
 3090 014e FA68     		ldr	r2, [r7, #12]
 3091 0150 1268     		ldr	r2, [r2]
 3092 0152 D268     		ldr	r2, [r2, #12]
 3093 0154 42F48052 		orr	r2, r2, #4096
 3094 0158 DA60     		str	r2, [r3, #12]
1391:Drivers/STM32F4xx_HAL_Driver/Src/stm32f4xx_hal_tim.c ****     }
1392:Drivers/STM32F4xx_HAL_Driver/Src/stm32f4xx_hal_tim.c ****     break;
 3095              		.loc 1 1392 0
 3096 015a 00E0     		b	.L195
 3097              	.L200:
1393:Drivers/STM32F4xx_HAL_Driver/Src/stm32f4xx_hal_tim.c ****     
1394:Drivers/STM32F4xx_HAL_Driver/Src/stm32f4xx_hal_tim.c ****     default:
1395:Drivers/STM32F4xx_HAL_Driver/Src/stm32f4xx_hal_tim.c ****     break;
 3098              		.loc 1 1395 0
 3099 015c 00BF     		nop
 3100              	.L195:
1396:Drivers/STM32F4xx_HAL_Driver/Src/stm32f4xx_hal_tim.c ****   }
1397:Drivers/STM32F4xx_HAL_Driver/Src/stm32f4xx_hal_tim.c **** 
1398:Drivers/STM32F4xx_HAL_Driver/Src/stm32f4xx_hal_tim.c ****   /* Enable the Capture compare channel */
1399:Drivers/STM32F4xx_HAL_Driver/Src/stm32f4xx_hal_tim.c ****   TIM_CCxChannelCmd(htim->Instance, Channel, TIM_CCx_ENABLE);
 3101              		.loc 1 1399 0
 3102 015e FB68     		ldr	r3, [r7, #12]
 3103 0160 1B68     		ldr	r3, [r3]
 3104 0162 0122     		movs	r2, #1
ARM GAS  /tmp/ccvK2xU6.s 			page 79


 3105 0164 B968     		ldr	r1, [r7, #8]
 3106 0166 1846     		mov	r0, r3
 3107 0168 FFF7FEFF 		bl	TIM_CCxChannelCmd
1400:Drivers/STM32F4xx_HAL_Driver/Src/stm32f4xx_hal_tim.c ****     
1401:Drivers/STM32F4xx_HAL_Driver/Src/stm32f4xx_hal_tim.c ****   if(IS_TIM_ADVANCED_INSTANCE(htim->Instance) != RESET)  
 3108              		.loc 1 1401 0
 3109 016c FB68     		ldr	r3, [r7, #12]
 3110 016e 1B68     		ldr	r3, [r3]
 3111 0170 124A     		ldr	r2, .L201+8
 3112 0172 9342     		cmp	r3, r2
 3113 0174 04D0     		beq	.L196
 3114              		.loc 1 1401 0 is_stmt 0 discriminator 2
 3115 0176 FB68     		ldr	r3, [r7, #12]
 3116 0178 1B68     		ldr	r3, [r3]
 3117 017a 114A     		ldr	r2, .L201+12
 3118 017c 9342     		cmp	r3, r2
 3119 017e 01D1     		bne	.L197
 3120              	.L196:
 3121              		.loc 1 1401 0 discriminator 3
 3122 0180 0123     		movs	r3, #1
 3123 0182 00E0     		b	.L198
 3124              	.L197:
 3125              		.loc 1 1401 0 discriminator 4
 3126 0184 0023     		movs	r3, #0
 3127              	.L198:
 3128              		.loc 1 1401 0 discriminator 6
 3129 0186 002B     		cmp	r3, #0
 3130 0188 07D0     		beq	.L199
1402:Drivers/STM32F4xx_HAL_Driver/Src/stm32f4xx_hal_tim.c ****   {
